
AVRASM ver. 2.1.30  C:\Users\egg_note\Desktop\EggTec_devel\devel_B35K\B35K_Firmware\Cur_Park\Cur_Park_v3_4_5_ABN\List\B25K-V3.asm Tue Dec 22 19:09:54 2020

C:\Users\egg_note\Desktop\EggTec_devel\devel_B35K\B35K_Firmware\Cur_Park\Cur_Park_v3_4_5_ABN\List\B25K-V3.asm(1094): warning: Register r4 already defined by the .DEF directive
C:\Users\egg_note\Desktop\EggTec_devel\devel_B35K\B35K_Firmware\Cur_Park\Cur_Park_v3_4_5_ABN\List\B25K-V3.asm(1095): warning: Register r3 already defined by the .DEF directive
C:\Users\egg_note\Desktop\EggTec_devel\devel_B35K\B35K_Firmware\Cur_Park\Cur_Park_v3_4_5_ABN\List\B25K-V3.asm(1096): warning: Register r6 already defined by the .DEF directive
C:\Users\egg_note\Desktop\EggTec_devel\devel_B35K\B35K_Firmware\Cur_Park\Cur_Park_v3_4_5_ABN\List\B25K-V3.asm(1097): warning: Register r5 already defined by the .DEF directive
C:\Users\egg_note\Desktop\EggTec_devel\devel_B35K\B35K_Firmware\Cur_Park\Cur_Park_v3_4_5_ABN\List\B25K-V3.asm(1098): warning: Register r8 already defined by the .DEF directive
C:\Users\egg_note\Desktop\EggTec_devel\devel_B35K\B35K_Firmware\Cur_Park\Cur_Park_v3_4_5_ABN\List\B25K-V3.asm(1099): warning: Register r7 already defined by the .DEF directive
C:\Users\egg_note\Desktop\EggTec_devel\devel_B35K\B35K_Firmware\Cur_Park\Cur_Park_v3_4_5_ABN\List\B25K-V3.asm(1100): warning: Register r10 already defined by the .DEF directive
C:\Users\egg_note\Desktop\EggTec_devel\devel_B35K\B35K_Firmware\Cur_Park\Cur_Park_v3_4_5_ABN\List\B25K-V3.asm(1101): warning: Register r9 already defined by the .DEF directive
C:\Users\egg_note\Desktop\EggTec_devel\devel_B35K\B35K_Firmware\Cur_Park\Cur_Park_v3_4_5_ABN\List\B25K-V3.asm(1102): warning: Register r12 already defined by the .DEF directive
C:\Users\egg_note\Desktop\EggTec_devel\devel_B35K\B35K_Firmware\Cur_Park\Cur_Park_v3_4_5_ABN\List\B25K-V3.asm(1103): warning: Register r11 already defined by the .DEF directive
C:\Users\egg_note\Desktop\EggTec_devel\devel_B35K\B35K_Firmware\Cur_Park\Cur_Park_v3_4_5_ABN\List\B25K-V3.asm(1104): warning: Register r14 already defined by the .DEF directive
C:\Users\egg_note\Desktop\EggTec_devel\devel_B35K\B35K_Firmware\Cur_Park\Cur_Park_v3_4_5_ABN\List\B25K-V3.asm(1105): warning: Register r13 already defined by the .DEF directive
                 
                 
                 ;CodeVisionAVR C Compiler V3.12 Advanced
                 ;(C) Copyright 1998-2014 Pavel Haiduc, HP InfoTech s.r.l.
                 ;http://www.hpinfotech.com
                 
                 ;Build configuration    : Debug
                 ;Chip type              : ATmega2561
                 ;Program type           : Application
                 ;Clock frequency        : 16.000000 MHz
                 ;Memory model           : Small
                 ;Optimize for           : Size
                 ;(s)printf features     : int, width
                 ;(s)scanf features      : int, width
                 ;External RAM size      : 0
                 ;Data Stack size        : 1024 byte(s)
                 ;Heap size              : 0 byte(s)
                 ;Promote 'char' to 'int': Yes
                 ;'char' is unsigned     : Yes
                 ;8 bit enums            : Yes
                 ;Global 'const' stored in FLASH: No
                 ;Enhanced function parameter passing: Yes
                 ;Enhanced core instructions: On
                 ;Automatic register allocation for global variables: On
                 ;Smart register allocation: On
                 
                 	#define _MODEL_SMALL_
                 
                 	#pragma AVRPART ADMIN PART_NAME ATmega2561
                 	#pragma AVRPART MEMORY PROG_FLASH 262144
                 	#pragma AVRPART MEMORY EEPROM 4096
                 	#pragma AVRPART MEMORY INT_SRAM SIZE 8192
                 	#pragma AVRPART MEMORY INT_SRAM START_ADDR 0x200
                 
                 	#define CALL_SUPPORTED 1
                 
                 	.LISTMAC
                 	.EQU EERE=0x0
                 	.EQU EEWE=0x1
                 	.EQU EEMWE=0x2
                 	.EQU UDRE=0x5
                 	.EQU RXC=0x7
                 	.EQU EECR=0x1F
                 	.EQU EEDR=0x20
                 	.EQU EEARL=0x21
                 	.EQU EEARH=0x22
                 	.EQU SPSR=0x2D
                 	.EQU SPDR=0x2E
                 	.EQU SMCR=0x33
                 	.EQU MCUSR=0x34
                 	.EQU MCUCR=0x35
                 	.EQU WDTCSR=0x60
                 	.EQU UCSR0A=0xC0
                 	.EQU UDR0=0xC6
                 	.EQU RAMPZ=0x3B
                 	.EQU EIND=0x3C
                 	.EQU SPL=0x3D
                 	.EQU SPH=0x3E
                 	.EQU SREG=0x3F
                 	.EQU XMCRA=0x74
                 	.EQU XMCRB=0x75
                 	.EQU GPIOR0=0x1E
                 
                 	.DEF R0X0=R0
                 	.DEF R0X1=R1
                 	.DEF R0X2=R2
                 	.DEF R0X3=R3
                 	.DEF R0X4=R4
                 	.DEF R0X5=R5
                 	.DEF R0X6=R6
                 	.DEF R0X7=R7
                 	.DEF R0X8=R8
                 	.DEF R0X9=R9
                 	.DEF R0XA=R10
                 	.DEF R0XB=R11
                 	.DEF R0XC=R12
                 	.DEF R0XD=R13
                 	.DEF R0XE=R14
                 	.DEF R0XF=R15
                 	.DEF R0X10=R16
                 	.DEF R0X11=R17
                 	.DEF R0X12=R18
                 	.DEF R0X13=R19
                 	.DEF R0X14=R20
                 	.DEF R0X15=R21
                 	.DEF R0X16=R22
                 	.DEF R0X17=R23
                 	.DEF R0X18=R24
                 	.DEF R0X19=R25
                 	.DEF R0X1A=R26
                 	.DEF R0X1B=R27
                 	.DEF R0X1C=R28
                 	.DEF R0X1D=R29
                 	.DEF R0X1E=R30
                 	.DEF R0X1F=R31
                 
                 	.EQU __SRAM_START=0x0200
                 	.EQU __SRAM_END=0x21FF
                 	.EQU __DSTACK_SIZE=0x0400
                 	.EQU __HEAP_SIZE=0x0000
                 	.EQU __CLEAR_SRAM_SIZE=__SRAM_END-__SRAM_START+1
                 
                 	.MACRO __CPD1N
                 	CPI  R30,LOW(@0)
                 	LDI  R26,HIGH(@0)
                 	CPC  R31,R26
                 	LDI  R26,BYTE3(@0)
                 	CPC  R22,R26
                 	LDI  R26,BYTE4(@0)
                 	CPC  R23,R26
                 	.ENDM
                 
                 	.MACRO __CPD2N
                 	CPI  R26,LOW(@0)
                 	LDI  R30,HIGH(@0)
                 	CPC  R27,R30
                 	LDI  R30,BYTE3(@0)
                 	CPC  R24,R30
                 	LDI  R30,BYTE4(@0)
                 	CPC  R25,R30
                 	.ENDM
                 
                 	.MACRO __CPWRR
                 	CP   R@0,R@2
                 	CPC  R@1,R@3
                 	.ENDM
                 
                 	.MACRO __CPWRN
                 	CPI  R@0,LOW(@2)
                 	LDI  R30,HIGH(@2)
                 	CPC  R@1,R30
                 	.ENDM
                 
                 	.MACRO __ADDB1MN
                 	SUBI R30,LOW(-@0-(@1))
                 	.ENDM
                 
                 	.MACRO __ADDB2MN
                 	SUBI R26,LOW(-@0-(@1))
                 	.ENDM
                 
                 	.MACRO __ADDW1MN
                 	SUBI R30,LOW(-@0-(@1))
                 	SBCI R31,HIGH(-@0-(@1))
                 	.ENDM
                 
                 	.MACRO __ADDW2MN
                 	SUBI R26,LOW(-@0-(@1))
                 	SBCI R27,HIGH(-@0-(@1))
                 	.ENDM
                 
                 	.MACRO __ADDW1FN
                 	SUBI R30,LOW(-2*@0-(@1))
                 	SBCI R31,HIGH(-2*@0-(@1))
                 	.ENDM
                 
                 	.MACRO __ADDD1FN
                 	SUBI R30,LOW(-2*@0-(@1))
                 	SBCI R31,HIGH(-2*@0-(@1))
                 	SBCI R22,BYTE3(-2*@0-(@1))
                 	.ENDM
                 
                 	.MACRO __ADDD1N
                 	SUBI R30,LOW(-@0)
                 	SBCI R31,HIGH(-@0)
                 	SBCI R22,BYTE3(-@0)
                 	SBCI R23,BYTE4(-@0)
                 	.ENDM
                 
                 	.MACRO __ADDD2N
                 	SUBI R26,LOW(-@0)
                 	SBCI R27,HIGH(-@0)
                 	SBCI R24,BYTE3(-@0)
                 	SBCI R25,BYTE4(-@0)
                 	.ENDM
                 
                 	.MACRO __SUBD1N
                 	SUBI R30,LOW(@0)
                 	SBCI R31,HIGH(@0)
                 	SBCI R22,BYTE3(@0)
                 	SBCI R23,BYTE4(@0)
                 	.ENDM
                 
                 	.MACRO __SUBD2N
                 	SUBI R26,LOW(@0)
                 	SBCI R27,HIGH(@0)
                 	SBCI R24,BYTE3(@0)
                 	SBCI R25,BYTE4(@0)
                 	.ENDM
                 
                 	.MACRO __ANDBMNN
                 	LDS  R30,@0+(@1)
                 	ANDI R30,LOW(@2)
                 	STS  @0+(@1),R30
                 	.ENDM
                 
                 	.MACRO __ANDWMNN
                 	LDS  R30,@0+(@1)
                 	ANDI R30,LOW(@2)
                 	STS  @0+(@1),R30
                 	LDS  R30,@0+(@1)+1
                 	ANDI R30,HIGH(@2)
                 	STS  @0+(@1)+1,R30
                 	.ENDM
                 
                 	.MACRO __ANDD1N
                 	ANDI R30,LOW(@0)
                 	ANDI R31,HIGH(@0)
                 	ANDI R22,BYTE3(@0)
                 	ANDI R23,BYTE4(@0)
                 	.ENDM
                 
                 	.MACRO __ANDD2N
                 	ANDI R26,LOW(@0)
                 	ANDI R27,HIGH(@0)
                 	ANDI R24,BYTE3(@0)
                 	ANDI R25,BYTE4(@0)
                 	.ENDM
                 
                 	.MACRO __ORBMNN
                 	LDS  R30,@0+(@1)
                 	ORI  R30,LOW(@2)
                 	STS  @0+(@1),R30
                 	.ENDM
                 
                 	.MACRO __ORWMNN
                 	LDS  R30,@0+(@1)
                 	ORI  R30,LOW(@2)
                 	STS  @0+(@1),R30
                 	LDS  R30,@0+(@1)+1
                 	ORI  R30,HIGH(@2)
                 	STS  @0+(@1)+1,R30
                 	.ENDM
                 
                 	.MACRO __ORD1N
                 	ORI  R30,LOW(@0)
                 	ORI  R31,HIGH(@0)
                 	ORI  R22,BYTE3(@0)
                 	ORI  R23,BYTE4(@0)
                 	.ENDM
                 
                 	.MACRO __ORD2N
                 	ORI  R26,LOW(@0)
                 	ORI  R27,HIGH(@0)
                 	ORI  R24,BYTE3(@0)
                 	ORI  R25,BYTE4(@0)
                 	.ENDM
                 
                 	.MACRO __DELAY_USB
                 	LDI  R24,LOW(@0)
                 __DELAY_USB_LOOP:
                 	DEC  R24
                 	BRNE __DELAY_USB_LOOP
                 	.ENDM
                 
                 	.MACRO __DELAY_USW
                 	LDI  R24,LOW(@0)
                 	LDI  R25,HIGH(@0)
                 __DELAY_USW_LOOP:
                 	SBIW R24,1
                 	BRNE __DELAY_USW_LOOP
                 	.ENDM
                 
                 	.MACRO __GETD1S
                 	LDD  R30,Y+@0
                 	LDD  R31,Y+@0+1
                 	LDD  R22,Y+@0+2
                 	LDD  R23,Y+@0+3
                 	.ENDM
                 
                 	.MACRO __GETD2S
                 	LDD  R26,Y+@0
                 	LDD  R27,Y+@0+1
                 	LDD  R24,Y+@0+2
                 	LDD  R25,Y+@0+3
                 	.ENDM
                 
                 	.MACRO __PUTD1S
                 	STD  Y+@0,R30
                 	STD  Y+@0+1,R31
                 	STD  Y+@0+2,R22
                 	STD  Y+@0+3,R23
                 	.ENDM
                 
                 	.MACRO __PUTD2S
                 	STD  Y+@0,R26
                 	STD  Y+@0+1,R27
                 	STD  Y+@0+2,R24
                 	STD  Y+@0+3,R25
                 	.ENDM
                 
                 	.MACRO __PUTDZ2
                 	STD  Z+@0,R26
                 	STD  Z+@0+1,R27
                 	STD  Z+@0+2,R24
                 	STD  Z+@0+3,R25
                 	.ENDM
                 
                 	.MACRO __CLRD1S
                 	STD  Y+@0,R30
                 	STD  Y+@0+1,R30
                 	STD  Y+@0+2,R30
                 	STD  Y+@0+3,R30
                 	.ENDM
                 
                 	.MACRO __POINTB1MN
                 	LDI  R30,LOW(@0+(@1))
                 	.ENDM
                 
                 	.MACRO __POINTW1MN
                 	LDI  R30,LOW(@0+(@1))
                 	LDI  R31,HIGH(@0+(@1))
                 	.ENDM
                 
                 	.MACRO __POINTD1M
                 	LDI  R30,LOW(@0)
                 	LDI  R31,HIGH(@0)
                 	LDI  R22,BYTE3(@0)
                 	LDI  R23,BYTE4(@0)
                 	.ENDM
                 
                 	.MACRO __POINTW1FN
                 	LDI  R30,LOW(2*@0+(@1))
                 	LDI  R31,HIGH(2*@0+(@1))
                 	.ENDM
                 
                 	.MACRO __POINTD1FN
                 	LDI  R30,LOW(2*@0+(@1))
                 	LDI  R31,HIGH(2*@0+(@1))
                 	LDI  R22,BYTE3(2*@0+(@1))
                 	LDI  R23,BYTE4(2*@0+(@1))
                 	.ENDM
                 
                 	.MACRO __POINTB2MN
                 	LDI  R26,LOW(@0+(@1))
                 	.ENDM
                 
                 	.MACRO __POINTW2MN
                 	LDI  R26,LOW(@0+(@1))
                 	LDI  R27,HIGH(@0+(@1))
                 	.ENDM
                 
                 	.MACRO __POINTW2FN
                 	LDI  R26,LOW(2*@0+(@1))
                 	LDI  R27,HIGH(2*@0+(@1))
                 	.ENDM
                 
                 	.MACRO __POINTD2FN
                 	LDI  R26,LOW(2*@0+(@1))
                 	LDI  R27,HIGH(2*@0+(@1))
                 	LDI  R24,BYTE3(2*@0+(@1))
                 	LDI  R25,BYTE4(2*@0+(@1))
                 	.ENDM
                 
                 	.MACRO __POINTBRM
                 	LDI  R@0,LOW(@1)
                 	.ENDM
                 
                 	.MACRO __POINTWRM
                 	LDI  R@0,LOW(@2)
                 	LDI  R@1,HIGH(@2)
                 	.ENDM
                 
                 	.MACRO __POINTBRMN
                 	LDI  R@0,LOW(@1+(@2))
                 	.ENDM
                 
                 	.MACRO __POINTWRMN
                 	LDI  R@0,LOW(@2+(@3))
                 	LDI  R@1,HIGH(@2+(@3))
                 	.ENDM
                 
                 	.MACRO __POINTWRFN
                 	LDI  R@0,LOW(@2*2+(@3))
                 	LDI  R@1,HIGH(@2*2+(@3))
                 	.ENDM
                 
                 	.MACRO __GETD1N
                 	LDI  R30,LOW(@0)
                 	LDI  R31,HIGH(@0)
                 	LDI  R22,BYTE3(@0)
                 	LDI  R23,BYTE4(@0)
                 	.ENDM
                 
                 	.MACRO __GETD2N
                 	LDI  R26,LOW(@0)
                 	LDI  R27,HIGH(@0)
                 	LDI  R24,BYTE3(@0)
                 	LDI  R25,BYTE4(@0)
                 	.ENDM
                 
                 	.MACRO __GETB1MN
                 	LDS  R30,@0+(@1)
                 	.ENDM
                 
                 	.MACRO __GETB1HMN
                 	LDS  R31,@0+(@1)
                 	.ENDM
                 
                 	.MACRO __GETW1MN
                 	LDS  R30,@0+(@1)
                 	LDS  R31,@0+(@1)+1
                 	.ENDM
                 
                 	.MACRO __GETD1MN
                 	LDS  R30,@0+(@1)
                 	LDS  R31,@0+(@1)+1
                 	LDS  R22,@0+(@1)+2
                 	LDS  R23,@0+(@1)+3
                 	.ENDM
                 
                 	.MACRO __GETBRMN
                 	LDS  R@0,@1+(@2)
                 	.ENDM
                 
                 	.MACRO __GETWRMN
                 	LDS  R@0,@2+(@3)
                 	LDS  R@1,@2+(@3)+1
                 	.ENDM
                 
                 	.MACRO __GETWRZ
                 	LDD  R@0,Z+@2
                 	LDD  R@1,Z+@2+1
                 	.ENDM
                 
                 	.MACRO __GETD2Z
                 	LDD  R26,Z+@0
                 	LDD  R27,Z+@0+1
                 	LDD  R24,Z+@0+2
                 	LDD  R25,Z+@0+3
                 	.ENDM
                 
                 	.MACRO __GETB2MN
                 	LDS  R26,@0+(@1)
                 	.ENDM
                 
                 	.MACRO __GETW2MN
                 	LDS  R26,@0+(@1)
                 	LDS  R27,@0+(@1)+1
                 	.ENDM
                 
                 	.MACRO __GETD2MN
                 	LDS  R26,@0+(@1)
                 	LDS  R27,@0+(@1)+1
                 	LDS  R24,@0+(@1)+2
                 	LDS  R25,@0+(@1)+3
                 	.ENDM
                 
                 	.MACRO __PUTB1MN
                 	STS  @0+(@1),R30
                 	.ENDM
                 
                 	.MACRO __PUTW1MN
                 	STS  @0+(@1),R30
                 	STS  @0+(@1)+1,R31
                 	.ENDM
                 
                 	.MACRO __PUTD1MN
                 	STS  @0+(@1),R30
                 	STS  @0+(@1)+1,R31
                 	STS  @0+(@1)+2,R22
                 	STS  @0+(@1)+3,R23
                 	.ENDM
                 
                 	.MACRO __PUTB1EN
                 	LDI  R26,LOW(@0+(@1))
                 	LDI  R27,HIGH(@0+(@1))
                 	CALL __EEPROMWRB
                 	.ENDM
                 
                 	.MACRO __PUTW1EN
                 	LDI  R26,LOW(@0+(@1))
                 	LDI  R27,HIGH(@0+(@1))
                 	CALL __EEPROMWRW
                 	.ENDM
                 
                 	.MACRO __PUTD1EN
                 	LDI  R26,LOW(@0+(@1))
                 	LDI  R27,HIGH(@0+(@1))
                 	CALL __EEPROMWRD
                 	.ENDM
                 
                 	.MACRO __PUTBR0MN
                 	STS  @0+(@1),R0
                 	.ENDM
                 
                 	.MACRO __PUTBMRN
                 	STS  @0+(@1),R@2
                 	.ENDM
                 
                 	.MACRO __PUTWMRN
                 	STS  @0+(@1),R@2
                 	STS  @0+(@1)+1,R@3
                 	.ENDM
                 
                 	.MACRO __PUTBZR
                 	STD  Z+@1,R@0
                 	.ENDM
                 
                 	.MACRO __PUTWZR
                 	STD  Z+@2,R@0
                 	STD  Z+@2+1,R@1
                 	.ENDM
                 
                 	.MACRO __GETW1R
                 	MOV  R30,R@0
                 	MOV  R31,R@1
                 	.ENDM
                 
                 	.MACRO __GETW2R
                 	MOV  R26,R@0
                 	MOV  R27,R@1
                 	.ENDM
                 
                 	.MACRO __GETWRN
                 	LDI  R@0,LOW(@2)
                 	LDI  R@1,HIGH(@2)
                 	.ENDM
                 
                 	.MACRO __PUTW1R
                 	MOV  R@0,R30
                 	MOV  R@1,R31
                 	.ENDM
                 
                 	.MACRO __PUTW2R
                 	MOV  R@0,R26
                 	MOV  R@1,R27
                 	.ENDM
                 
                 	.MACRO __ADDWRN
                 	SUBI R@0,LOW(-@2)
                 	SBCI R@1,HIGH(-@2)
                 	.ENDM
                 
                 	.MACRO __ADDWRR
                 	ADD  R@0,R@2
                 	ADC  R@1,R@3
                 	.ENDM
                 
                 	.MACRO __SUBWRN
                 	SUBI R@0,LOW(@2)
                 	SBCI R@1,HIGH(@2)
                 	.ENDM
                 
                 	.MACRO __SUBWRR
                 	SUB  R@0,R@2
                 	SBC  R@1,R@3
                 	.ENDM
                 
                 	.MACRO __ANDWRN
                 	ANDI R@0,LOW(@2)
                 	ANDI R@1,HIGH(@2)
                 	.ENDM
                 
                 	.MACRO __ANDWRR
                 	AND  R@0,R@2
                 	AND  R@1,R@3
                 	.ENDM
                 
                 	.MACRO __ORWRN
                 	ORI  R@0,LOW(@2)
                 	ORI  R@1,HIGH(@2)
                 	.ENDM
                 
                 	.MACRO __ORWRR
                 	OR   R@0,R@2
                 	OR   R@1,R@3
                 	.ENDM
                 
                 	.MACRO __EORWRR
                 	EOR  R@0,R@2
                 	EOR  R@1,R@3
                 	.ENDM
                 
                 	.MACRO __GETWRS
                 	LDD  R@0,Y+@2
                 	LDD  R@1,Y+@2+1
                 	.ENDM
                 
                 	.MACRO __PUTBSR
                 	STD  Y+@1,R@0
                 	.ENDM
                 
                 	.MACRO __PUTWSR
                 	STD  Y+@2,R@0
                 	STD  Y+@2+1,R@1
                 	.ENDM
                 
                 	.MACRO __MOVEWRR
                 	MOV  R@0,R@2
                 	MOV  R@1,R@3
                 	.ENDM
                 
                 	.MACRO __INWR
                 	IN   R@0,@2
                 	IN   R@1,@2+1
                 	.ENDM
                 
                 	.MACRO __OUTWR
                 	OUT  @2+1,R@1
                 	OUT  @2,R@0
                 	.ENDM
                 
                 	.MACRO __CALL1MN
                 	LDS  R30,@0+(@1)
                 	LDS  R31,@0+(@1)+1
                 	ICALL
                 	.ENDM
                 
                 	.MACRO __CALL1FN
                 	LDI  R30,LOW(2*@0+(@1))
                 	LDI  R31,HIGH(2*@0+(@1))
                 	CALL __GETW1PF
                 	ICALL
                 	.ENDM
                 
                 	.MACRO __CALL2EN
                 	PUSH R26
                 	PUSH R27
                 	LDI  R26,LOW(@0+(@1))
                 	LDI  R27,HIGH(@0+(@1))
                 	CALL __EEPROMRDW
                 	POP  R27
                 	POP  R26
                 	ICALL
                 	.ENDM
                 
                 	.MACRO __CALL2EX
                 	SUBI R26,LOW(-@0)
                 	SBCI R27,HIGH(-@0)
                 	CALL __EEPROMRDD
                 	ICALL
                 	.ENDM
                 
                 	.MACRO __GETW1STACK
                 	IN   R30,SPL
                 	IN   R31,SPH
                 	ADIW R30,@0+1
                 	LD   R0,Z+
                 	LD   R31,Z
                 	MOV  R30,R0
                 	.ENDM
                 
                 	.MACRO __GETD1STACK
                 	IN   R30,SPL
                 	IN   R31,SPH
                 	ADIW R30,@0+1
                 	LD   R0,Z+
                 	LD   R1,Z+
                 	LD   R22,Z
                 	MOVW R30,R0
                 	.ENDM
                 
                 	.MACRO __NBST
                 	BST  R@0,@1
                 	IN   R30,SREG
                 	LDI  R31,0x40
                 	EOR  R30,R31
                 	OUT  SREG,R30
                 	.ENDM
                 
                 
                 	.MACRO __PUTB1SN
                 	LDD  R26,Y+@0
                 	LDD  R27,Y+@0+1
                 	SUBI R26,LOW(-@1)
                 	SBCI R27,HIGH(-@1)
                 	ST   X,R30
                 	.ENDM
                 
                 	.MACRO __PUTW1SN
                 	LDD  R26,Y+@0
                 	LDD  R27,Y+@0+1
                 	SUBI R26,LOW(-@1)
                 	SBCI R27,HIGH(-@1)
                 	ST   X+,R30
                 	ST   X,R31
                 	.ENDM
                 
                 	.MACRO __PUTD1SN
                 	LDD  R26,Y+@0
                 	LDD  R27,Y+@0+1
                 	SUBI R26,LOW(-@1)
                 	SBCI R27,HIGH(-@1)
                 	CALL __PUTDP1
                 	.ENDM
                 
                 	.MACRO __PUTB1SNS
                 	LDD  R26,Y+@0
                 	LDD  R27,Y+@0+1
                 	ADIW R26,@1
                 	ST   X,R30
                 	.ENDM
                 
                 	.MACRO __PUTW1SNS
                 	LDD  R26,Y+@0
                 	LDD  R27,Y+@0+1
                 	ADIW R26,@1
                 	ST   X+,R30
                 	ST   X,R31
                 	.ENDM
                 
                 	.MACRO __PUTD1SNS
                 	LDD  R26,Y+@0
                 	LDD  R27,Y+@0+1
                 	ADIW R26,@1
                 	CALL __PUTDP1
                 	.ENDM
                 
                 	.MACRO __PUTB1PMN
                 	LDS  R26,@0
                 	LDS  R27,@0+1
                 	SUBI R26,LOW(-@1)
                 	SBCI R27,HIGH(-@1)
                 	ST   X,R30
                 	.ENDM
                 
                 	.MACRO __PUTW1PMN
                 	LDS  R26,@0
                 	LDS  R27,@0+1
                 	SUBI R26,LOW(-@1)
                 	SBCI R27,HIGH(-@1)
                 	ST   X+,R30
                 	ST   X,R31
                 	.ENDM
                 
                 	.MACRO __PUTD1PMN
                 	LDS  R26,@0
                 	LDS  R27,@0+1
                 	SUBI R26,LOW(-@1)
                 	SBCI R27,HIGH(-@1)
                 	CALL __PUTDP1
                 	.ENDM
                 
                 	.MACRO __PUTB1PMNS
                 	LDS  R26,@0
                 	LDS  R27,@0+1
                 	ADIW R26,@1
                 	ST   X,R30
                 	.ENDM
                 
                 	.MACRO __PUTW1PMNS
                 	LDS  R26,@0
                 	LDS  R27,@0+1
                 	ADIW R26,@1
                 	ST   X+,R30
                 	ST   X,R31
                 	.ENDM
                 
                 	.MACRO __PUTD1PMNS
                 	LDS  R26,@0
                 	LDS  R27,@0+1
                 	ADIW R26,@1
                 	CALL __PUTDP1
                 	.ENDM
                 
                 	.MACRO __PUTB1RN
                 	MOVW R26,R@0
                 	SUBI R26,LOW(-@1)
                 	SBCI R27,HIGH(-@1)
                 	ST   X,R30
                 	.ENDM
                 
                 	.MACRO __PUTW1RN
                 	MOVW R26,R@0
                 	SUBI R26,LOW(-@1)
                 	SBCI R27,HIGH(-@1)
                 	ST   X+,R30
                 	ST   X,R31
                 	.ENDM
                 
                 	.MACRO __PUTD1RN
                 	MOVW R26,R@0
                 	SUBI R26,LOW(-@1)
                 	SBCI R27,HIGH(-@1)
                 	CALL __PUTDP1
                 	.ENDM
                 
                 	.MACRO __PUTB1RNS
                 	MOVW R26,R@0
                 	ADIW R26,@1
                 	ST   X,R30
                 	.ENDM
                 
                 	.MACRO __PUTW1RNS
                 	MOVW R26,R@0
                 	ADIW R26,@1
                 	ST   X+,R30
                 	ST   X,R31
                 	.ENDM
                 
                 	.MACRO __PUTD1RNS
                 	MOVW R26,R@0
                 	ADIW R26,@1
                 	CALL __PUTDP1
                 	.ENDM
                 
                 	.MACRO __PUTB1RON
                 	MOV  R26,R@0
                 	MOV  R27,R@1
                 	SUBI R26,LOW(-@2)
                 	SBCI R27,HIGH(-@2)
                 	ST   X,R30
                 	.ENDM
                 
                 	.MACRO __PUTW1RON
                 	MOV  R26,R@0
                 	MOV  R27,R@1
                 	SUBI R26,LOW(-@2)
                 	SBCI R27,HIGH(-@2)
                 	ST   X+,R30
                 	ST   X,R31
                 	.ENDM
                 
                 	.MACRO __PUTD1RON
                 	MOV  R26,R@0
                 	MOV  R27,R@1
                 	SUBI R26,LOW(-@2)
                 	SBCI R27,HIGH(-@2)
                 	CALL __PUTDP1
                 	.ENDM
                 
                 	.MACRO __PUTB1RONS
                 	MOV  R26,R@0
                 	MOV  R27,R@1
                 	ADIW R26,@2
                 	ST   X,R30
                 	.ENDM
                 
                 	.MACRO __PUTW1RONS
                 	MOV  R26,R@0
                 	MOV  R27,R@1
                 	ADIW R26,@2
                 	ST   X+,R30
                 	ST   X,R31
                 	.ENDM
                 
                 	.MACRO __PUTD1RONS
                 	MOV  R26,R@0
                 	MOV  R27,R@1
                 	ADIW R26,@2
                 	CALL __PUTDP1
                 	.ENDM
                 
                 
                 	.MACRO __GETB1SX
                 	MOVW R30,R28
                 	SUBI R30,LOW(-@0)
                 	SBCI R31,HIGH(-@0)
                 	LD   R30,Z
                 	.ENDM
                 
                 	.MACRO __GETB1HSX
                 	MOVW R30,R28
                 	SUBI R30,LOW(-@0)
                 	SBCI R31,HIGH(-@0)
                 	LD   R31,Z
                 	.ENDM
                 
                 	.MACRO __GETW1SX
                 	MOVW R30,R28
                 	SUBI R30,LOW(-@0)
                 	SBCI R31,HIGH(-@0)
                 	LD   R0,Z+
                 	LD   R31,Z
                 	MOV  R30,R0
                 	.ENDM
                 
                 	.MACRO __GETD1SX
                 	MOVW R30,R28
                 	SUBI R30,LOW(-@0)
                 	SBCI R31,HIGH(-@0)
                 	LD   R0,Z+
                 	LD   R1,Z+
                 	LD   R22,Z+
                 	LD   R23,Z
                 	MOVW R30,R0
                 	.ENDM
                 
                 	.MACRO __GETB2SX
                 	MOVW R26,R28
                 	SUBI R26,LOW(-@0)
                 	SBCI R27,HIGH(-@0)
                 	LD   R26,X
                 	.ENDM
                 
                 	.MACRO __GETW2SX
                 	MOVW R26,R28
                 	SUBI R26,LOW(-@0)
                 	SBCI R27,HIGH(-@0)
                 	LD   R0,X+
                 	LD   R27,X
                 	MOV  R26,R0
                 	.ENDM
                 
                 	.MACRO __GETD2SX
                 	MOVW R26,R28
                 	SUBI R26,LOW(-@0)
                 	SBCI R27,HIGH(-@0)
                 	LD   R0,X+
                 	LD   R1,X+
                 	LD   R24,X+
                 	LD   R25,X
                 	MOVW R26,R0
                 	.ENDM
                 
                 	.MACRO __GETBRSX
                 	MOVW R30,R28
                 	SUBI R30,LOW(-@1)
                 	SBCI R31,HIGH(-@1)
                 	LD   R@0,Z
                 	.ENDM
                 
                 	.MACRO __GETWRSX
                 	MOVW R30,R28
                 	SUBI R30,LOW(-@2)
                 	SBCI R31,HIGH(-@2)
                 	LD   R@0,Z+
                 	LD   R@1,Z
                 	.ENDM
                 
                 	.MACRO __GETBRSX2
                 	MOVW R26,R28
                 	SUBI R26,LOW(-@1)
                 	SBCI R27,HIGH(-@1)
                 	LD   R@0,X
                 	.ENDM
                 
                 	.MACRO __GETWRSX2
                 	MOVW R26,R28
                 	SUBI R26,LOW(-@2)
                 	SBCI R27,HIGH(-@2)
                 	LD   R@0,X+
                 	LD   R@1,X
                 	.ENDM
                 
                 	.MACRO __LSLW8SX
                 	MOVW R30,R28
                 	SUBI R30,LOW(-@0)
                 	SBCI R31,HIGH(-@0)
                 	LD   R31,Z
                 	CLR  R30
                 	.ENDM
                 
                 	.MACRO __PUTB1SX
                 	MOVW R26,R28
                 	SUBI R26,LOW(-@0)
                 	SBCI R27,HIGH(-@0)
                 	ST   X,R30
                 	.ENDM
                 
                 	.MACRO __PUTW1SX
                 	MOVW R26,R28
                 	SUBI R26,LOW(-@0)
                 	SBCI R27,HIGH(-@0)
                 	ST   X+,R30
                 	ST   X,R31
                 	.ENDM
                 
                 	.MACRO __PUTD1SX
                 	MOVW R26,R28
                 	SUBI R26,LOW(-@0)
                 	SBCI R27,HIGH(-@0)
                 	ST   X+,R30
                 	ST   X+,R31
                 	ST   X+,R22
                 	ST   X,R23
                 	.ENDM
                 
                 	.MACRO __CLRW1SX
                 	MOVW R26,R28
                 	SUBI R26,LOW(-@0)
                 	SBCI R27,HIGH(-@0)
                 	ST   X+,R30
                 	ST   X,R30
                 	.ENDM
                 
                 	.MACRO __CLRD1SX
                 	MOVW R26,R28
                 	SUBI R26,LOW(-@0)
                 	SBCI R27,HIGH(-@0)
                 	ST   X+,R30
                 	ST   X+,R30
                 	ST   X+,R30
                 	ST   X,R30
                 	.ENDM
                 
                 	.MACRO __PUTB2SX
                 	MOVW R30,R28
                 	SUBI R30,LOW(-@0)
                 	SBCI R31,HIGH(-@0)
                 	ST   Z,R26
                 	.ENDM
                 
                 	.MACRO __PUTW2SX
                 	MOVW R30,R28
                 	SUBI R30,LOW(-@0)
                 	SBCI R31,HIGH(-@0)
                 	ST   Z+,R26
                 	ST   Z,R27
                 	.ENDM
                 
                 	.MACRO __PUTD2SX
                 	MOVW R30,R28
                 	SUBI R30,LOW(-@0)
                 	SBCI R31,HIGH(-@0)
                 	ST   Z+,R26
                 	ST   Z+,R27
                 	ST   Z+,R24
                 	ST   Z,R25
                 	.ENDM
                 
                 	.MACRO __PUTBSRX
                 	MOVW R30,R28
                 	SUBI R30,LOW(-@1)
                 	SBCI R31,HIGH(-@1)
                 	ST   Z,R@0
                 	.ENDM
                 
                 	.MACRO __PUTWSRX
                 	MOVW R30,R28
                 	SUBI R30,LOW(-@2)
                 	SBCI R31,HIGH(-@2)
                 	ST   Z+,R@0
                 	ST   Z,R@1
                 	.ENDM
                 
                 	.MACRO __PUTB1SNX
                 	MOVW R26,R28
                 	SUBI R26,LOW(-@0)
                 	SBCI R27,HIGH(-@0)
                 	LD   R0,X+
                 	LD   R27,X
                 	MOV  R26,R0
                 	SUBI R26,LOW(-@1)
                 	SBCI R27,HIGH(-@1)
                 	ST   X,R30
                 	.ENDM
                 
                 	.MACRO __PUTW1SNX
                 	MOVW R26,R28
                 	SUBI R26,LOW(-@0)
                 	SBCI R27,HIGH(-@0)
                 	LD   R0,X+
                 	LD   R27,X
                 	MOV  R26,R0
                 	SUBI R26,LOW(-@1)
                 	SBCI R27,HIGH(-@1)
                 	ST   X+,R30
                 	ST   X,R31
                 	.ENDM
                 
                 	.MACRO __PUTD1SNX
                 	MOVW R26,R28
                 	SUBI R26,LOW(-@0)
                 	SBCI R27,HIGH(-@0)
                 	LD   R0,X+
                 	LD   R27,X
                 	MOV  R26,R0
                 	SUBI R26,LOW(-@1)
                 	SBCI R27,HIGH(-@1)
                 	ST   X+,R30
                 	ST   X+,R31
                 	ST   X+,R22
                 	ST   X,R23
                 	.ENDM
                 
                 	.MACRO __MULBRR
                 	MULS R@0,R@1
                 	MOVW R30,R0
                 	.ENDM
                 
                 	.MACRO __MULBRRU
                 	MUL  R@0,R@1
                 	MOVW R30,R0
                 	.ENDM
                 
                 	.MACRO __MULBRR0
                 	MULS R@0,R@1
                 	.ENDM
                 
                 	.MACRO __MULBRRU0
                 	MUL  R@0,R@1
                 	.ENDM
                 
                 	.MACRO __MULBNWRU
                 	LDI  R26,@2
                 	MUL  R26,R@0
                 	MOVW R30,R0
                 	MUL  R26,R@1
                 	ADD  R31,R0
                 	.ENDM
                 
                 ;NAME DEFINITIONS FOR GLOBAL VARIABLES ALLOCATED TO REGISTERS
                 	.DEF _ControllerRunMethod=R4
                 	.DEF _SolenoidTestType=R3
                 	.DEF _TestGrade=R6
                 	.DEF _CW_DIR=R5
                 	.DEF _z_led_flag=R8
                 	.DEF _a_led_flag=R7
                 	.DEF _modRunning=R10
                 	.DEF _ScanEnable=R9
                 	.DEF _crackValue=R12
                 	.DEF _dotValue=R11
                 	.DEF _scan_ad_ch=R14
                 	.DEF _ScanStopEnable=R13
                 
                 ;GPIOR0 INITIALIZATION VALUE
                 	.EQU __GPIOR0_INIT=0x00
                 
                 	.CSEG
                 	.ORG 0x00
                 
                 ;START OF CODE MARKER
                 __START_OF_CODE:
                 
                 ;INTERRUPT VECTORS
000000 940c 0198 	JMP  __RESET
000002 940c 055e 	JMP  _ext_int0_isr
000004 940c 05ce 	JMP  _ext_int1_isr
000006 940c 0000 	JMP  0x00
000008 940c 0000 	JMP  0x00
00000a 940c 0000 	JMP  0x00
00000c 940c 0640 	JMP  _ext_int5_isr
00000e 940c 06ae 	JMP  _ext_int6_isr
000010 940c 072d 	JMP  _ext_int7_isr
000012 940c 0000 	JMP  0x00
000014 940c 0000 	JMP  0x00
000016 940c 0000 	JMP  0x00
000018 940c 0000 	JMP  0x00
00001a 940c 0000 	JMP  0x00
00001c 940c 0000 	JMP  0x00
00001e 940c 0000 	JMP  0x00
000020 940c 0000 	JMP  0x00
000022 940c 0c64 	JMP  _timer1_compa_isr
000024 940c 0000 	JMP  0x00
000026 940c 0000 	JMP  0x00
000028 940c 0000 	JMP  0x00
00002a 940c 0000 	JMP  0x00
00002c 940c 0000 	JMP  0x00
00002e 940c 0c63 	JMP  _timer0_ovf_isr
000030 940c 0000 	JMP  0x00
000032 940c 0000 	JMP  0x00
000034 940c 0000 	JMP  0x00
000036 940c 0000 	JMP  0x00
000038 940c 0000 	JMP  0x00
00003a 940c 0000 	JMP  0x00
00003c 940c 0000 	JMP  0x00
00003e 940c 0000 	JMP  0x00
000040 940c 0000 	JMP  0x00
000042 940c 0000 	JMP  0x00
000044 940c 0000 	JMP  0x00
000046 940c 0000 	JMP  0x00
000048 940c 0bb3 	JMP  _usart1_rx_isr
00004a 940c 0000 	JMP  0x00
00004c 940c 0c36 	JMP  _usart1_tx_isr
00004e 940c 0000 	JMP  0x00
000050 940c 0000 	JMP  0x00
000052 940c 0000 	JMP  0x00
000054 940c 0000 	JMP  0x00
000056 940c 0000 	JMP  0x00
000058 940c 0000 	JMP  0x00
00005a 940c 0000 	JMP  0x00
00005c 940c 0000 	JMP  0x00
00005e 940c 0000 	JMP  0x00
000060 940c 0000 	JMP  0x00
000062 940c 0000 	JMP  0x00
000064 940c 0000 	JMP  0x00
                 
                 _tbl10_G100:
000066 2710
000067 03e8
000068 0064
000069 000a      	.DB  0x10,0x27,0xE8,0x3,0x64,0x0,0xA,0x0
00006a 0001      	.DB  0x1,0x0
                 _tbl16_G100:
00006b 1000
00006c 0100
00006d 0010
00006e 0001      	.DB  0x0,0x10,0x0,0x1,0x10,0x0,0x1,0x0
                 
                 ;GLOBAL REGISTER VARIABLES INITIALIZATION
                 __REG_VARS:
00006f 0100
000070 0000      	.DB  0x0,0x1,0x0,0x0
000071 0000
000072 0000      	.DB  0x0,0x0,0x0,0x0
000073 0000      	.DB  0x0,0x0
                 
                 _0x3:
000074 09c4      	.DB  0xC4,0x9
                 _0x4:
000075 015e      	.DB  0x5E,0x1
                 _0x5:
C:\Users\egg_note\Desktop\EggTec_devel\devel_B35K\B35K_Firmware\Cur_Park\Cur_Park_v3_4_5_ABN\List\B25K-V3.asm(1186): warning: .cseg .db misalignment - padding zero byte
000076 000a      	.DB  0xA
                 _0x6:
000077 0002
000078 a004
000079 0000
00007a 0300      	.DB  0x2,0x0,0x4,0xA0,0x0,0x0,0x0,0x3
                 _0x7:
C:\Users\egg_note\Desktop\EggTec_devel\devel_B35K\B35K_Firmware\Cur_Park\Cur_Park_v3_4_5_ABN\List\B25K-V3.asm(1190): warning: .cseg .db misalignment - padding zero byte
00007b 000a      	.DB  0xA
                 _0x8:
C:\Users\egg_note\Desktop\EggTec_devel\devel_B35K\B35K_Firmware\Cur_Park\Cur_Park_v3_4_5_ABN\List\B25K-V3.asm(1192): warning: .cseg .db misalignment - padding zero byte
00007c 0005      	.DB  0x5
                 _0x9:
00007d 0100
00007e 0302
00007f 0504
000080 001d      	.DB  0x0,0x1,0x2,0x3,0x4,0x5,0x1D,0x0
000081 0026
000082 0033
000083 003c
000084 0049      	.DB  0x26,0x0,0x33,0x0,0x3C,0x0,0x49,0x0
000085 0052
000086 005f
000087 0068
000088 0000      	.DB  0x52,0x0,0x5F,0x0,0x68,0x0,0x0,0x0
000089 0102
00008a 0300
00008b 0504
00008c 0706      	.DB  0x2,0x1,0x0,0x3,0x4,0x5,0x6,0x7
00008d 0008
00008e 0001
00008f 0002
000090 0003      	.DB  0x8,0x0,0x1,0x0,0x2,0x0,0x3,0x0
000091 0004
000092 0005
000093 0006
000094 0007      	.DB  0x4,0x0,0x5,0x0,0x6,0x0,0x7,0x0
000095 0008
000096 0000
000097 0100
000098 0200      	.DB  0x8,0x0,0x0,0x0,0x0,0x1,0x0,0x2
000099 0300
00009a 0400
00009b 0500
00009c 3200      	.DB  0x0,0x3,0x0,0x4,0x0,0x5,0x0,0x32
00009d 3200
00009e 3200
00009f 3200
0000a0 3200      	.DB  0x0,0x32,0x0,0x32,0x0,0x32,0x0,0x32
0000a1 3200
0000a2 8c00
0000a3 9200
0000a4 9800      	.DB  0x0,0x32,0x0,0x8C,0x0,0x92,0x0,0x98
0000a5 9e00
0000a6 a400
0000a7 aa00
0000a8 0100      	.DB  0x0,0x9E,0x0,0xA4,0x0,0xAA,0x0,0x1
0000a9 0402
0000aa 1008
0000ab a820
0000ac 5802      	.DB  0x2,0x4,0x8,0x10,0x20,0xA8,0x2,0x58
0000ad 0802
0000ae e002
0000af a401
0000b0 4001      	.DB  0x2,0x8,0x2,0xE0,0x1,0xA4,0x1,0x40
0000b1 4001
0000b2 0001
0000b3 0000
0000b4 5200      	.DB  0x1,0x40,0x1,0x0,0x0,0x0,0x0,0x52
0000b5 a703
0000b6 5702
0000b7 0702
0000b8 df02      	.DB  0x3,0xA7,0x2,0x57,0x2,0x7,0x2,0xDF
0000b9 a301
0000ba 5201
0000bb 0003
0000bc 0000      	.DB  0x1,0xA3,0x1,0x52,0x3,0x0,0x0,0x0
C:\Users\egg_note\Desktop\EggTec_devel\devel_B35K\B35K_Firmware\Cur_Park\Cur_Park_v3_4_5_ABN\List\B25K-V3.asm(1210): warning: .cseg .db misalignment - padding zero byte
0000bd 0000      	.DB  0x0
                 _0x26:
0000be 0100
0000bf 0302
0000c0 0504
0000c1 001d      	.DB  0x0,0x1,0x2,0x3,0x4,0x5,0x1D,0x0
0000c2 0026
0000c3 0033
0000c4 003c
0000c5 0049      	.DB  0x26,0x0,0x33,0x0,0x3C,0x0,0x49,0x0
0000c6 0052
0000c7 005f
0000c8 0068
0000c9 0000      	.DB  0x52,0x0,0x5F,0x0,0x68,0x0,0x0,0x0
0000ca 0100
0000cb 0302
0000cc 0504
0000cd 0706      	.DB  0x0,0x1,0x2,0x3,0x4,0x5,0x6,0x7
0000ce 0008
0000cf 0001
0000d0 0002
0000d1 0003      	.DB  0x8,0x0,0x1,0x0,0x2,0x0,0x3,0x0
0000d2 0004
0000d3 0005
0000d4 0006
0000d5 0007      	.DB  0x4,0x0,0x5,0x0,0x6,0x0,0x7,0x0
0000d6 0008
0000d7 0000
0000d8 0100
0000d9 0200      	.DB  0x8,0x0,0x0,0x0,0x0,0x1,0x0,0x2
0000da 0300
0000db 0400
0000dc 0500
0000dd 3200      	.DB  0x0,0x3,0x0,0x4,0x0,0x5,0x0,0x32
0000de 3200
0000df 3200
0000e0 3200
0000e1 3200      	.DB  0x0,0x32,0x0,0x32,0x0,0x32,0x0,0x32
0000e2 3200
0000e3 1400
0000e4 2100
0000e5 2e00      	.DB  0x0,0x32,0x0,0x14,0x0,0x21,0x0,0x2E
0000e6 3b00
0000e7 4800
0000e8 5500
0000e9 0100      	.DB  0x0,0x3B,0x0,0x48,0x0,0x55,0x0,0x1
0000ea 0402
0000eb 1008
0000ec a820
0000ed 5802      	.DB  0x2,0x4,0x8,0x10,0x20,0xA8,0x2,0x58
0000ee 0802
0000ef e002
0000f0 a401
0000f1 4001      	.DB  0x2,0x8,0x2,0xE0,0x1,0xA4,0x1,0x40
0000f2 4001
0000f3 0001
0000f4 0000
0000f5 5200      	.DB  0x1,0x40,0x1,0x0,0x0,0x0,0x0,0x52
0000f6 a703
0000f7 5702
0000f8 0702
0000f9 df02      	.DB  0x3,0xA7,0x2,0x57,0x2,0x7,0x2,0xDF
0000fa a301
0000fb 5201
0000fc 0003
0000fd 0000      	.DB  0x1,0xA3,0x1,0x52,0x3,0x0,0x0,0x0
C:\Users\egg_note\Desktop\EggTec_devel\devel_B35K\B35K_Firmware\Cur_Park\Cur_Park_v3_4_5_ABN\List\B25K-V3.asm(1228): warning: .cseg .db misalignment - padding zero byte
0000fe 0000      	.DB  0x0
                 _0x39:
0000ff 4000
000100 5010
000101 6020
000102 7030      	.DB  0x0,0x40,0x10,0x50,0x20,0x60,0x30,0x70
                 _0xA4:
C:\Users\egg_note\Desktop\EggTec_devel\devel_B35K\B35K_Firmware\Cur_Park\Cur_Park_v3_4_5_ABN\List\B25K-V3.asm(1232): warning: .cseg .db misalignment - padding zero byte
000103 0001      	.DB  0x1
                 _0xA5:
C:\Users\egg_note\Desktop\EggTec_devel\devel_B35K\B35K_Firmware\Cur_Park\Cur_Park_v3_4_5_ABN\List\B25K-V3.asm(1234): warning: .cseg .db misalignment - padding zero byte
000104 0019      	.DB  0x19
                 _0xA6:
C:\Users\egg_note\Desktop\EggTec_devel\devel_B35K\B35K_Firmware\Cur_Park\Cur_Park_v3_4_5_ABN\List\B25K-V3.asm(1236): warning: .cseg .db misalignment - padding zero byte
000105 0005      	.DB  0x5
                 _0xA7:
C:\Users\egg_note\Desktop\EggTec_devel\devel_B35K\B35K_Firmware\Cur_Park\Cur_Park_v3_4_5_ABN\List\B25K-V3.asm(1238): warning: .cseg .db misalignment - padding zero byte
000106 0003      	.DB  0x3
                 _0xA8:
C:\Users\egg_note\Desktop\EggTec_devel\devel_B35K\B35K_Firmware\Cur_Park\Cur_Park_v3_4_5_ABN\List\B25K-V3.asm(1240): warning: .cseg .db misalignment - padding zero byte
000107 000a      	.DB  0xA
                 _0xA9:
C:\Users\egg_note\Desktop\EggTec_devel\devel_B35K\B35K_Firmware\Cur_Park\Cur_Park_v3_4_5_ABN\List\B25K-V3.asm(1242): warning: .cseg .db misalignment - padding zero byte
000108 0001      	.DB  0x1
                 _0xAA:
C:\Users\egg_note\Desktop\EggTec_devel\devel_B35K\B35K_Firmware\Cur_Park\Cur_Park_v3_4_5_ABN\List\B25K-V3.asm(1244): warning: .cseg .db misalignment - padding zero byte
000109 0009      	.DB  0x9
                 _0xAB:
00010a 8000
00010b c040
00010c a020
00010d e060      	.DB  0x0,0x80,0x40,0xC0,0x20,0xA0,0x60,0xE0
                 _0xF3:
00010e 0000
00010f 0000
000110 0000
000111 0000      	.DB  0x0,0x0,0x0,0x0,0x0,0x0,0x0,0x0
000112 0000
000113 0000
000114 0000
000115 0000      	.DB  0x0,0x0,0x0,0x0,0x0,0x0,0x0,0x0
000116 0000
000117 0000
000118 0000
000119 0000      	.DB  0x0,0x0,0x0,0x0,0x0,0x0,0x0,0x0
00011a 0000
00011b 0000
00011c 0000
00011d 0000      	.DB  0x0,0x0,0x0,0x0,0x0,0x0,0x0,0x0
00011e 0000
00011f 0000
000120 0000
000121 0000      	.DB  0x0,0x0,0x0,0x0,0x0,0x0,0x0,0x0
000122 0000
000123 0000
000124 0000
000125 0000      	.DB  0x0,0x0,0x0,0x0,0x0,0x0,0x0,0x0
000126 0000
000127 0000
000128 0000
000129 0000      	.DB  0x0,0x0,0x0,0x0,0x0,0x0,0x0,0x0
00012a 0000
00012b 0000
00012c 0000
00012d 0000      	.DB  0x0,0x0,0x0,0x0,0x0,0x0,0x0,0x0
00012e 0000
00012f 0000
000130 0000
000131 0000      	.DB  0x0,0x0,0x0,0x0,0x0,0x0,0x0,0x0
000132 0000
000133 0000
000134 0000
000135 0000      	.DB  0x0,0x0,0x0,0x0,0x0,0x0,0x0,0x0
000136 0000
000137 0000
000138 0000
000139 0000      	.DB  0x0,0x0,0x0,0x0,0x0,0x0,0x0,0x0
00013a 0000
00013b 0000
00013c 0000
00013d 0000      	.DB  0x0,0x0,0x0,0x0,0x0,0x0,0x0,0x0
00013e 0000
00013f 0000
000140 0000
000141 0000      	.DB  0x0,0x0,0x0,0x0,0x0,0x0,0x0,0x0
000142 0000
000143 0000
000144 0000
000145 0000      	.DB  0x0,0x0,0x0,0x0,0x0,0x0,0x0,0x0
000146 0000
000147 0000
000148 0000
000149 0000      	.DB  0x0,0x0,0x0,0x0,0x0,0x0,0x0,0x0
00014a 0000
00014b 0000
00014c 0000
00014d 0000      	.DB  0x0,0x0,0x0,0x0,0x0,0x0,0x0,0x0
00014e 0000
00014f 0000
000150 0000
000151 0000      	.DB  0x0,0x0,0x0,0x0,0x0,0x0,0x0,0x0
000152 0000
000153 0000
000154 0000
000155 0000      	.DB  0x0,0x0,0x0,0x0,0x0,0x0,0x0,0x0
000156 0000
000157 0000
000158 0000      	.DB  0x0,0x0,0x0,0x0,0x0,0x0
                 _0x1F9:
000159 0000
00015a 0000
00015b 02bc
00015c 028a      	.DB  0x0,0x0,0x0,0x0,0xBC,0x2,0x8A,0x2
00015d 0244
00015e 01f4
00015f 01c2
000160 0186      	.DB  0x44,0x2,0xF4,0x1,0xC2,0x1,0x86,0x1
000161 0000
000162 0000
000163 0064      	.DB  0x0,0x0,0x0,0x0,0x64,0x0
                 _0x2ED:
000164 0126
000165 0126
000166 0126
000167 0126      	.DB  0x26,0x1,0x26,0x1,0x26,0x1,0x26,0x1
000168 0126
000169 0126      	.DB  0x26,0x1,0x26,0x1
                 
                 __GLOBAL_INI_TBL:
00016a 000a      	.DW  0x0A
00016b 0004      	.DW  0x04
00016c 00de      	.DW  __REG_VARS*2
                 
00016d 0002      	.DW  0x02
00016e 0ee6      	.DW  _MAX_SCAN_REF
00016f 00e8      	.DW  _0x3*2
                 
000170 0002      	.DW  0x02
000171 0f1e      	.DW  _COMM_SET_Position
000172 00ea      	.DW  _0x4*2
                 
000173 0001      	.DW  0x01
000174 1c01      	.DW  _avr_loop_cnt
000175 00ec      	.DW  _0x5*2
                 
000176 0008      	.DW  0x08
000177 1c04      	.DW  _A_TX_DATA
000178 00ee      	.DW  _0x6*2
                 
000179 0001      	.DW  0x01
00017a 1c66      	.DW  _timer_period
00017b 00f8      	.DW  _0x8*2
                 
00017c 0008      	.DW  0x08
00017d 1c76      	.DW  __ADC_CH
00017e 01fe      	.DW  _0x39*2
                 
00017f 0001      	.DW  0x01
000180 1e99      	.DW  _Crack_Dot_Chk_Enable
000181 0206      	.DW  _0xA4*2
                 
000182 0001      	.DW  0x01
000183 1f9c      	.DW  _init_off_correction
000184 0208      	.DW  _0xA5*2
                 
000185 0001      	.DW  0x01
000186 1f9e      	.DW  _deAccelStartCount
000187 020a      	.DW  _0xA6*2
                 
000188 0001      	.DW  0x01
000189 1fa0      	.DW  _accelStartCount
00018a 020c      	.DW  _0xA7*2
                 
00018b 0001      	.DW  0x01
00018c 1fa4      	.DW  _DelayTimeCount
00018d 020e      	.DW  _0xA8*2
                 
00018e 0001      	.DW  0x01
00018f 2042      	.DW  _accel_rdy
000190 0210      	.DW  _0xA9*2
                 
000191 0001      	.DW  0x01
000192 2044      	.DW  _PackerSharedEnable
000193 0212      	.DW  _0xAA*2
                 
000194 0008      	.DW  0x08
000195 2046      	.DW  _Marking_MOUT_SNG
000196 0214      	.DW  _0xAB*2
                 
                 _0xFFFFFFFF:
000197 0000      	.DW  0
                 
                 #define __GLOBAL_INI_TBL_PRESENT 1
                 
                 __RESET:
000198 94f8      	CLI
000199 27ee      	CLR  R30
00019a bbef      	OUT  EECR,R30
                 
                 ;INTERRUPT VECTORS ARE PLACED
                 ;AT THE START OF FLASH
00019b e0f1      	LDI  R31,1
00019c bff5      	OUT  MCUCR,R31
00019d bfe5      	OUT  MCUCR,R30
00019e 93e0 0074 	STS  XMCRA,R30
0001a0 93e0 0075 	STS  XMCRB,R30
                 
                 ;DISABLE WATCHDOG
0001a2 e1f8      	LDI  R31,0x18
0001a3 95a8      	WDR
0001a4 b7a4      	IN   R26,MCUSR
0001a5 7fa7      	CBR  R26,8
0001a6 bfa4      	OUT  MCUSR,R26
0001a7 93f0 0060 	STS  WDTCSR,R31
0001a9 93e0 0060 	STS  WDTCSR,R30
                 
                 ;CLEAR R2-R14
0001ab e08d      	LDI  R24,(14-2)+1
0001ac e0a2      	LDI  R26,2
0001ad 27bb      	CLR  R27
                 __CLEAR_REG:
0001ae 93ed      	ST   X+,R30
0001af 958a      	DEC  R24
0001b0 f7e9      	BRNE __CLEAR_REG
                 
                 ;CLEAR SRAM
0001b1 e080      	LDI  R24,LOW(__CLEAR_SRAM_SIZE)
0001b2 e290      	LDI  R25,HIGH(__CLEAR_SRAM_SIZE)
0001b3 e0a0      	LDI  R26,LOW(__SRAM_START)
0001b4 e0b2      	LDI  R27,HIGH(__SRAM_START)
                 __CLEAR_SRAM:
0001b5 93ed      	ST   X+,R30
0001b6 9701      	SBIW R24,1
0001b7 f7e9      	BRNE __CLEAR_SRAM
                 
                 ;GLOBAL VARIABLES INITIALIZATION
0001b8 ede4      	LDI  R30,LOW(__GLOBAL_INI_TBL*2)
0001b9 e0f2      	LDI  R31,HIGH(__GLOBAL_INI_TBL*2)
                 __GLOBAL_INI_NEXT:
0001ba 9185      	LPM  R24,Z+
0001bb 9195      	LPM  R25,Z+
0001bc 9700      	SBIW R24,0
0001bd f061      	BREQ __GLOBAL_INI_END
0001be 91a5      	LPM  R26,Z+
0001bf 91b5      	LPM  R27,Z+
0001c0 9005      	LPM  R0,Z+
0001c1 9015      	LPM  R1,Z+
0001c2 01bf      	MOVW R22,R30
0001c3 01f0      	MOVW R30,R0
                 __GLOBAL_INI_LOOP:
0001c4 9005      	LPM  R0,Z+
0001c5 920d      	ST   X+,R0
0001c6 9701      	SBIW R24,1
0001c7 f7e1      	BRNE __GLOBAL_INI_LOOP
0001c8 01fb      	MOVW R30,R22
0001c9 cff0      	RJMP __GLOBAL_INI_NEXT
                 __GLOBAL_INI_END:
                 
0001ca bf8b      	OUT  RAMPZ,R24
                 
0001cb bf8c      	OUT  EIND,R24
                 
                 ;GPIOR0 INITIALIZATION
0001cc e0e0      	LDI  R30,__GPIOR0_INIT
0001cd bbee      	OUT  GPIOR0,R30
                 
                 ;HARDWARE STACK POINTER INITIALIZATION
0001ce efef      	LDI  R30,LOW(__SRAM_END-__HEAP_SIZE)
0001cf bfed      	OUT  SPL,R30
0001d0 e2e1      	LDI  R30,HIGH(__SRAM_END-__HEAP_SIZE)
0001d1 bfee      	OUT  SPH,R30
                 
                 ;DATA STACK POINTER INITIALIZATION
0001d2 e0c0      	LDI  R28,LOW(__SRAM_START+__DSTACK_SIZE)
0001d3 e0d6      	LDI  R29,HIGH(__SRAM_START+__DSTACK_SIZE)
                 
0001d4 940c 1ca9 	JMP  _main
                 
                 	.ESEG
                 	.ORG 0
                 
                 	.DSEG
                 	.ORG 0x600
                 
                 	.CSEG
                 ;/**************************************************/
                 ;/* PROJECT NAME : EGG GRADER & PACKING SYSTEM     */
                 ;/* AUTHOR COMPANY : EGGTEC.,CO.LTD                */
                 ;/* MACHINE NAME : B25K-V3                         */
                 ;/* DESCRITE : GRADE SPEED 25,000~30,000           */
                 ;/*            MAX 8 GRADE & PACKER                */
                 ;/* 1st revision : 2013. 06.17 (MJHyun)            */
                 ;/* 2nd revision : 2013. 10.01                     */
                 ;/* 3rd revision : 2013. 10.15                     */
                 ;/* 4th revision : 2014. 01.25                     */
                 ;/*              :       */
                 ;/*                           ,    */
                 ;/*              /     */
                 ;/* 5th revision : 2014. 03.10                     */
                 ;/*              /         */
                 ;/* 6th revision : 2014.10.12                      */
                 ;/*                acd         */
                 ;/*                              */
                 ;/*                          */
                 ;/*                  ,   */
                 ;/*                                    */
                 ;/* 7th revision : 2019.08.13                      */
                 ;/*                 8    */
                 ;/*                                                */
                 ;/*                                                */
                 ;/*                                                */
                 ;/**************************************************/
                 ;
                 ;#include "b25k-v3_4_1.h"
                 	#ifndef __SLEEP_DEFINED__
                 	#define __SLEEP_DEFINED__
                 	.EQU __se_bit=0x01
                 	.EQU __sm_mask=0x0E
                 	.EQU __sm_powerdown=0x04
                 	.EQU __sm_powersave=0x06
                 	.EQU __sm_standby=0x0C
                 	.EQU __sm_ext_standby=0x0E
                 	.EQU __sm_adc_noise_red=0x02
                 	.SET power_ctrl_reg=smcr
                 	#endif
                 
                 	.DSEG
                 
                 	.CSEG
                 ;	infotype -> Y+131
                 ;	icnt -> R17
                 ;	icnt1 -> R16
                 ;	grade_hilimit -> Y+113
                 ;	grade_lolimit -> Y+95
                 ;	sol_outsignal -> Y+89
                 ;	sol_ontime -> Y+77
                 ;	sol_offtime -> Y+65
                 ;	sol_id -> Y+53
                 ;	sol_packer -> Y+35
                 ;	gtype -> Y+26
                 ;	startpocketnumber -> Y+8
                 ;	ldcell_ch -> Y+2
                 _Initailize_PARAMETER:
                 ; .FSTART _Initailize_PARAMETER
0001d6 97ef      	SBIW R28,63
0001d7 97ef      	SBIW R28,63
0001d8 9723      	SBIW R28,3
0001d9 e881      	LDI  R24,129
0001da e0a0      	LDI  R26,LOW(0)
0001db e0b0      	LDI  R27,HIGH(0)
0001dc e7ec      	LDI  R30,LOW(_0x26*2)
0001dd e0f1      	LDI  R31,HIGH(_0x26*2)
0001de 940e 3186 	CALL __INITLOCB
0001e0 931a      	ST   -Y,R17
0001e1 930a      	ST   -Y,R16
                 ;	icnt -> R17
                 ;	icnt1 -> R16
                 ;	grade_hilimit -> Y+113
                 ;	grade_lolimit -> Y+95
                 ;	sol_outsignal -> Y+89
                 ;	sol_ontime -> Y+77
                 ;	sol_offtime -> Y+65
                 ;	sol_id -> Y+53
                 ;	sol_packer -> Y+35
                 ;	gtype -> Y+26
                 ;	startpocketnumber -> Y+8
                 ;	ldcell_ch -> Y+2
0001e2 e010      	LDI  R17,LOW(0)
                 _0x28:
0001e3 3019      	CPI  R17,9
0001e4 f578      	BRSH _0x29
0001e5 e0aa      	LDI  R26,LOW(10)
0001e6 9f1a      	MUL  R17,R26
0001e7 01f0      	MOVW R30,R0
0001e8 55e0      	SUBI R30,LOW(-_GRADE_INFO)
0001e9 4ff5      	SBCI R31,HIGH(-_GRADE_INFO)
0001ea 010f      	MOVW R0,R30
0001eb 2fe1      	MOV  R30,R17
0001ec e0f0      	LDI  R31,0
0001ed 01de      	MOVW R26,R28
0001ee 58af      	SUBI R26,LOW(-(113))
0001ef 4fbf      	SBCI R27,HIGH(-(113))
0001f0 940e 27c1 	CALL SUBOPT_0x0
                +
0001f2 54ee     +SUBI R30 , LOW ( - _GRADE_INFO - ( 2 ) )
0001f3 4ff5     +SBCI R31 , HIGH ( - _GRADE_INFO - ( 2 ) )
                 	__ADDW1MN _GRADE_INFO,2
0001f4 010f      	MOVW R0,R30
0001f5 2fe1      	MOV  R30,R17
0001f6 e0f0      	LDI  R31,0
0001f7 01de      	MOVW R26,R28
0001f8 5aa1      	SUBI R26,LOW(-(95))
0001f9 4fbf      	SBCI R27,HIGH(-(95))
0001fa 940e 27c1 	CALL SUBOPT_0x0
                +
0001fc 54ec     +SUBI R30 , LOW ( - _GRADE_INFO - ( 4 ) )
0001fd 4ff5     +SBCI R31 , HIGH ( - _GRADE_INFO - ( 4 ) )
                 	__ADDW1MN _GRADE_INFO,4
0001fe e0a6      	LDI  R26,LOW(6)
0001ff 83a0      	STD  Z+0,R26
000200 940e 27ce 	CALL SUBOPT_0x1
000202 e0a0      	LDI  R26,LOW(0)
000203 83a0      	STD  Z+0,R26
000204 e0aa      	LDI  R26,LOW(10)
000205 9f1a      	MUL  R17,R26
000206 01f0      	MOVW R30,R0
                +
000207 54ea     +SUBI R30 , LOW ( - _GRADE_INFO - ( 6 ) )
000208 4ff5     +SBCI R31 , HIGH ( - _GRADE_INFO - ( 6 ) )
                 	__ADDW1MN _GRADE_INFO,6
000209 940e 27d4 	CALL SUBOPT_0x2
00020b e0aa      	LDI  R26,LOW(10)
00020c 9f1a      	MUL  R17,R26
00020d 01f0      	MOVW R30,R0
                +
00020e 54e8     +SUBI R30 , LOW ( - _GRADE_INFO - ( 8 ) )
00020f 4ff5     +SBCI R31 , HIGH ( - _GRADE_INFO - ( 8 ) )
                 	__ADDW1MN _GRADE_INFO,8
000210 940e 27d4 	CALL SUBOPT_0x2
000212 5f1f      	SUBI R17,-1
000213 cfcf      	RJMP _0x28
                 _0x29:
000214 e010      	LDI  R17,LOW(0)
                 _0x2B:
000215 3019      	CPI  R17,9
000216 f008      	BRLO PC+2
000217 c04c      	RJMP _0x2C
000218 e000      	LDI  R16,LOW(0)
                 _0x2E:
000219 3006      	CPI  R16,6
00021a f008      	BRLO PC+2
00021b c046      	RJMP _0x2F
00021c e3a0      	LDI  R26,LOW(48)
00021d 9f1a      	MUL  R17,R26
00021e 01f0      	MOVW R30,R0
00021f 5fe6      	SUBI R30,LOW(-_SOL_INFO)
000220 4ff4      	SBCI R31,HIGH(-_SOL_INFO)
000221 940e 27d9 	CALL SUBOPT_0x3
000223 e0e1      	LDI  R30,LOW(1)
000224 93ec      	ST   X,R30
000225 940e 27de 	CALL SUBOPT_0x4
000227 01df      	MOVW R26,R30
000228 2fe0      	MOV  R30,R16
000229 e0f0      	LDI  R31,0
00022a 940e 27e4 	CALL SUBOPT_0x5
00022c 01de      	MOVW R26,R28
00022d 5aa7      	SUBI R26,LOW(-(89))
00022e 4fbf      	SBCI R27,HIGH(-(89))
00022f 940e 27ea 	CALL SUBOPT_0x6
000231 93ec      	ST   X,R30
000232 940e 27ef 	CALL SUBOPT_0x7
000234 940e 27e4 	CALL SUBOPT_0x5
000236 01de      	MOVW R26,R28
000237 5ba3      	SUBI R26,LOW(-(77))
000238 4fbf      	SBCI R27,HIGH(-(77))
000239 940e 27fa 	CALL SUBOPT_0x8
00023b 940e 2807 	CALL SUBOPT_0x9
00023d 940e 27e4 	CALL SUBOPT_0x5
00023f 01de      	MOVW R26,R28
000240 5baf      	SUBI R26,LOW(-(65))
000241 4fbf      	SBCI R27,HIGH(-(65))
000242 940e 27fa 	CALL SUBOPT_0x8
                +
000244 5de2     +SUBI R30 , LOW ( - _SOL_INFO - ( 36 ) )
000245 4ff4     +SBCI R31 , HIGH ( - _SOL_INFO - ( 36 ) )
                 	__ADDW1MN _SOL_INFO,36
000246 01df      	MOVW R26,R30
000247 2fe0      	MOV  R30,R16
000248 940e 280f 	CALL SUBOPT_0xA
00024a 01bf      	MOVW R22,R30
00024b 2fe1      	MOV  R30,R17
00024c e0f0      	LDI  R31,0
00024d 01de      	MOVW R26,R28
00024e 9693      	ADIW R26,35
00024f 940e 2815 	CALL SUBOPT_0xB
000251 900d      	LD   R0,X+
000252 901c      	LD   R1,X
000253 2fe0      	MOV  R30,R16
000254 e0f0      	LDI  R31,0
000255 01de      	MOVW R26,R28
000256 96d5      	ADIW R26,53
000257 940e 2815 	CALL SUBOPT_0xB
000259 940e 313f 	CALL __GETW1P
00025b 29e0      	OR   R30,R0
00025c 29f1      	OR   R31,R1
00025d 01db      	MOVW R26,R22
00025e 93ed      	ST   X+,R30
00025f 93fc      	ST   X,R31
000260 5f0f      	SUBI R16,-1
000261 cfb7      	RJMP _0x2E
                 _0x2F:
000262 5f1f      	SUBI R17,-1
000263 cfb1      	RJMP _0x2B
                 _0x2C:
000264 e010      	LDI  R17,LOW(0)
                 _0x31:
000265 3019      	CPI  R17,9
000266 f530      	BRSH _0x32
000267 940e 281a 	CALL SUBOPT_0xC
000269 0fea      	ADD  R30,R26
00026a 1ffb      	ADC  R31,R27
00026b 010f      	MOVW R0,R30
00026c 2fe1      	MOV  R30,R17
00026d e0f0      	LDI  R31,0
00026e 01de      	MOVW R26,R28
00026f 965a      	ADIW R26,26
000270 940e 27ea 	CALL SUBOPT_0x6
000272 e0f0      	LDI  R31,0
000273 93ed      	ST   X+,R30
000274 93fc      	ST   X,R31
000275 940e 281a 	CALL SUBOPT_0xC
000277 0fae      	ADD  R26,R30
000278 1fbf      	ADC  R27,R31
000279 9612      	ADIW R26,2
00027a e0e6      	LDI  R30,LOW(6)
00027b 93ec      	ST   X,R30
00027c 940e 281a 	CALL SUBOPT_0xC
00027e 0fea      	ADD  R30,R26
00027f 1ffb      	ADC  R31,R27
000280 9633      	ADIW R30,3
000281 010f      	MOVW R0,R30
000282 2fe1      	MOV  R30,R17
000283 e0f0      	LDI  R31,0
000284 01de      	MOVW R26,R28
000285 9618      	ADIW R26,8
000286 0fee      	LSL  R30
000287 1fff      	ROL  R31
000288 940e 27ea 	CALL SUBOPT_0x6
00028a 93ec      	ST   X,R30
00028b 5f1f      	SUBI R17,-1
00028c cfd8      	RJMP _0x31
                 _0x32:
00028d e010      	LDI  R17,LOW(0)
                 _0x34:
00028e 3016      	CPI  R17,6
00028f f4e0      	BRSH _0x35
000290 e0a5      	LDI  R26,LOW(5)
000291 9f1a      	MUL  R17,R26
000292 01f0      	MOVW R30,R0
000293 52e2      	SUBI R30,LOW(-_LDCELL_INFO)
000294 4ff3      	SBCI R31,HIGH(-_LDCELL_INFO)
000295 010f      	MOVW R0,R30
000296 2fe1      	MOV  R30,R17
000297 e0f0      	LDI  R31,0
000298 01de      	MOVW R26,R28
000299 9612      	ADIW R26,2
00029a 940e 27ea 	CALL SUBOPT_0x6
00029c 93ec      	ST   X,R30
00029d 940e 2821 	CALL SUBOPT_0xD
00029f eea8      	LDI  R26,LOW(1000)
0002a0 e0b3      	LDI  R27,HIGH(1000)
0002a1 83a0      	STD  Z+0,R26
0002a2 83b1      	STD  Z+1,R27
0002a3 e0a5      	LDI  R26,LOW(5)
0002a4 9f1a      	MUL  R17,R26
0002a5 01f0      	MOVW R30,R0
                +
0002a6 51ef     +SUBI R30 , LOW ( - _LDCELL_INFO - ( 3 ) )
0002a7 4ff3     +SBCI R31 , HIGH ( - _LDCELL_INFO - ( 3 ) )
                 	__ADDW1MN _LDCELL_INFO,3
0002a8 940e 27d4 	CALL SUBOPT_0x2
0002aa 5f1f      	SUBI R17,-1
0002ab cfe2      	RJMP _0x34
                 _0x35:
0002ac e4e6      	LDI  R30,LOW(70)
0002ad e0f0      	LDI  R31,HIGH(70)
0002ae 940e 2827 	CALL SUBOPT_0xE
0002b0 e0ea      	LDI  R30,LOW(10)
0002b1 e0f0      	LDI  R31,HIGH(10)
0002b2 940e 282c 	CALL SUBOPT_0xF
0002b4 e3ec      	LDI  R30,LOW(60)
0002b5 e0f0      	LDI  R31,HIGH(60)
0002b6 940e 2831 	CALL SUBOPT_0x10
0002b8 e0e0      	LDI  R30,LOW(0)
0002b9 e0f0      	LDI  R31,HIGH(0)
0002ba 940e 2836 	CALL SUBOPT_0x11
0002bc e0e0      	LDI  R30,LOW(0)
0002bd e0f0      	LDI  R31,HIGH(0)
0002be 940e 283b 	CALL SUBOPT_0x12
0002c0 eee1      	LDI  R30,LOW(225)
0002c1 e0f0      	LDI  R31,HIGH(225)
0002c2 940e 2840 	CALL SUBOPT_0x13
0002c4 e010      	LDI  R17,LOW(0)
                 _0x37:
0002c5 3012      	CPI  R17,2
0002c6 f4e8      	BRSH _0x38
0002c7 e0a6      	LDI  R26,LOW(6)
0002c8 9f1a      	MUL  R17,R26
0002c9 01f0      	MOVW R30,R0
0002ca 5fe8      	SUBI R30,LOW(-_PRT_INFO)
0002cb 4ff2      	SBCI R31,HIGH(-_PRT_INFO)
0002cc e1ae      	LDI  R26,LOW(30)
0002cd e0b0      	LDI  R27,HIGH(30)
0002ce 83a0      	STD  Z+0,R26
0002cf 83b1      	STD  Z+1,R27
0002d0 e0a6      	LDI  R26,LOW(6)
0002d1 9f1a      	MUL  R17,R26
0002d2 01f0      	MOVW R30,R0
                +
0002d3 5fe6     +SUBI R30 , LOW ( - _PRT_INFO - ( 2 ) )
0002d4 4ff2     +SBCI R31 , HIGH ( - _PRT_INFO - ( 2 ) )
                 	__ADDW1MN _PRT_INFO,2
0002d5 e2a8      	LDI  R26,LOW(40)
0002d6 e0b0      	LDI  R27,HIGH(40)
0002d7 83a0      	STD  Z+0,R26
0002d8 83b1      	STD  Z+1,R27
0002d9 e0a6      	LDI  R26,LOW(6)
0002da 9f1a      	MUL  R17,R26
0002db 01f0      	MOVW R30,R0
                +
0002dc 5fe4     +SUBI R30 , LOW ( - _PRT_INFO - ( 4 ) )
0002dd 4ff2     +SBCI R31 , HIGH ( - _PRT_INFO - ( 4 ) )
                 	__ADDW1MN _PRT_INFO,4
0002de e0af      	LDI  R26,LOW(15)
0002df e0b0      	LDI  R27,HIGH(15)
0002e0 83a0      	STD  Z+0,R26
0002e1 83b1      	STD  Z+1,R27
0002e2 5f1f      	SUBI R17,-1
0002e3 cfe1      	RJMP _0x37
                 _0x38:
0002e4 e3ec      	LDI  R30,LOW(60)
                +
0002e5 93e0 0d25+STS _SYS_INFO + ( 11 ) , R30
                 	__PUTB1MN _SYS_INFO,11
                +
0002e7 93e0 0d1e+STS _SYS_INFO + ( 4 ) , R30
                 	__PUTB1MN _SYS_INFO,4
0002e9 e4e0      	LDI  R30,LOW(1600)
0002ea e0f6      	LDI  R31,HIGH(1600)
0002eb 940e 2845 	CALL SUBOPT_0x14
0002ed edec      	LDI  R30,LOW(1500)
0002ee e0f5      	LDI  R31,HIGH(1500)
0002ef 940e 284a 	CALL SUBOPT_0x15
0002f1 e2ec      	LDI  R30,LOW(300)
0002f2 e0f1      	LDI  R31,HIGH(300)
0002f3 940e 284f 	CALL SUBOPT_0x16
0002f5 940e 2854 	CALL SUBOPT_0x17
0002f7 e0ea      	LDI  R30,LOW(10)
0002f8 e0f0      	LDI  R31,HIGH(10)
                +
0002f9 93e0 0d23+STS _SYS_INFO + ( 9 ) , R30
0002fb 93f0 0d24+STS _SYS_INFO + ( 9 ) + 1 , R31
                 	__PUTW1MN _SYS_INFO,9
0002fd e1e3      	LDI  R30,LOW(19)
                +
0002fe 93e0 0d26+STS _SYS_INFO + ( 12 ) , R30
                 	__PUTB1MN _SYS_INFO,12
000300 8119      	LDD  R17,Y+1
000301 8108      	LDD  R16,Y+0
000302 96ef      	ADIW R28,63
000303 96ef      	ADIW R28,63
000304 9625      	ADIW R28,5
000305 9508      	RET
                 ; .FEND
                 _Initialize_GPIO:
                 ; .FSTART _Initialize_GPIO
000306 efef      	LDI  R30,LOW(255)
000307 b9e1      	OUT  0x1,R30
000308 b9e2      	OUT  0x2,R30
000309 eae7      	LDI  R30,LOW(167)
00030a b9e4      	OUT  0x4,R30
00030b b9e5      	OUT  0x5,R30
00030c efef      	LDI  R30,LOW(255)
00030d b9e7      	OUT  0x7,R30
00030e e7ef      	LDI  R30,LOW(127)
00030f b9e8      	OUT  0x8,R30
000310 e0e8      	LDI  R30,LOW(8)
000311 b9ea      	OUT  0xA,R30
000312 efef      	LDI  R30,LOW(255)
000313 b9eb      	OUT  0xB,R30
000314 e0e6      	LDI  R30,LOW(6)
000315 b9ed      	OUT  0xD,R30
000316 efef      	LDI  R30,LOW(255)
000317 b9ee      	OUT  0xE,R30
000318 bbe0      	OUT  0x10,R30
000319 bbe1      	OUT  0x11,R30
00031a e0e1      	LDI  R30,LOW(1)
00031b bbe3      	OUT  0x13,R30
00031c bbe4      	OUT  0x14,R30
00031d 9508      	RET
                 ; .FEND
                 _Initialize_REG:
                 ; .FSTART _Initialize_REG
00031e e0e0      	LDI  R30,LOW(0)
00031f bde4      	OUT  0x24,R30
000320 e0e5      	LDI  R30,LOW(5)
000321 bde5      	OUT  0x25,R30
000322 efe1      	LDI  R30,LOW(241)
000323 bde6      	OUT  0x26,R30
000324 e0e0      	LDI  R30,LOW(0)
000325 bde7      	OUT  0x27,R30
000326 bde8      	OUT  0x28,R30
000327 93e0 0080 	STS  128,R30
000329 940e 285b 	CALL SUBOPT_0x18
00032b 940e 285f 	CALL SUBOPT_0x19
00032d e0e0      	LDI  R30,LOW(0)
00032e 93e0 0087 	STS  135,R30
000330 93e0 0086 	STS  134,R30
000332 e0e6      	LDI  R30,LOW(6)
000333 93e0 0089 	STS  137,R30
000335 e1ea      	LDI  R30,LOW(26)
000336 93e0 0088 	STS  136,R30
000338 e0e0      	LDI  R30,LOW(0)
000339 93e0 008b 	STS  139,R30
00033b 93e0 008a 	STS  138,R30
00033d 93e0 008d 	STS  141,R30
00033f 93e0 008c 	STS  140,R30
000341 e0e2      	LDI  R30,LOW(2)
000342 93e0 006f 	STS  111,R30
000344 e0e5      	LDI  R30,LOW(5)
000345 93e0 0069 	STS  105,R30
000347 efe4      	LDI  R30,LOW(244)
000348 93e0 006a 	STS  106,R30
00034a eee3      	LDI  R30,LOW(227)
00034b bbed      	OUT  0x1D,R30
00034c bbec      	OUT  0x1C,R30
00034d e0e0      	LDI  R30,LOW(0)
00034e 93e0 00c8 	STS  200,R30
000350 ede8      	LDI  R30,LOW(216)
000351 93e0 00c9 	STS  201,R30
000353 e0e6      	LDI  R30,LOW(6)
000354 93e0 00ca 	STS  202,R30
000356 e0e0      	LDI  R30,LOW(0)
000357 93e0 00cd 	STS  205,R30
000359 e1e0      	LDI  R30,LOW(16)
00035a 93e0 00cc 	STS  204,R30
00035c e0e0      	LDI  R30,LOW(0)
00035d bfe5      	OUT  0x35,R30
00035e e8e0      	LDI  R30,LOW(128)
00035f 93e0 0074 	STS  116,R30
000361 e0e0      	LDI  R30,LOW(0)
000362 93e0 0075 	STS  117,R30
000364 9508      	RET
                 ; .FEND
                 ;#include "ADS8344E-ADC.h"
                 
                 	.DSEG
                 
                 	.CSEG
                 _RD_ADC:
                 ; .FSTART _RD_ADC
000365 93aa      	ST   -Y,R26
000366 940e 3178 	CALL __SAVELOCR6
                 ;	ch -> Y+6
                 ;	config -> R17
                 ;	clk -> R16
                 ;	config_bit -> R19
                 ;	tmp -> R20,R21
000368 e010      	LDI  R17,0
                +
000369 e040     +LDI R20 , LOW ( 0 )
00036a e050     +LDI R21 , HIGH ( 0 )
                 	__GETWRN 20,21,0
00036b e810      	LDI  R17,LOW(128)
00036c 81ee      	LDD  R30,Y+6
00036d e0f0      	LDI  R31,0
00036e 58ea      	SUBI R30,LOW(-__ADC_CH)
00036f 4ef3      	SBCI R31,HIGH(-__ADC_CH)
000370 81e0      	LD   R30,Z
000371 2b1e      	OR   R17,R30
000372 6014      	ORI  R17,LOW(4)
000373 6013      	ORI  R17,LOW(3)
000374 9828      	CBI  0x5,0
000375 e000      	LDI  R16,LOW(0)
                 _0x3D:
000376 3008      	CPI  R16,8
000377 f478      	BRSH _0x3E
000378 982f      	CBI  0x5,7
000379 2fe1      	MOV  R30,R17
00037a 78e0      	ANDI R30,LOW(0x80)
00037b 2f3e      	MOV  R19,R30
00037c 3030      	CPI  R19,0
00037d f411      	BRNE _0x41
00037e 982d      	CBI  0x5,5
00037f c001      	RJMP _0x44
                 _0x41:
000380 9a2d      	SBI  0x5,5
                 _0x44:
000381 0f11      	LSL  R17
000382 9a2f      	SBI  0x5,7
000383 0000      	nop
000384 0000      	nop
000385 5f0f      	SUBI R16,-1
000386 cfef      	RJMP _0x3D
                 _0x3E:
000387 982f      	CBI  0x5,7
000388 0000      	nop
000389 9a2f      	SBI  0x5,7
00038a 0000      	nop
00038b e000      	LDI  R16,LOW(0)
                 _0x4E:
00038c 3100      	CPI  R16,16
00038d f460      	BRSH _0x4F
00038e 982f      	CBI  0x5,7
00038f 0f44      	LSL  R20
000390 1f55      	ROL  R21
000391 e0e0      	LDI  R30,0
000392 991c      	SBIC 0x3,4
000393 e0e1      	LDI  R30,1
000394 e0f0      	LDI  R31,0
                +
000395 2b4e     +OR R20 , R30
000396 2b5f     +OR R21 , R31
                 	__ORWRR 20,21,30,31
000397 9a2f      	SBI  0x5,7
000398 5f0f      	SUBI R16,-1
000399 cff2      	RJMP _0x4E
                 _0x4F:
00039a 9a28      	SBI  0x5,0
00039b 01fa      	MOVW R30,R20
00039c 940e 317f 	CALL __LOADLOCR6
00039e c0c7      	RJMP _0x2060004
                 ; .FEND
                 ;#include "AT45DB_FLASH.h"
                 _SPI_Init:
                 ; .FSTART _SPI_Init
00039f e0e8      	LDI  R30,LOW(8)
0003a0 b9e5      	OUT  0x5,R30
0003a1 e5e0      	LDI  R30,LOW(80)
0003a2 bdec      	OUT  0x2C,R30
0003a3 b5ed      	IN   R30,0x2D
0003a4 60e1      	ORI  R30,1
0003a5 bded      	OUT  0x2D,R30
0003a6 9508      	RET
                 ; .FEND
                 _SendSPIByte:
                 ; .FSTART _SendSPIByte
0003a7 93aa      	ST   -Y,R26
                 ;	byte -> Y+0
0003a8 81e8      	LD   R30,Y
0003a9 bdee      	OUT  0x2E,R30
                 _0x56:
0003aa b5ed      	IN   R30,0x2D
0003ab 78e0      	ANDI R30,LOW(0x80)
0003ac f3e9      	BREQ _0x56
0003ad b5ee      	IN   R30,0x2E
0003ae 83e8      	ST   Y,R30
0003af 9621      	ADIW R28,1
0003b0 9508      	RET
                 ; .FEND
                 _GetSPIByte:
                 ; .FSTART _GetSPIByte
0003b1 e0e0      	LDI  R30,LOW(0)
0003b2 bdee      	OUT  0x2E,R30
                 _0x59:
0003b3 b5ed      	IN   R30,0x2D
0003b4 78e0      	ANDI R30,LOW(0x80)
0003b5 f3e9      	BREQ _0x59
0003b6 b5ee      	IN   R30,0x2E
0003b7 9508      	RET
                 ; .FEND
                 _GetDeviceID:
                 ; .FSTART _GetDeviceID
0003b8 9726      	SBIW R28,6
0003b9 931a      	ST   -Y,R17
                 ;	dev_id -> Y+1
                 ;	lcnt -> R17
0003ba 9872      	CBI  0xE,2
0003bb e9af      	LDI  R26,LOW(159)
0003bc dfea      	RCALL _SendSPIByte
0003bd e010      	LDI  R17,LOW(0)
                 _0x5F:
0003be 3016      	CPI  R17,6
0003bf f470      	BRSH _0x60
0003c0 2fe1      	MOV  R30,R17
0003c1 e0f0      	LDI  R31,0
0003c2 01de      	MOVW R26,R28
0003c3 9611      	ADIW R26,1
0003c4 0fea      	ADD  R30,R26
0003c5 1ffb      	ADC  R31,R27
0003c6 93ff      	PUSH R31
0003c7 93ef      	PUSH R30
0003c8 dfe8      	RCALL _GetSPIByte
0003c9 91af      	POP  R26
0003ca 91bf      	POP  R27
0003cb 93ec      	ST   X,R30
0003cc 5f1f      	SUBI R17,-1
0003cd cff0      	RJMP _0x5F
                 _0x60:
0003ce 9a72      	SBI  0xE,2
0003cf 81a9      	LDD  R26,Y+1
0003d0 31af      	CPI  R26,LOW(0x1F)
0003d1 f419      	BRNE _0x64
0003d2 81aa      	LDD  R26,Y+2
0003d3 32a6      	CPI  R26,LOW(0x26)
0003d4 f009      	BREQ _0x65
                 _0x64:
0003d5 c003      	RJMP _0x63
                 _0x65:
0003d6 e0e1      	LDI  R30,LOW(1)
0003d7 8118      	LDD  R17,Y+0
0003d8 c08d      	RJMP _0x2060004
                 _0x63:
0003d9 e0e0      	LDI  R30,LOW(0)
0003da 8118      	LDD  R17,Y+0
0003db c08a      	RJMP _0x2060004
                 ; .FEND
                 _Check_Flash_Busy:
                 ; .FSTART _Check_Flash_Busy
0003dc 931a      	ST   -Y,R17
                 ;	busy_flag -> R17
0003dd 9872      	CBI  0xE,2
0003de eda7      	LDI  R26,LOW(215)
0003df dfc7      	RCALL _SendSPIByte
0003e0 efaf      	LDI  R26,LOW(255)
0003e1 dfc5      	RCALL _SendSPIByte
0003e2 b51e      	IN   R17,46
0003e3 9a72      	SBI  0xE,2
0003e4 ff17      	SBRS R17,7
0003e5 c002      	RJMP _0x6B
0003e6 e010      	LDI  R17,LOW(0)
0003e7 c001      	RJMP _0x6C
                 _0x6B:
0003e8 e011      	LDI  R17,LOW(1)
                 _0x6C:
0003e9 2fe1      	MOV  R30,R17
0003ea 9119      	LD   R17,Y+
0003eb 9508      	RET
                 ; .FEND
                 _SetPageBuffer1:
                 ; .FSTART _SetPageBuffer1
0003ec 93ba      	ST   -Y,R27
0003ed 93aa      	ST   -Y,R26
0003ee 9724      	SBIW R28,4
                 ;	pagenum -> Y+4
                 ;	tmp -> Y+0
0003ef 81ec      	LDD  R30,Y+4
0003f0 81fd      	LDD  R31,Y+4+1
0003f1 940e 305f 	CALL __LSLW2
0003f3 83ec      	STD  Y+4,R30
0003f4 83fd      	STD  Y+4+1,R31
0003f5 81ed      	LDD  R30,Y+5
0003f6 83e8      	ST   Y,R30
0003f7 73ef      	ANDI R30,LOW(0x3F)
0003f8 83e8      	ST   Y,R30
0003f9 81ec      	LDD  R30,Y+4
0003fa 7fec      	ANDI R30,LOW(0xFC)
0003fb 83e9      	STD  Y+1,R30
0003fc e0e0      	LDI  R30,LOW(0)
0003fd 83ea      	STD  Y+2,R30
0003fe 9872      	CBI  0xE,2
0003ff e8a3      	LDI  R26,LOW(131)
000400 dfa6      	RCALL _SendSPIByte
000401 81a8      	LD   R26,Y
000402 dfa4      	RCALL _SendSPIByte
000403 81a9      	LDD  R26,Y+1
000404 dfa2      	RCALL _SendSPIByte
000405 81aa      	LDD  R26,Y+2
000406 dfa0      	RCALL _SendSPIByte
000407 9a72      	SBI  0xE,2
000408 9626      	ADIW R28,6
000409 9508      	RET
                 ; .FEND
                 _PageRead:
                 ; .FSTART _PageRead
00040a 93ba      	ST   -Y,R27
00040b 93aa      	ST   -Y,R26
00040c 9724      	SBIW R28,4
00040d 931a      	ST   -Y,R17
00040e 930a      	ST   -Y,R16
                 ;	pagenum -> Y+6
                 ;	tmp -> Y+2
                 ;	i -> R16,R17
00040f 81ee      	LDD  R30,Y+6
000410 81ff      	LDD  R31,Y+6+1
000411 940e 305f 	CALL __LSLW2
000413 83ee      	STD  Y+6,R30
000414 83ff      	STD  Y+6+1,R31
000415 81ef      	LDD  R30,Y+7
000416 83ea      	STD  Y+2,R30
000417 73ef      	ANDI R30,LOW(0x3F)
000418 83ea      	STD  Y+2,R30
000419 81ee      	LDD  R30,Y+6
00041a 7fec      	ANDI R30,LOW(0xFC)
00041b 83eb      	STD  Y+3,R30
00041c e0e0      	LDI  R30,LOW(0)
00041d 83ec      	STD  Y+4,R30
00041e 9872      	CBI  0xE,2
00041f eda2      	LDI  R26,LOW(210)
000420 df86      	RCALL _SendSPIByte
000421 81aa      	LDD  R26,Y+2
000422 df84      	RCALL _SendSPIByte
000423 81ab      	LDD  R26,Y+3
000424 df82      	RCALL _SendSPIByte
000425 81ac      	LDD  R26,Y+4
000426 940e 2865 	CALL SUBOPT_0x1A
000428 e0a0      	LDI  R26,LOW(0)
000429 df7d      	RCALL _SendSPIByte
00042a e0a0      	LDI  R26,LOW(0)
00042b 940e 2865 	CALL SUBOPT_0x1A
                +
00042d e000     +LDI R16 , LOW ( 0 )
00042e e010     +LDI R17 , HIGH ( 0 )
                 	__GETWRN 16,17,0
                 _0x74:
                +
00042f 3100     +CPI R16 , LOW ( 528 )
000430 e0e2     +LDI R30 , HIGH ( 528 )
000431 071e     +CPC R17 , R30
                 	__CPWRN 16,17,528
000432 f460      	BRSH _0x75
000433 01f8      	MOVW R30,R16
000434 58e2      	SUBI R30,LOW(-_Data_Buff)
000435 4ef3      	SBCI R31,HIGH(-_Data_Buff)
000436 93ff      	PUSH R31
000437 93ef      	PUSH R30
000438 df78      	RCALL _GetSPIByte
000439 91af      	POP  R26
00043a 91bf      	POP  R27
00043b 93ec      	ST   X,R30
                +
00043c 5f0f     +SUBI R16 , LOW ( - 1 )
00043d 4f1f     +SBCI R17 , HIGH ( - 1 )
                 	__ADDWRN 16,17,1
00043e cff0      	RJMP _0x74
                 _0x75:
00043f 9a72      	SBI  0xE,2
000440 8119      	LDD  R17,Y+1
000441 8108      	LDD  R16,Y+0
000442 9628      	ADIW R28,8
000443 9508      	RET
                 ; .FEND
                 _Write_Buff:
                 ; .FSTART _Write_Buff
000444 93ba      	ST   -Y,R27
000445 93aa      	ST   -Y,R26
000446 931a      	ST   -Y,R17
000447 930a      	ST   -Y,R16
                 ;	Write_com -> Y+6
                 ;	buffer_offset -> Y+4
                 ;	byte_count -> Y+2
                 ;	i -> R16,R17
000448 9872      	CBI  0xE,2
000449 e8e4      	LDI  R30,LOW(132)
00044a 83ee      	STD  Y+6,R30
00044b 81ae      	LDD  R26,Y+6
00044c 940e 2865 	CALL SUBOPT_0x1A
00044e 81ad      	LDD  R26,Y+5
00044f df57      	RCALL _SendSPIByte
000450 81ec      	LDD  R30,Y+4
000451 2fae      	MOV  R26,R30
000452 df54      	RCALL _SendSPIByte
                +
000453 810c     +LDD R16 , Y + 4
000454 811d     +LDD R17 , Y + 4 + 1
                 	__GETWRS 16,17,4
                 _0x7F:
000455 81ea      	LDD  R30,Y+2
000456 81fb      	LDD  R31,Y+2+1
000457 170e      	CP   R16,R30
000458 071f      	CPC  R17,R31
000459 f448      	BRSH _0x80
00045a e7ae      	LDI  R26,LOW(_Data_Buff)
00045b e1bc      	LDI  R27,HIGH(_Data_Buff)
00045c 0fa0      	ADD  R26,R16
00045d 1fb1      	ADC  R27,R17
00045e 91ac      	LD   R26,X
00045f df47      	RCALL _SendSPIByte
                +
000460 5f0f     +SUBI R16 , LOW ( - 1 )
000461 4f1f     +SBCI R17 , HIGH ( - 1 )
                 	__ADDWRN 16,17,1
000462 cff2      	RJMP _0x7F
                 _0x80:
000463 9a72      	SBI  0xE,2
000464 8119      	LDD  R17,Y+1
000465 8108      	LDD  R16,Y+0
                 _0x2060004:
000466 9627      	ADIW R28,7
000467 9508      	RET
                 ; .FEND
                 _GET_USR_INFO_DATA:
                 ; .FSTART _GET_USR_INFO_DATA
000468 93ba      	ST   -Y,R27
000469 93aa      	ST   -Y,R26
                 ;	usrcnt -> Y+0
00046a 81a8      	LD   R26,Y
00046b 81b9      	LDD  R27,Y+1
00046c df9d      	RCALL _PageRead
                 _0x83:
00046d df6e      	RCALL _Check_Flash_Busy
00046e 30e0      	CPI  R30,0
00046f f7e9      	BRNE _0x83
000470 e0a5      	LDI  R26,LOW(5)
000471 e0b0      	LDI  R27,0
000472 940e 3021 	CALL _delay_ms
000474 81e8      	LD   R30,Y
000475 81f9      	LDD  R31,Y+1
000476 30eb      	CPI  R30,LOW(0xB)
000477 e0a0      	LDI  R26,HIGH(0xB)
000478 07fa      	CPC  R31,R26
000479 f431      	BRNE _0x89
00047a ebe0      	LDI  R30,LOW(_GRADE_INFO)
00047b e0fa      	LDI  R31,HIGH(_GRADE_INFO)
00047c 940e 286a 	CALL SUBOPT_0x1B
00047e e5aa      	LDI  R26,LOW(90)
00047f c050      	RJMP _0x4B8
                 _0x89:
000480 30ec      	CPI  R30,LOW(0xC)
000481 e0a0      	LDI  R26,HIGH(0xC)
000482 07fa      	CPC  R31,R26
000483 f439      	BRNE _0x8A
000484 e0ea      	LDI  R30,LOW(_SOL_INFO)
000485 e0fb      	LDI  R31,HIGH(_SOL_INFO)
000486 940e 286a 	CALL SUBOPT_0x1B
000488 eba0      	LDI  R26,LOW(432)
000489 e0b1      	LDI  R27,HIGH(432)
00048a c046      	RJMP _0x4B9
                 _0x8A:
00048b 30ed      	CPI  R30,LOW(0xD)
00048c e0a0      	LDI  R26,HIGH(0xD)
00048d 07fa      	CPC  R31,R26
00048e f431      	BRNE _0x8B
00048f ebea      	LDI  R30,LOW(_PACKER_INFO)
000490 e0fc      	LDI  R31,HIGH(_PACKER_INFO)
000491 940e 286a 	CALL SUBOPT_0x1B
000493 e2a4      	LDI  R26,LOW(36)
000494 c03b      	RJMP _0x4B8
                 _0x8B:
000495 30ee      	CPI  R30,LOW(0xE)
000496 e0a0      	LDI  R26,HIGH(0xE)
000497 07fa      	CPC  R31,R26
000498 f431      	BRNE _0x8C
000499 edee      	LDI  R30,LOW(_LDCELL_INFO)
00049a e0fc      	LDI  R31,HIGH(_LDCELL_INFO)
00049b 940e 286a 	CALL SUBOPT_0x1B
00049d e1ae      	LDI  R26,LOW(30)
00049e c031      	RJMP _0x4B8
                 _0x8C:
00049f 30ef      	CPI  R30,LOW(0xF)
0004a0 e0a0      	LDI  R26,HIGH(0xF)
0004a1 07fa      	CPC  R31,R26
0004a2 f431      	BRNE _0x8D
0004a3 efec      	LDI  R30,LOW(_MEASURE_INFO)
0004a4 e0fc      	LDI  R31,HIGH(_MEASURE_INFO)
0004a5 940e 286a 	CALL SUBOPT_0x1B
0004a7 e0ac      	LDI  R26,LOW(12)
0004a8 c027      	RJMP _0x4B8
                 _0x8D:
0004a9 31e0      	CPI  R30,LOW(0x10)
0004aa e0a0      	LDI  R26,HIGH(0x10)
0004ab 07fa      	CPC  R31,R26
0004ac f431      	BRNE _0x8E
0004ad e0e8      	LDI  R30,LOW(_PRT_INFO)
0004ae e0fd      	LDI  R31,HIGH(_PRT_INFO)
0004af 940e 286a 	CALL SUBOPT_0x1B
0004b1 e1a2      	LDI  R26,LOW(18)
0004b2 c01d      	RJMP _0x4B8
                 _0x8E:
0004b3 31e1      	CPI  R30,LOW(0x11)
0004b4 e0a0      	LDI  R26,HIGH(0x11)
0004b5 07fa      	CPC  R31,R26
0004b6 f431      	BRNE _0x8F
0004b7 e1ea      	LDI  R30,LOW(_SYS_INFO)
0004b8 e0fd      	LDI  R31,HIGH(_SYS_INFO)
0004b9 940e 286a 	CALL SUBOPT_0x1B
0004bb e1a2      	LDI  R26,LOW(18)
0004bc c013      	RJMP _0x4B8
                 _0x8F:
0004bd 31e2      	CPI  R30,LOW(0x12)
0004be e0a0      	LDI  R26,HIGH(0x12)
0004bf 07fa      	CPC  R31,R26
0004c0 f431      	BRNE _0x90
0004c1 e6eb      	LDI  R30,LOW(_Marking_Version)
0004c2 e1fc      	LDI  R31,HIGH(_Marking_Version)
0004c3 940e 286a 	CALL SUBOPT_0x1B
0004c5 e0a1      	LDI  R26,LOW(1)
0004c6 c009      	RJMP _0x4B8
                 _0x90:
0004c7 31e3      	CPI  R30,LOW(0x13)
0004c8 e0a0      	LDI  R26,HIGH(0x13)
0004c9 07fa      	CPC  R31,R26
0004ca f441      	BRNE _0x88
0004cb e2ec      	LDI  R30,LOW(_ABN_INFO)
0004cc e0fd      	LDI  R31,HIGH(_ABN_INFO)
0004cd 940e 286a 	CALL SUBOPT_0x1B
0004cf e0a2      	LDI  R26,LOW(2)
                 _0x4B8:
0004d0 e0b0      	LDI  R27,0
                 _0x4B9:
0004d1 940e 27af 	CALL _memcpy
                 _0x88:
0004d3 c088      	RJMP _0x2060003
                 ; .FEND
                 _PUT_USR_INFO_DATA:
                 ; .FSTART _PUT_USR_INFO_DATA
0004d4 93ba      	ST   -Y,R27
0004d5 93aa      	ST   -Y,R26
                 ;	usrcnt -> Y+0
0004d6 81e8      	LD   R30,Y
0004d7 81f9      	LDD  R31,Y+1
0004d8 30eb      	CPI  R30,LOW(0xB)
0004d9 e0a0      	LDI  R26,HIGH(0xB)
0004da 07fa      	CPC  R31,R26
0004db f441      	BRNE _0x95
0004dc 940e 2871 	CALL SUBOPT_0x1C
0004de ebe0      	LDI  R30,LOW(_GRADE_INFO)
0004df e0fa      	LDI  R31,HIGH(_GRADE_INFO)
0004e0 93fa      	ST   -Y,R31
0004e1 93ea      	ST   -Y,R30
0004e2 e5aa      	LDI  R26,LOW(90)
0004e3 c060      	RJMP _0x4BA
                 _0x95:
0004e4 30ec      	CPI  R30,LOW(0xC)
0004e5 e0a0      	LDI  R26,HIGH(0xC)
0004e6 07fa      	CPC  R31,R26
0004e7 f449      	BRNE _0x96
0004e8 940e 2871 	CALL SUBOPT_0x1C
0004ea e0ea      	LDI  R30,LOW(_SOL_INFO)
0004eb e0fb      	LDI  R31,HIGH(_SOL_INFO)
0004ec 93fa      	ST   -Y,R31
0004ed 93ea      	ST   -Y,R30
0004ee eba0      	LDI  R26,LOW(432)
0004ef e0b1      	LDI  R27,HIGH(432)
0004f0 c054      	RJMP _0x4BB
                 _0x96:
0004f1 30ed      	CPI  R30,LOW(0xD)
0004f2 e0a0      	LDI  R26,HIGH(0xD)
0004f3 07fa      	CPC  R31,R26
0004f4 f441      	BRNE _0x97
0004f5 940e 2871 	CALL SUBOPT_0x1C
0004f7 ebea      	LDI  R30,LOW(_PACKER_INFO)
0004f8 e0fc      	LDI  R31,HIGH(_PACKER_INFO)
0004f9 93fa      	ST   -Y,R31
0004fa 93ea      	ST   -Y,R30
0004fb e2a4      	LDI  R26,LOW(36)
0004fc c047      	RJMP _0x4BA
                 _0x97:
0004fd 30ee      	CPI  R30,LOW(0xE)
0004fe e0a0      	LDI  R26,HIGH(0xE)
0004ff 07fa      	CPC  R31,R26
000500 f441      	BRNE _0x98
000501 940e 2871 	CALL SUBOPT_0x1C
000503 edee      	LDI  R30,LOW(_LDCELL_INFO)
000504 e0fc      	LDI  R31,HIGH(_LDCELL_INFO)
000505 93fa      	ST   -Y,R31
000506 93ea      	ST   -Y,R30
000507 e1ae      	LDI  R26,LOW(30)
000508 c03b      	RJMP _0x4BA
                 _0x98:
000509 30ef      	CPI  R30,LOW(0xF)
00050a e0a0      	LDI  R26,HIGH(0xF)
00050b 07fa      	CPC  R31,R26
00050c f441      	BRNE _0x99
00050d 940e 2871 	CALL SUBOPT_0x1C
00050f efec      	LDI  R30,LOW(_MEASURE_INFO)
000510 e0fc      	LDI  R31,HIGH(_MEASURE_INFO)
000511 93fa      	ST   -Y,R31
000512 93ea      	ST   -Y,R30
000513 e0ac      	LDI  R26,LOW(12)
000514 c02f      	RJMP _0x4BA
                 _0x99:
000515 31e0      	CPI  R30,LOW(0x10)
000516 e0a0      	LDI  R26,HIGH(0x10)
000517 07fa      	CPC  R31,R26
000518 f441      	BRNE _0x9A
000519 940e 2871 	CALL SUBOPT_0x1C
00051b e0e8      	LDI  R30,LOW(_PRT_INFO)
00051c e0fd      	LDI  R31,HIGH(_PRT_INFO)
00051d 93fa      	ST   -Y,R31
00051e 93ea      	ST   -Y,R30
00051f e1a2      	LDI  R26,LOW(18)
000520 c023      	RJMP _0x4BA
                 _0x9A:
000521 31e1      	CPI  R30,LOW(0x11)
000522 e0a0      	LDI  R26,HIGH(0x11)
000523 07fa      	CPC  R31,R26
000524 f441      	BRNE _0x9B
000525 940e 2871 	CALL SUBOPT_0x1C
000527 e1ea      	LDI  R30,LOW(_SYS_INFO)
000528 e0fd      	LDI  R31,HIGH(_SYS_INFO)
000529 93fa      	ST   -Y,R31
00052a 93ea      	ST   -Y,R30
00052b e1a2      	LDI  R26,LOW(18)
00052c c017      	RJMP _0x4BA
                 _0x9B:
00052d 31e2      	CPI  R30,LOW(0x12)
00052e e0a0      	LDI  R26,HIGH(0x12)
00052f 07fa      	CPC  R31,R26
000530 f441      	BRNE _0x9C
000531 940e 2871 	CALL SUBOPT_0x1C
000533 e6eb      	LDI  R30,LOW(_Marking_Version)
000534 e1fc      	LDI  R31,HIGH(_Marking_Version)
000535 93fa      	ST   -Y,R31
000536 93ea      	ST   -Y,R30
000537 e0a1      	LDI  R26,LOW(1)
000538 c00b      	RJMP _0x4BA
                 _0x9C:
000539 31e3      	CPI  R30,LOW(0x13)
00053a e0a0      	LDI  R26,HIGH(0x13)
00053b 07fa      	CPC  R31,R26
00053c f451      	BRNE _0x94
00053d 940e 2871 	CALL SUBOPT_0x1C
00053f e2ec      	LDI  R30,LOW(_ABN_INFO)
000540 e0fd      	LDI  R31,HIGH(_ABN_INFO)
000541 93fa      	ST   -Y,R31
000542 93ea      	ST   -Y,R30
000543 e0a2      	LDI  R26,LOW(2)
                 _0x4BA:
000544 e0b0      	LDI  R27,0
                 _0x4BB:
000545 940e 27af 	CALL _memcpy
                 _0x94:
000547 e8e4      	LDI  R30,LOW(132)
000548 93ea      	ST   -Y,R30
000549 e0e0      	LDI  R30,LOW(0)
00054a e0f0      	LDI  R31,HIGH(0)
00054b 93fa      	ST   -Y,R31
00054c 93ea      	ST   -Y,R30
00054d e1a0      	LDI  R26,LOW(528)
00054e e0b2      	LDI  R27,HIGH(528)
00054f def4      	RCALL _Write_Buff
                 _0x9E:
000550 de8b      	RCALL _Check_Flash_Busy
000551 30e0      	CPI  R30,0
000552 f7e9      	BRNE _0x9E
000553 81a8      	LD   R26,Y
000554 81b9      	LDD  R27,Y+1
000555 de96      	RCALL _SetPageBuffer1
                 _0xA1:
000556 de85      	RCALL _Check_Flash_Busy
000557 30e0      	CPI  R30,0
000558 f7e9      	BRNE _0xA1
000559 0000      	nop
00055a 0000      	nop
00055b 0000      	nop
                 _0x2060003:
00055c 9622      	ADIW R28,2
00055d 9508      	RET
                 ; .FEND
                 ;
                 ;#define     AccelStartPos       5
                 ;
                 ;#define     Mark_M0             0x00
                 ;#define     Mark_M1             0x80
                 ;#define     Mark_M2             0x40
                 ;#define     Mark_M3             0xC0
                 ;#define     Mark_M4             0x20
                 ;#define     Mark_M5             0xA0
                 ;#define     Mark_M6             0x60
                 ;#define     Mark_M7             0xE0
                 ;
                 ;void SolenoidRunning(void);
                 ;void ConvertWeight(unsigned char);
                 ;void CorrectionData(unsigned char);
                 ;void SaveParameter(void);
                 ;void WeightGrading(unsigned char);
                 ;void ABN_CHECK(unsigned char);
                 ;
                 ;unsigned char A_TX_DATA[8], old_prttype[9];
                 ;unsigned char led_toggle, StopCMD, MACHINE_STATE=0, Crack_Dot_Chk_Enable=1, weight_ad_cnt, zero_ad_cnt;
                 
                 	.DSEG
                 ;unsigned int old_Zero[6];
                 ;unsigned int correct_data_end_pulse, voltData[6][20], off_Correction_Count=0, init_off_correction=25;
                 ;unsigned int deAccelStartCount=5, accelStartCount=3, DeAccelDelay=0, DelayTimeCount=10;
                 ;unsigned char timerstop = 0, deaccel_chk=0, accel_chk=0, SpeedAdjEnable=0, debugMode=0;
                 ;unsigned char slidemotor_state;
                 ;unsigned char ACD_DATA_BUF[150], acd_chk_pos;
                 ;unsigned char slidemotor_state, accel_rdy=1, deaccel_rdy=0, PackerSharedEnable=9;
                 ;unsigned char Marking_MOUT;
                 ;unsigned char Marking_MOUT_SNG[8]={Mark_M0, Mark_M1, Mark_M2, Mark_M3, Mark_M4, Mark_M5, Mark_M6, Mark_M7};
                 ;
                 ;
                 ;interrupt [EXT_INT0] void ext_int0_isr(void)
                 ; 0000 0041 {
                 
                 	.CSEG
                 _ext_int0_isr:
                 ; .FSTART _ext_int0_isr
00055e 93aa      	ST   -Y,R26
00055f 93ea      	ST   -Y,R30
000560 93fa      	ST   -Y,R31
000561 b7ef      	IN   R30,SREG
000562 93ea      	ST   -Y,R30
                 ; 0000 0042     //version 3.4.2
                 ; 0000 0043     //  /  
                 ; 0000 0044     //   High  accelate 
                 ; 0000 0045     //                     low  accelate 
                 ; 0000 0046 
                 ; 0000 0047     if(SpeedAdjEnable==1){
000563 91a0 1fa9 	LDS  R26,_SpeedAdjEnable
000565 30a1      	CPI  R26,LOW(0x1)
000566 f009      	BREQ PC+2
000567 c060      	RJMP _0xAC
                 ; 0000 0048         //  OFF
                 ; 0000 0049         if(PIND.0==1){
000568 9b48      	SBIS 0x9,0
000569 c021      	RJMP _0xAD
                 ; 0000 004A             if(slidemotor_state ==1){
00056a 91a0 1fab 	LDS  R26,_slidemotor_state
00056c 30a1      	CPI  R26,LOW(0x1)
00056d f4e1      	BRNE _0xAE
                 ; 0000 004B                 if(accel_chk==1){
00056e 91a0 1fa8 	LDS  R26,_accel_chk
000570 30a1      	CPI  R26,LOW(0x1)
000571 f4c1      	BRNE _0xAF
                 ; 0000 004C                     if(MACHINE_STATE==1){       //
000572 91a0 1e98 	LDS  R26,_MACHINE_STATE
000574 30a1      	CPI  R26,LOW(0x1)
000575 f4a1      	BRNE _0xB0
                 ; 0000 004D                         if(debugMode==1){
000576 91a0 1faa 	LDS  R26,_debugMode
000578 30a1      	CPI  R26,LOW(0x1)
000579 f439      	BRNE _0xB1
                 ; 0000 004E                             UDR1 =0xA1;            while(!(UCSR1A & 0x20));
00057a eae1      	LDI  R30,LOW(161)
00057b 93e0 00ce 	STS  206,R30
                 _0xB2:
00057d 91e0 00c8 	LDS  R30,200
00057f 72e0      	ANDI R30,LOW(0x20)
000580 f3e1      	BREQ _0xB2
                 ; 0000 004F                         }
                 ; 0000 0050 
                 ; 0000 0051                         //Acclate Finish
                 ; 0000 0052                         AccelStart = 0;
                 _0xB1:
000581 940e 2876 	CALL SUBOPT_0x1D
                 ; 0000 0053                         AccelStep = 0;
                 ; 0000 0054                         AccelCount=accelStartCount;
                 ; 0000 0055                         Sol_Correction_Count = 0;
                 ; 0000 0056                         SpeedAdjEnable = 0;
000583 e0e0      	LDI  R30,LOW(0)
000584 93e0 1fa9 	STS  _SpeedAdjEnable,R30
                 ; 0000 0057                         slidemotor_state = 0;
000586 93e0 1fab 	STS  _slidemotor_state,R30
                 ; 0000 0058                         accel_chk = 0;
000588 93e0 1fa8 	STS  _accel_chk,R30
                 ; 0000 0059                         //deaccel_rdy = 1;
                 ; 0000 005A                     }
                 ; 0000 005B                 }
                 _0xB0:
                 ; 0000 005C             }
                 _0xAF:
                 ; 0000 005D         }
                 _0xAE:
                 ; 0000 005E         //ON
                 ; 0000 005F         else if(PIND.0==0){
00058a c03d      	RJMP _0xB5
                 _0xAD:
00058b 9948      	SBIC 0x9,0
00058c c03b      	RJMP _0xB6
                 ; 0000 0060             if(slidemotor_state==0){
00058d 91e0 1fab 	LDS  R30,_slidemotor_state
00058f 30e0      	CPI  R30,0
000590 f5b9      	BRNE _0xB7
                 ; 0000 0061                 if(MACHINE_STATE==0){  //
000591 91e0 1e98 	LDS  R30,_MACHINE_STATE
000593 30e0      	CPI  R30,0
000594 f599      	BRNE _0xB8
                 ; 0000 0062                     if(accel_rdy==1){
000595 91a0 2042 	LDS  R26,_accel_rdy
000597 30a1      	CPI  R26,LOW(0x1)
000598 f579      	BRNE _0xB9
                 ; 0000 0063                         if(debugMode==1){
000599 91a0 1faa 	LDS  R26,_debugMode
00059b 30a1      	CPI  R26,LOW(0x1)
00059c f439      	BRNE _0xBA
                 ; 0000 0064                             UDR1 =0xA0;            while(!(UCSR1A & 0x20));
00059d eae0      	LDI  R30,LOW(160)
00059e 93e0 00ce 	STS  206,R30
                 _0xBB:
0005a0 91e0 00c8 	LDS  R30,200
0005a2 72e0      	ANDI R30,LOW(0x20)
0005a3 f3e1      	BREQ _0xBB
                 ; 0000 0065                         }
                 ; 0000 0066                         slidemotor_state = 1;
                 _0xBA:
0005a4 e0e1      	LDI  R30,LOW(1)
0005a5 93e0 1fab 	STS  _slidemotor_state,R30
                 ; 0000 0067                         accel_rdy = 0;
0005a7 940e 2887 	CALL SUBOPT_0x1E
                 ; 0000 0068                         accel_chk = 1;
0005a9 93e0 1fa8 	STS  _accel_chk,R30
                 ; 0000 0069                         timerstop = 0;
0005ab e0e0      	LDI  R30,LOW(0)
0005ac 93e0 1fa6 	STS  _timerstop,R30
                 ; 0000 006A                         AccelCount =0;
0005ae 93e0 1c62 	STS  _AccelCount,R30
0005b0 93e0 1c63 	STS  _AccelCount+1,R30
                 ; 0000 006B                         AccelStep = accelStartCount;
0005b2 91e0 1fa0 	LDS  R30,_accelStartCount
0005b4 93e0 1c5d 	STS  _AccelStep,R30
                 ; 0000 006C                         MACHINE_STATE =1;
0005b6 e0e1      	LDI  R30,LOW(1)
0005b7 93e0 1e98 	STS  _MACHINE_STATE,R30
                 ; 0000 006D                         off_Correction_Count = init_off_correction;
0005b9 940e 288c 	CALL SUBOPT_0x1F
0005bb 93e0 1f9a 	STS  _off_Correction_Count,R30
0005bd 93f0 1f9b 	STS  _off_Correction_Count+1,R31
                 ; 0000 006E 
                 ; 0000 006F                         Sol_Correction_Count=SYS_INFO.correction+AccelStartPos;
0005bf 940e 2891 	CALL SUBOPT_0x20
                 ; 0000 0070 
                 ; 0000 0071                         AccelStart = 1;
0005c1 93e0 1c5b 	STS  _AccelStart,R30
                 ; 0000 0072                         TimerMode = tmrSPEED;
0005c3 e0e2      	LDI  R30,LOW(2)
0005c4 93e0 1bff 	STS  _TimerMode,R30
                 ; 0000 0073                         OCR1AH=0x00;        OCR1AL=0x4E;        //5msec /1024 prescaler
0005c6 940e 2898 	CALL SUBOPT_0x21
                 ; 0000 0074                         TCCR1B = 0x05;
                 ; 0000 0075                     }
                 ; 0000 0076                 }
                 _0xB9:
                 ; 0000 0077             }
                 _0xB8:
                 ; 0000 0078         }
                 _0xB7:
                 ; 0000 0079     }
                 _0xB6:
                 _0xB5:
                 ; 0000 007A }
                 _0xAC:
0005c8 91e9      	LD   R30,Y+
0005c9 bfef      	OUT  SREG,R30
0005ca 91f9      	LD   R31,Y+
0005cb 91e9      	LD   R30,Y+
0005cc 91a9      	LD   R26,Y+
0005cd 9518      	RETI
                 ; .FEND
                 ;
                 ;interrupt [EXT_INT1] void ext_int1_isr(void)
                 ; 0000 007D {
                 _ext_int1_isr:
                 ; .FSTART _ext_int1_isr
0005ce 93aa      	ST   -Y,R26
0005cf 93ea      	ST   -Y,R30
0005d0 b7ef      	IN   R30,SREG
0005d1 93ea      	ST   -Y,R30
                 ; 0000 007E     //version 3.4.2
                 ; 0000 007F     //   high    deaccelate
                 ; 0000 0080     //         low deaccelate  
                 ; 0000 0081     if(SpeedAdjEnable==1){
0005d2 91a0 1fa9 	LDS  R26,_SpeedAdjEnable
0005d4 30a1      	CPI  R26,LOW(0x1)
0005d5 f009      	BREQ PC+2
0005d6 c068      	RJMP _0xBE
                 ; 0000 0082         //  OFF
                 ; 0000 0083         if(PIND.1==1){
0005d7 9b49      	SBIS 0x9,1
0005d8 c030      	RJMP _0xBF
                 ; 0000 0084             if(slidemotor_state ==1){
0005d9 91a0 1fab 	LDS  R26,_slidemotor_state
0005db 30a1      	CPI  R26,LOW(0x1)
0005dc f559      	BRNE _0xC0
                 ; 0000 0085                 if(MACHINE_STATE==0){                       //
0005dd 91e0 1e98 	LDS  R30,_MACHINE_STATE
0005df 30e0      	CPI  R30,0
0005e0 f539      	BRNE _0xC1
                 ; 0000 0086                     if(deaccel_chk==1){
0005e1 91a0 1fa7 	LDS  R26,_deaccel_chk
0005e3 30a1      	CPI  R26,LOW(0x1)
0005e4 f519      	BRNE _0xC2
                 ; 0000 0087                         if(debugMode==1){
0005e5 91a0 1faa 	LDS  R26,_debugMode
0005e7 30a1      	CPI  R26,LOW(0x1)
0005e8 f439      	BRNE _0xC3
                 ; 0000 0088                             UDR1 =0xB1;            while(!(UCSR1A & 0x20));
0005e9 ebe1      	LDI  R30,LOW(177)
0005ea 93e0 00ce 	STS  206,R30
                 _0xC4:
0005ec 91e0 00c8 	LDS  R30,200
0005ee 72e0      	ANDI R30,LOW(0x20)
0005ef f3e1      	BREQ _0xC4
                 ; 0000 0089                         }
                 ; 0000 008A                         DeAccelStart = 0;           //
                 _0xC3:
0005f0 940e 28a2 	CALL SUBOPT_0x22
                 ; 0000 008B                         DeAccelStep = deAccelStartCount;
                 ; 0000 008C                         DeAccelCount=0;
                 ; 0000 008D 
                 ; 0000 008E                         deaccel_chk = 0;
0005f2 e0e0      	LDI  R30,LOW(0)
0005f3 93e0 1fa7 	STS  _deaccel_chk,R30
                 ; 0000 008F                         timerstop = 1;
0005f5 e0e1      	LDI  R30,LOW(1)
0005f6 93e0 1fa6 	STS  _timerstop,R30
                 ; 0000 0090                         MACHINE_STATE = 0;
0005f8 e0e0      	LDI  R30,LOW(0)
0005f9 93e0 1e98 	STS  _MACHINE_STATE,R30
                 ; 0000 0091                         slidemotor_state = 0;
0005fb 93e0 1fab 	STS  _slidemotor_state,R30
                 ; 0000 0092 
                 ; 0000 0093                         if(StopCMD==1){
0005fd 91a0 1e97 	LDS  R26,_StopCMD
0005ff 30a1      	CPI  R26,LOW(0x1)
000600 f439      	BRNE _0xC7
                 ; 0000 0094                             plc_prt_value &= ~MACHINE_START;
000601 940e 28af 	CALL SUBOPT_0x23
                 ; 0000 0095                             PLC_CON = plc_prt_value;
000603 940e 28b5 	CALL SUBOPT_0x24
                 ; 0000 0096                             led_buz_value &= ~LED_RUN_STOP;
                 ; 0000 0097                             LED_BUZ = led_buz_value;
                 ; 0000 0098                             StopCMD = 0;
000605 e0e0      	LDI  R30,LOW(0)
000606 93e0 1e97 	STS  _StopCMD,R30
                 ; 0000 0099                         }
                 ; 0000 009A                     }
                 _0xC7:
                 ; 0000 009B                 }
                 _0xC2:
                 ; 0000 009C             }
                 _0xC1:
                 ; 0000 009D         }
                 _0xC0:
                 ; 0000 009E         //ON
                 ; 0000 009F         else if(PIND.1==0){
000608 c036      	RJMP _0xC8
                 _0xBF:
000609 9949      	SBIC 0x9,1
00060a c034      	RJMP _0xC9
                 ; 0000 00A0             if(slidemotor_state==0){
00060b 91e0 1fab 	LDS  R30,_slidemotor_state
00060d 30e0      	CPI  R30,0
00060e f581      	BRNE _0xCA
                 ; 0000 00A1                 if(MACHINE_STATE==1){       //
00060f 91a0 1e98 	LDS  R26,_MACHINE_STATE
000611 30a1      	CPI  R26,LOW(0x1)
000612 f561      	BRNE _0xCB
                 ; 0000 00A2                     if(deaccel_rdy==1){
000613 91a0 2043 	LDS  R26,_deaccel_rdy
000615 30a1      	CPI  R26,LOW(0x1)
000616 f541      	BRNE _0xCC
                 ; 0000 00A3                         if(debugMode==1){
000617 91a0 1faa 	LDS  R26,_debugMode
000619 30a1      	CPI  R26,LOW(0x1)
00061a f439      	BRNE _0xCD
                 ; 0000 00A4                             UDR1 =0xB0;            while(!(UCSR1A & 0x20));
00061b ebe0      	LDI  R30,LOW(176)
00061c 93e0 00ce 	STS  206,R30
                 _0xCE:
00061e 91e0 00c8 	LDS  R30,200
000620 72e0      	ANDI R30,LOW(0x20)
000621 f3e1      	BREQ _0xCE
                 ; 0000 00A5                         }
                 ; 0000 00A6                         DeAccelDelay=0;
                 _0xCD:
000622 e0e0      	LDI  R30,LOW(0)
000623 93e0 1fa2 	STS  _DeAccelDelay,R30
000625 93e0 1fa3 	STS  _DeAccelDelay+1,R30
                 ; 0000 00A7                         DeAccelCount=0;
000627 93e0 1c64 	STS  _DeAccelCount,R30
000629 93e0 1c65 	STS  _DeAccelCount+1,R30
                 ; 0000 00A8                         DeAccelStep = deAccelStartCount;
00062b 91e0 1f9e 	LDS  R30,_deAccelStartCount
00062d 93e0 1c5e 	STS  _DeAccelStep,R30
                 ; 0000 00A9                         off_Correction_Count=0;
00062f e0e0      	LDI  R30,LOW(0)
000630 940e 28bf 	CALL SUBOPT_0x25
                 ; 0000 00AA                         DeAccelStart = 1;
000632 e0e1      	LDI  R30,LOW(1)
000633 93e0 1c5c 	STS  _DeAccelStart,R30
                 ; 0000 00AB                         MACHINE_STATE = 0;
000635 e0e0      	LDI  R30,LOW(0)
000636 93e0 1e98 	STS  _MACHINE_STATE,R30
                 ; 0000 00AC                         deaccel_rdy = 0;
000638 93e0 2043 	STS  _deaccel_rdy,R30
                 ; 0000 00AD                         deaccel_chk =1;
00063a e0e1      	LDI  R30,LOW(1)
00063b 93e0 1fa7 	STS  _deaccel_chk,R30
                 ; 0000 00AE                         slidemotor_state = 1;
00063d 93e0 1fab 	STS  _slidemotor_state,R30
                 ; 0000 00AF                     }
                 ; 0000 00B0                 }
                 _0xCC:
                 ; 0000 00B1             }
                 _0xCB:
                 ; 0000 00B2         }
                 _0xCA:
                 ; 0000 00B3     }
                 _0xC9:
                 _0xC8:
                 ; 0000 00B4 }
                 _0xBE:
00063f c069      	RJMP _0x4DD
                 ; .FEND
                 ;
                 ;/***********************************/
                 ;/*         Event Start/Stop        */
                 ;/***********************************/
                 ;interrupt [EXT_INT5] void ext_int5_isr(void)
                 ; 0000 00BA {
                 _ext_int5_isr:
                 ; .FSTART _ext_int5_isr
000640 93aa      	ST   -Y,R26
000641 93ea      	ST   -Y,R30
000642 b7ef      	IN   R30,SREG
000643 93ea      	ST   -Y,R30
                 ; 0000 00BB     //  ,  
                 ; 0000 00BC     //  off,  
                 ; 0000 00BD     //version 3.4.2
                 ; 0000 00BE     if(EVENT_SIGNAL==0){//
000644 9965      	SBIC 0xC,5
000645 c02d      	RJMP _0xD1
                 ; 0000 00BF         if(debugMode==1)
000646 91a0 1faa 	LDS  R26,_debugMode
000648 30a1      	CPI  R26,LOW(0x1)
000649 f519      	BRNE _0xD2
                 ; 0000 00C0         {
                 ; 0000 00C1             UDR1 =0x02;            while(!(UCSR1A & 0x20));
00064a e0e2      	LDI  R30,LOW(2)
00064b 93e0 00ce 	STS  206,R30
                 _0xD3:
00064d 91e0 00c8 	LDS  R30,200
00064f 72e0      	ANDI R30,LOW(0x20)
000650 f3e1      	BREQ _0xD3
                 ; 0000 00C2             UDR1 =0x00;            while(!(UCSR1A & 0x20));
000651 e0e0      	LDI  R30,LOW(0)
000652 93e0 00ce 	STS  206,R30
                 _0xD6:
000654 91e0 00c8 	LDS  R30,200
000656 72e0      	ANDI R30,LOW(0x20)
000657 f3e1      	BREQ _0xD6
                 ; 0000 00C3             UDR1 =0x01;            while(!(UCSR1A & 0x20));
000658 e0e1      	LDI  R30,LOW(1)
000659 93e0 00ce 	STS  206,R30
                 _0xD9:
00065b 91e0 00c8 	LDS  R30,200
00065d 72e0      	ANDI R30,LOW(0x20)
00065e f3e1      	BREQ _0xD9
                 ; 0000 00C4             UDR1 =0xA3;            while(!(UCSR1A & 0x20));
00065f eae3      	LDI  R30,LOW(163)
000660 93e0 00ce 	STS  206,R30
                 _0xDC:
000662 91e0 00c8 	LDS  R30,200
000664 72e0      	ANDI R30,LOW(0x20)
000665 f3e1      	BREQ _0xDC
                 ; 0000 00C5             UDR1 =0x03;            while(!(UCSR1A & 0x20));
000666 e0e3      	LDI  R30,LOW(3)
000667 93e0 00ce 	STS  206,R30
                 _0xDF:
000669 91e0 00c8 	LDS  R30,200
00066b 72e0      	ANDI R30,LOW(0x20)
00066c f3e1      	BREQ _0xDF
                 ; 0000 00C6         }
                 ; 0000 00C7         EVENT_ENABLE = 1;
                 _0xD2:
00066d 940e 28c4 	CALL SUBOPT_0x26
                 ; 0000 00C8         SpeedAdjEnable = 1;
                 ; 0000 00C9 
                 ; 0000 00CA         deaccel_rdy = 1;
00066f e0e1      	LDI  R30,LOW(1)
000670 93e0 2043 	STS  _deaccel_rdy,R30
                 ; 0000 00CB     }
                 ; 0000 00CC     else{//
000672 c036      	RJMP _0xE2
                 _0xD1:
                 ; 0000 00CD         EVENT_ENABLE = 0;
000673 e0e0      	LDI  R30,LOW(0)
000674 93e0 1c6a 	STS  _EVENT_ENABLE,R30
                 ; 0000 00CE         SpeedAdjEnable = 1;
000676 e0e1      	LDI  R30,LOW(1)
000677 93e0 1fa9 	STS  _SpeedAdjEnable,R30
                 ; 0000 00CF         accel_rdy = 1;
000679 93e0 2042 	STS  _accel_rdy,R30
                 ; 0000 00D0         led_buz_value |= LED_RUN_STOP;
00067b 940e 28ca 	CALL SUBOPT_0x27
                 ; 0000 00D1         LED_BUZ = led_buz_value;
                 ; 0000 00D2 
                 ; 0000 00D3         if(debugMode==1)
00067d 91a0 1faa 	LDS  R26,_debugMode
00067f 30a1      	CPI  R26,LOW(0x1)
000680 f519      	BRNE _0xE3
                 ; 0000 00D4 		{
                 ; 0000 00D5             UDR1 =0x02;            while(!(UCSR1A & 0x20));
000681 e0e2      	LDI  R30,LOW(2)
000682 93e0 00ce 	STS  206,R30
                 _0xE4:
000684 91e0 00c8 	LDS  R30,200
000686 72e0      	ANDI R30,LOW(0x20)
000687 f3e1      	BREQ _0xE4
                 ; 0000 00D6             UDR1 =0x00;            while(!(UCSR1A & 0x20));
000688 e0e0      	LDI  R30,LOW(0)
000689 93e0 00ce 	STS  206,R30
                 _0xE7:
00068b 91e0 00c8 	LDS  R30,200
00068d 72e0      	ANDI R30,LOW(0x20)
00068e f3e1      	BREQ _0xE7
                 ; 0000 00D7             UDR1 =0x01;            while(!(UCSR1A & 0x20));
00068f e0e1      	LDI  R30,LOW(1)
000690 93e0 00ce 	STS  206,R30
                 _0xEA:
000692 91e0 00c8 	LDS  R30,200
000694 72e0      	ANDI R30,LOW(0x20)
000695 f3e1      	BREQ _0xEA
                 ; 0000 00D8             UDR1 =0xA2;            while(!(UCSR1A & 0x20));
000696 eae2      	LDI  R30,LOW(162)
000697 93e0 00ce 	STS  206,R30
                 _0xED:
000699 91e0 00c8 	LDS  R30,200
00069b 72e0      	ANDI R30,LOW(0x20)
00069c f3e1      	BREQ _0xED
                 ; 0000 00D9             UDR1 =0x03;            while(!(UCSR1A & 0x20));
00069d e0e3      	LDI  R30,LOW(3)
00069e 93e0 00ce 	STS  206,R30
                 _0xF0:
0006a0 91e0 00c8 	LDS  R30,200
0006a2 72e0      	ANDI R30,LOW(0x20)
0006a3 f3e1      	BREQ _0xF0
                 ; 0000 00DA         }
                 ; 0000 00DB         plc_prt_value &= ~EVENT_STOP;
                 _0xE3:
0006a4 91e0 0ee1 	LDS  R30,_plc_prt_value
0006a6 7fed      	ANDI R30,0xFD
0006a7 940e 28d2 	CALL SUBOPT_0x28
                 ; 0000 00DC         PLC_CON = plc_prt_value;
                 ; 0000 00DD     }
                 _0xE2:
                 ; 0000 00DE }
                 _0x4DD:
0006a9 91e9      	LD   R30,Y+
0006aa bfef      	OUT  SREG,R30
0006ab 91e9      	LD   R30,Y+
0006ac 91a9      	LD   R26,Y+
0006ad 9518      	RETI
                 ; .FEND
                 ;
                 ;/**************************************/
                 ;/*         Encoder Z-Phase Signal     */
                 ;/**************************************/
                 ;// A 1  
                 ;// A 0  
                 ;interrupt [EXT_INT6] void ext_int6_isr(void)
                 ; 0000 00E6 {
                 _ext_int6_isr:
                 ; .FSTART _ext_int6_isr
0006ae 940e 28d7 	CALL SUBOPT_0x29
                 ; 0000 00E7     unsigned char tmp_acd_data[150]={0,0,0,0,0,0,0,0,0,0,0,0,0,0,0,0,0,0,0,0,
                 ; 0000 00E8                                      0,0,0,0,0,0,0,0,0,0,0,0,0,0,0,0,0,0,0,0,
                 ; 0000 00E9                                      0,0,0,0,0,0,0,0,0,0,0,0,0,0,0,0,0,0,0,0,
                 ; 0000 00EA                                      0,0,0,0,0,0,0,0,0,0,0,0,0,0,0,0,0,0,0,0,
                 ; 0000 00EB                                      0,0,0,0,0,0,0,0,0,0,0,0,0,0,0,0,0,0,0,0,
                 ; 0000 00EC                                      0,0,0,0,0,0,0,0,0,0,0,0,0,0,0,0,0,0,0,0,
                 ; 0000 00ED                                      0,0,0,0,0,0,0,0,0,0,0,0,0,0,0,0,0,0,0,0,
                 ; 0000 00EE                                      0,0,0,0,0,0,0,0,0,0};
                 ; 0000 00EF 
                 ; 0000 00F0     //Moving ACD Data bucket
                 ; 0000 00F1     memcpy(&tmp_acd_data[0],&ACD_DATA_BUF[0],sizeof(ACD_DATA_BUF));
0006b0 97ef      	SBIW R28,63
0006b1 97ef      	SBIW R28,63
0006b2 9768      	SBIW R28,24
0006b3 e986      	LDI  R24,150
0006b4 e0a0      	LDI  R26,LOW(0)
0006b5 e0b0      	LDI  R27,HIGH(0)
0006b6 e1ec      	LDI  R30,LOW(_0xF3*2)
0006b7 e0f2      	LDI  R31,HIGH(_0xF3*2)
0006b8 940e 3186 	CALL __INITLOCB
                 ;	tmp_acd_data -> Y+0
0006ba 01fe      	MOVW R30,R28
0006bb 93fa      	ST   -Y,R31
0006bc 93ea      	ST   -Y,R30
0006bd eaec      	LDI  R30,LOW(_ACD_DATA_BUF)
0006be e1ff      	LDI  R31,HIGH(_ACD_DATA_BUF)
0006bf 93fa      	ST   -Y,R31
0006c0 93ea      	ST   -Y,R30
0006c1 e9a6      	LDI  R26,LOW(150)
0006c2 e0b0      	LDI  R27,0
0006c3 940e 27af 	CALL _memcpy
                 ; 0000 00F2 
                 ; 0000 00F3     //z   led on , a 100pulse  off
                 ; 0000 00F4     //a    
                 ; 0000 00F5 
                 ; 0000 00F6     //A   
                 ; 0000 00F7     //A   
                 ; 0000 00F8     //if(old_a_cnt != phase_a_cnt){
                 ; 0000 00F9 
                 ; 0000 00FA     //old_a_cnt = phase_a_cnt;
                 ; 0000 00FB     //if(phase_a_cnt>2){
                 ; 0000 00FC     if(PHASE_A==LEVEL_HI){
0006c5 9b66      	SBIS 0xC,6
0006c6 c053      	RJMP _0xF4
                 ; 0000 00FD         if(phase_z_cnt==0 ){                             // ON   , z  
0006c7 940e 28e5 	CALL SUBOPT_0x2A
0006c9 940e 316b 	CALL __CPD10
0006cb f501      	BRNE _0xF5
                 ; 0000 00FE             phase_z_cnt = 1; phase_a_cnt =0;
                +
0006cc e0e1     +LDI R30 , LOW ( 0x1 )
0006cd e0f0     +LDI R31 , HIGH ( 0x1 )
0006ce e060     +LDI R22 , BYTE3 ( 0x1 )
0006cf e070     +LDI R23 , BYTE4 ( 0x1 )
                 	__GETD1N 0x1
0006d0 93e0 1428 	STS  _phase_z_cnt,R30
0006d2 93f0 1429 	STS  _phase_z_cnt+1,R31
0006d4 9360 142a 	STS  _phase_z_cnt+2,R22
0006d6 9370 142b 	STS  _phase_z_cnt+3,R23
0006d8 940e 28ee 	CALL SUBOPT_0x2B
                 ; 0000 00FF             z_led_flag = 1;
0006da e0e1      	LDI  R30,LOW(1)
0006db 2e8e      	MOV  R8,R30
                 ; 0000 0100             led_buz_value |= LED_ENCODER_Z;                     //z  led ON
0006dc 91e0 1c5a 	LDS  R30,_led_buz_value
0006de 60e1      	ORI  R30,1
0006df 93e0 1c5a 	STS  _led_buz_value,R30
                 ; 0000 0101             if(modRunning == MEASURE_AD){
0006e1 e0e2      	LDI  R30,LOW(2)
0006e2 15ea      	CP   R30,R10
0006e3 f439      	BRNE _0xF6
                 ; 0000 0102                 ScanEnable = 1;     max_scan_val = 0;
0006e4 e0e1      	LDI  R30,LOW(1)
0006e5 2e9e      	MOV  R9,R30
0006e6 e0e0      	LDI  R30,LOW(0)
0006e7 93e0 0ee4 	STS  _max_scan_val,R30
0006e9 93e0 0ee5 	STS  _max_scan_val+1,R30
                 ; 0000 0103             }
                 ; 0000 0104         }
                 _0xF6:
                 ; 0000 0105         else if( phase_a_cnt >= SYS_INFO.z_encoder_interval && phase_z_cnt>=1){       //a   max  ...
0006eb c01f      	RJMP _0xF7
                 _0xF5:
                +
0006ec 91e0 0d21+LDS R30 , _SYS_INFO + ( 7 )
0006ee 91f0 0d22+LDS R31 , _SYS_INFO + ( 7 ) + 1
                 	__GETW1MN _SYS_INFO,7
0006f0 940e 28f4 	CALL SUBOPT_0x2C
0006f2 17ae      	CP   R26,R30
0006f3 07bf      	CPC  R27,R31
0006f4 f018      	BRLO _0xF9
0006f5 940e 28f9 	CALL SUBOPT_0x2D
0006f7 f40c      	BRGE _0xFA
                 _0xF9:
0006f8 c007      	RJMP _0xF8
                 _0xFA:
                 ; 0000 0106             phase_a_cnt =0;                                     //a  
0006f9 940e 28ee 	CALL SUBOPT_0x2B
                 ; 0000 0107             phase_z_cnt++;
0006fb 940e 2909 	CALL SUBOPT_0x2E
                 ; 0000 0108             z_led_flag = 1;                                     //z led on
0006fd e0e1      	LDI  R30,LOW(1)
0006fe 2e8e      	MOV  R8,R30
                 ; 0000 0109             led_buz_value |= LED_ENCODER_Z;                     //z  led ON
0006ff c006      	RJMP _0x4BC
                 ; 0000 010A         }
                 ; 0000 010B         /*else if(phase_a_cnt < SYS_INFO.z_encoder_min_interval && phase_z_cnt>=1){  //a   100  ...
                 ; 0000 010C             phase_a_cnt =0;
                 ; 0000 010D             phase_z_cnt++;
                 ; 0000 010E             z_led_flag = 1;
                 ; 0000 010F             led_buz_value |= LED_ENCODER_Z;             //z  led ON
                 ; 0000 0110             UDR1 =0xBB;            while(!(UCSR1A & 0x20));
                 ; 0000 0111         }*/
                 ; 0000 0112         else{
                 _0xF8:
                 ; 0000 0113             phase_a_cnt = 0;
000700 940e 28ee 	CALL SUBOPT_0x2B
                 ; 0000 0114             z_led_flag = 1;
000702 e0e1      	LDI  R30,LOW(1)
000703 2e8e      	MOV  R8,R30
                 ; 0000 0115             phase_z_cnt++;
000704 940e 2909 	CALL SUBOPT_0x2E
                 ; 0000 0116             led_buz_value |= LED_ENCODER_Z;
                 _0x4BC:
000706 91e0 1c5a 	LDS  R30,_led_buz_value
000708 60e1      	ORI  R30,1
000709 93e0 1c5a 	STS  _led_buz_value,R30
                 ; 0000 0117         }
                 _0xF7:
                 ; 0000 0118         //Moving ACD Data bucket
                 ; 0000 0119         memcpy(&ACD_DATA_BUF[1],&tmp_acd_data[0],sizeof(ACD_DATA_BUF)-1);
                +
00070b eaed     +LDI R30 , LOW ( _ACD_DATA_BUF + ( 1 ) )
00070c e1ff     +LDI R31 , HIGH ( _ACD_DATA_BUF + ( 1 ) )
                 	__POINTW1MN _ACD_DATA_BUF,1
00070d 93fa      	ST   -Y,R31
00070e 93ea      	ST   -Y,R30
00070f 01fe      	MOVW R30,R28
000710 9632      	ADIW R30,2
000711 93fa      	ST   -Y,R31
000712 93ea      	ST   -Y,R30
000713 e9a5      	LDI  R26,LOW(149)
000714 e0b0      	LDI  R27,0
000715 940e 27af 	CALL _memcpy
                 ; 0000 011A         ACD_DATA_BUF[0]=0;
000717 e0e0      	LDI  R30,LOW(0)
000718 93e0 1fac 	STS  _ACD_DATA_BUF,R30
                 ; 0000 011B     }
                 ; 0000 011C     LED_BUZ = led_buz_value;
                 _0xF4:
00071a 940e 2914 	CALL SUBOPT_0x2F
                 ; 0000 011D }
00071c 96ef      	ADIW R28,63
00071d 96ef      	ADIW R28,63
00071e 9668      	ADIW R28,24
00071f 91e9      	LD   R30,Y+
000720 bfef      	OUT  SREG,R30
000721 91f9      	LD   R31,Y+
000722 91e9      	LD   R30,Y+
000723 91b9      	LD   R27,Y+
000724 91a9      	LD   R26,Y+
000725 9199      	LD   R25,Y+
000726 9189      	LD   R24,Y+
000727 9179      	LD   R23,Y+
000728 9169      	LD   R22,Y+
000729 90f9      	LD   R15,Y+
00072a 9019      	LD   R1,Y+
00072b 9009      	LD   R0,Y+
00072c 9518      	RETI
                 ; .FEND
                 ;
                 ;/**************************************/
                 ;/*         Encoder A-Phase Signal     */
                 ;/**************************************/
                 ;// Encoder A-Phase Signal :: Edge High check
                 ;// A 1  B 0 
                 ;// A 1  B 1   
                 ;interrupt [EXT_INT7] void ext_int7_isr(void)
                 ; 0000 0126 {
                 _ext_int7_isr:
                 ; .FSTART _ext_int7_isr
00072d 940e 28d7 	CALL SUBOPT_0x29
                 ; 0000 0127     unsigned int lcnt, datalen=0;
                 ; 0000 0128     unsigned char cal_cnt=0;
                 ; 0000 0129     unsigned char phaseB;
                 ; 0000 012A     unsigned char crack_dot_ch;
                 ; 0000 012B     unsigned int rawdata;
                 ; 0000 012C     unsigned int chkdata,chkdata_new, cur_sol_num ;
                 ; 0000 012D     //UDR1 = PHASE_B;            while(!(UCSR1A & 0x20));
                 ; 0000 012E     // 
                 ; 0000 012F     phaseB = PHASE_B;
00072f 9729      	SBIW R28,9
000730 940e 3178 	CALL __SAVELOCR6
                 ;	lcnt -> R16,R17
                 ;	datalen -> R18,R19
                 ;	cal_cnt -> R21
                 ;	phaseB -> R20
                 ;	crack_dot_ch -> Y+14
                 ;	rawdata -> Y+12
                 ;	chkdata -> Y+10
                 ;	chkdata_new -> Y+8
                 ;	cur_sol_num -> Y+6
                +
000732 e020     +LDI R18 , LOW ( 0 )
000733 e030     +LDI R19 , HIGH ( 0 )
                 	__GETWRN 18,19,0
000734 e050      	LDI  R21,0
000735 e0e0      	LDI  R30,0
000736 9964      	SBIC 0xC,4
000737 e0e1      	LDI  R30,1
000738 2f4e      	MOV  R20,R30
                 ; 0000 0130 
                 ; 0000 0131     if(phaseB==CW_DIR){    // &   ::   :: CW_DIR = 1
000739 1654      	CP   R5,R20
00073a f009      	BREQ PC+2
00073b c455      	RJMP _0xFC
                 ; 0000 0132     //if(phaseB==0){      //  ::  :: CW_DIR = 0
                 ; 0000 0133         // 60 A LED ON, bucket count
                 ; 0000 0134 
                 ; 0000 0135         /*if(DeAccelStart==1){
                 ; 0000 0136             UDR1 =DeAccelStep;            while(!(UCSR1A & 0x20));
                 ; 0000 0137             UDR1 =0xAA;            while(!(UCSR1A & 0x20));
                 ; 0000 0138         } */
                 ; 0000 0139         switch(phase_a_cnt){
00073c 940e 2919 	CALL SUBOPT_0x30
                 ; 0000 013A             case 1 : case 61 : case 121 : case 181 : case 241 : case 301 :
00073e 30e1      	CPI  R30,LOW(0x1)
00073f e0a0      	LDI  R26,HIGH(0x1)
000740 07fa      	CPC  R31,R26
000741 f021      	BREQ _0x101
000742 33ed      	CPI  R30,LOW(0x3D)
000743 e0a0      	LDI  R26,HIGH(0x3D)
000744 07fa      	CPC  R31,R26
000745 f409      	BRNE _0x102
                 _0x101:
000746 c004      	RJMP _0x103
                 _0x102:
000747 37e9      	CPI  R30,LOW(0x79)
000748 e0a0      	LDI  R26,HIGH(0x79)
000749 07fa      	CPC  R31,R26
00074a f409      	BRNE _0x104
                 _0x103:
00074b c004      	RJMP _0x105
                 _0x104:
00074c 3be5      	CPI  R30,LOW(0xB5)
00074d e0a0      	LDI  R26,HIGH(0xB5)
00074e 07fa      	CPC  R31,R26
00074f f409      	BRNE _0x106
                 _0x105:
000750 c004      	RJMP _0x107
                 _0x106:
000751 3fe1      	CPI  R30,LOW(0xF1)
000752 e0a0      	LDI  R26,HIGH(0xF1)
000753 07fa      	CPC  R31,R26
000754 f409      	BRNE _0x108
                 _0x107:
000755 c004      	RJMP _0x109
                 _0x108:
000756 32ed      	CPI  R30,LOW(0x12D)
000757 e0a1      	LDI  R26,HIGH(0x12D)
000758 07fa      	CPC  R31,R26
000759 f5e9      	BRNE _0xFF
                 _0x109:
                 ; 0000 013B                 MovingBucket();
00075a 940e 1530 	CALL _MovingBucket
                 ; 0000 013C                 MaskingBucket();
00075c 940e 155d 	CALL _MaskingBucket
                 ; 0000 013D                 CHK_ABN = LEVEL_LO;
00075e e0e0      	LDI  R30,LOW(0)
00075f 93e0 1c6d 	STS  _CHK_ABN,R30
                 ; 0000 013E                 dotValue = 0;
000761 24bb      	CLR  R11
                 ; 0000 013F                 // Insert ABN 2020-11-26  [Check Signal]   
                 ; 0000 0140                 if(phase_a_cnt == 1)
000762 940e 28f4 	CALL SUBOPT_0x2C
000764 9711      	SBIW R26,1
000765 f419      	BRNE _0x10B
                 ; 0000 0141                 {
                 ; 0000 0142                     abn_phase_a = 1;
000766 e0e1      	LDI  R30,LOW(1)
000767 e0f0      	LDI  R31,HIGH(1)
000768 c02a      	RJMP _0x4BD
                 ; 0000 0143                 }
                 ; 0000 0144                 else if(phase_a_cnt == 61)
                 _0x10B:
000769 940e 28f4 	CALL SUBOPT_0x2C
00076b 97dd      	SBIW R26,61
00076c f419      	BRNE _0x10D
                 ; 0000 0145                 {
                 ; 0000 0146                     abn_phase_a = 61;
00076d e3ed      	LDI  R30,LOW(61)
00076e e0f0      	LDI  R31,HIGH(61)
00076f c023      	RJMP _0x4BD
                 ; 0000 0147                 }
                 ; 0000 0148                 else if(phase_a_cnt == 121)
                 _0x10D:
000770 940e 28f4 	CALL SUBOPT_0x2C
000772 37a9      	CPI  R26,LOW(0x79)
000773 e0e0      	LDI  R30,HIGH(0x79)
000774 07be      	CPC  R27,R30
000775 f419      	BRNE _0x10F
                 ; 0000 0149                 {
                 ; 0000 014A                     abn_phase_a = 121;
000776 e7e9      	LDI  R30,LOW(121)
000777 e0f0      	LDI  R31,HIGH(121)
000778 c01a      	RJMP _0x4BD
                 ; 0000 014B                 }
                 ; 0000 014C                 else if(phase_a_cnt == 181)
                 _0x10F:
000779 940e 28f4 	CALL SUBOPT_0x2C
00077b 3ba5      	CPI  R26,LOW(0xB5)
00077c e0e0      	LDI  R30,HIGH(0xB5)
00077d 07be      	CPC  R27,R30
00077e f419      	BRNE _0x111
                 ; 0000 014D                 {
                 ; 0000 014E                     abn_phase_a = 181;
00077f ebe5      	LDI  R30,LOW(181)
000780 e0f0      	LDI  R31,HIGH(181)
000781 c011      	RJMP _0x4BD
                 ; 0000 014F                 }
                 ; 0000 0150                 else if(phase_a_cnt == 241)
                 _0x111:
000782 940e 28f4 	CALL SUBOPT_0x2C
000784 3fa1      	CPI  R26,LOW(0xF1)
000785 e0e0      	LDI  R30,HIGH(0xF1)
000786 07be      	CPC  R27,R30
000787 f419      	BRNE _0x113
                 ; 0000 0151                 {
                 ; 0000 0152                     abn_phase_a = 241;
000788 efe1      	LDI  R30,LOW(241)
000789 e0f0      	LDI  R31,HIGH(241)
00078a c008      	RJMP _0x4BD
                 ; 0000 0153                 }
                 ; 0000 0154                 else if(phase_a_cnt == 301)
                 _0x113:
00078b 940e 28f4 	CALL SUBOPT_0x2C
00078d 32ad      	CPI  R26,LOW(0x12D)
00078e e0e1      	LDI  R30,HIGH(0x12D)
00078f 07be      	CPC  R27,R30
000790 f431      	BRNE _0x115
                 ; 0000 0155                 {
                 ; 0000 0156                     abn_phase_a = 301;
000791 e2ed      	LDI  R30,LOW(301)
000792 e0f1      	LDI  R31,HIGH(301)
                 _0x4BD:
000793 93e0 1c6e 	STS  _abn_phase_a,R30
000795 93f0 1c6f 	STS  _abn_phase_a+1,R31
                 ; 0000 0157                 }
                 ; 0000 0158         }
                 _0x115:
                 _0xFF:
                 ; 0000 0159 
                 ; 0000 015A         //A-Phase LED OFF
                 ; 0000 015B         if((phase_a_cnt % SYS_INFO.bucket_ref_pulse_cnt)==30){
                +
000797 91e0 0d25+LDS R30 , _SYS_INFO + ( 11 )
                 	__GETB1MN _SYS_INFO,11
000799 e0f0      	LDI  R31,0
00079a 940e 28f4 	CALL SUBOPT_0x2C
00079c 940e 3107 	CALL __MODW21U
00079e 31ee      	CPI  R30,LOW(0x1E)
00079f e0a0      	LDI  R26,HIGH(0x1E)
0007a0 07fa      	CPC  R31,R26
0007a1 f449      	BRNE _0x116
                 ; 0000 015C             if(a_led_flag ==1){
0007a2 e0e1      	LDI  R30,LOW(1)
0007a3 15e7      	CP   R30,R7
0007a4 f431      	BRNE _0x117
                 ; 0000 015D                 a_led_flag = 0;
0007a5 2477      	CLR  R7
                 ; 0000 015E                 led_buz_value &= ~LED_ENCODER_A;
0007a6 91e0 1c5a 	LDS  R30,_led_buz_value
0007a8 7feb      	ANDI R30,0xFB
0007a9 93e0 1c5a 	STS  _led_buz_value,R30
                 ; 0000 015F             }
                 ; 0000 0160         }
                 _0x117:
                 ; 0000 0161 
                 ; 0000 0162          //InterLock OFF
                 ; 0000 0163         if(InterLockON == 1){
                 _0x116:
0007ab 91a0 1c60 	LDS  R26,_InterLockON
0007ad 30a1      	CPI  R26,LOW(0x1)
0007ae f471      	BRNE _0x118
                 ; 0000 0164             InterLockCnt++;
0007af 91e0 1c61 	LDS  R30,_InterLockCnt
0007b1 5fef      	SUBI R30,-LOW(1)
0007b2 93e0 1c61 	STS  _InterLockCnt,R30
                 ; 0000 0165             if(InterLockCnt > 10){
0007b4 91a0 1c61 	LDS  R26,_InterLockCnt
0007b6 30ab      	CPI  R26,LOW(0xB)
0007b7 f028      	BRLO _0x119
                 ; 0000 0166                 InterLockON = 0;
0007b8 e0e0      	LDI  R30,LOW(0)
0007b9 93e0 1c60 	STS  _InterLockON,R30
                 ; 0000 0167                 InterLockCnt = 0;
0007bb 93e0 1c61 	STS  _InterLockCnt,R30
                 ; 0000 0168                 //plc_prt_value &= ~INTER_LOCK_ON;
                 ; 0000 0169                 //PLC_CON = plc_prt_value;
                 ; 0000 016A             }
                 ; 0000 016B         }
                 _0x119:
                 ; 0000 016C 
                 ; 0000 016D         //   
                 ; 0000 016E         //    PLC     
                 ; 0000 016F         //   DeAcceltime ,    
                 ; 0000 0170         if(StopEnable==1 && phase_a_cnt == SYS_INFO.stopcount){
                 _0x118:
0007bd 91a0 1c03 	LDS  R26,_StopEnable
0007bf 30a1      	CPI  R26,LOW(0x1)
0007c0 f419      	BRNE _0x11B
0007c1 940e 291e 	CALL SUBOPT_0x31
0007c3 f009      	BREQ _0x11C
                 _0x11B:
0007c4 c00f      	RJMP _0x11A
                 _0x11C:
                 ; 0000 0171             StopEnable = 0;
0007c5 e0e0      	LDI  R30,LOW(0)
0007c6 93e0 1c03 	STS  _StopEnable,R30
                 ; 0000 0172             plc_prt_value &= ~MACHINE_START;
0007c8 940e 28af 	CALL SUBOPT_0x23
                 ; 0000 0173             plc_prt_value |= EVENT_STOP;
0007ca 60e2      	ORI  R30,2
0007cb 93e0 0ee1 	STS  _plc_prt_value,R30
                 ; 0000 0174 
                 ; 0000 0175             EVENT_ENABLE = 2;
0007cd e0e2      	LDI  R30,LOW(2)
0007ce 93e0 1c6a 	STS  _EVENT_ENABLE,R30
                 ; 0000 0176 
                 ; 0000 0177             PLC_CON = plc_prt_value;
0007d0 91e0 0ee1 	LDS  R30,_plc_prt_value
0007d2 940e 28b5 	CALL SUBOPT_0x24
                 ; 0000 0178 
                 ; 0000 0179             led_buz_value &= ~LED_RUN_STOP;
                 ; 0000 017A             LED_BUZ = led_buz_value;
                 ; 0000 017B         }
                 ; 0000 017C 
                 ; 0000 017D         //   
                 ; 0000 017E         if(EVENT_ENABLE==1 && phase_a_cnt == SYS_INFO.stopcount){
                 _0x11A:
0007d4 91a0 1c6a 	LDS  R26,_EVENT_ENABLE
0007d6 30a1      	CPI  R26,LOW(0x1)
0007d7 f419      	BRNE _0x11E
0007d8 940e 291e 	CALL SUBOPT_0x31
0007da f009      	BREQ _0x11F
                 _0x11E:
0007db c00a      	RJMP _0x11D
                 _0x11F:
                 ; 0000 017F             plc_prt_value |= EVENT_STOP;
0007dc 91e0 0ee1 	LDS  R30,_plc_prt_value
0007de 60e2      	ORI  R30,2
0007df 940e 28d2 	CALL SUBOPT_0x28
                 ; 0000 0180             PLC_CON = plc_prt_value;
                 ; 0000 0181 
                 ; 0000 0182             EVENT_ENABLE = 2;
0007e1 e0e2      	LDI  R30,LOW(2)
0007e2 93e0 1c6a 	STS  _EVENT_ENABLE,R30
                 ; 0000 0183             led_buz_value &= ~LED_RUN_STOP;
0007e4 940e 2926 	CALL SUBOPT_0x32
                 ; 0000 0184             LED_BUZ = led_buz_value;
                 ; 0000 0185         }
                 ; 0000 0186 
                 ; 0000 0187         A_TX_DATA[0] = 0x02;
                 _0x11D:
0007e6 940e 292c 	CALL SUBOPT_0x33
                 ; 0000 0188         A_TX_DATA[1] = 0x00;
                 ; 0000 0189         A_TX_DATA[2] = 0x04;
                 ; 0000 018A         A_TX_DATA[3] = 0xE1;
                 ; 0000 018B         A_TX_DATA[4] = 0x01;
                 ; 0000 018C         A_TX_DATA[5] = phase_a_cnt >> 8 ;
                 ; 0000 018D         A_TX_DATA[6] = phase_a_cnt;
                 ; 0000 018E         A_TX_DATA[7] = 0x03;
                 ; 0000 018F 
                 ; 0000 0190         if(A_CNT_TX_HOLD==0 && TxEnable==0){
0007e8 91a0 1c0c 	LDS  R26,_A_CNT_TX_HOLD
0007ea 30a0      	CPI  R26,LOW(0x0)
0007eb f421      	BRNE _0x121
0007ec 91a0 1bfe 	LDS  R26,_TxEnable
0007ee 30a0      	CPI  R26,LOW(0x0)
0007ef f009      	BREQ _0x122
                 _0x121:
0007f0 c002      	RJMP _0x120
                 _0x122:
                 ; 0000 0191             //memcpy(&TxBuffer[0],&A_TX_DATA[0],sizeof(A_TX_DATA));
                 ; 0000 0192             if(COMM_SET_Position!=phase_a_cnt){
0007f1 940e 2919 	CALL SUBOPT_0x30
                 ; 0000 0193                 //TxEnable = 1;   txcnt = 1;  TxLength = 8;   UDR1 = TxBuffer[0];
                 ; 0000 0194             }
                 ; 0000 0195         }
                 ; 0000 0196 
                 ; 0000 0197         switch(modRunning){
                 _0x120:
0007f3 2dea      	MOV  R30,R10
0007f4 e0f0      	LDI  R31,0
                 ; 0000 0198             case ENCODER_CHK :
0007f5 30e7      	CPI  R30,LOW(0x7)
0007f6 e0a0      	LDI  R26,HIGH(0x7)
0007f7 07fa      	CPC  R31,R26
0007f8 f419      	BRNE _0x127
                 ; 0000 0199                 //while(TxEnable);
                 ; 0000 019A                 memcpy(&TxBuffer[0],&A_TX_DATA[0],sizeof(A_TX_DATA));
0007f9 940e 2947 	CALL SUBOPT_0x34
                 ; 0000 019B                 //if(COMM_SET_Position!=phase_a_cnt){
                 ; 0000 019C                     TxEnable = 1;   txcnt = 1;  TxLength = 8;   UDR1 = TxBuffer[0];
                 ; 0000 019D                 //}
                 ; 0000 019E                 break;
0007fb c37e      	RJMP _0x126
                 ; 0000 019F             case MACHINE_STOP :
                 _0x127:
0007fc 9730      	SBIW R30,0
0007fd f409      	BRNE _0x128
                 ; 0000 01A0                 break;
0007fe c37b      	RJMP _0x126
                 ; 0000 01A1             case NORMAL_RUN :
                 _0x128:
0007ff 30e1      	CPI  R30,LOW(0x1)
000800 e0a0      	LDI  R26,HIGH(0x1)
000801 07fa      	CPC  R31,R26
000802 f009      	BREQ PC+2
000803 c27f      	RJMP _0x129
                 ; 0000 01A2                 // Insert ABN 2020-11-26  [Check Signal]
                 ; 0000 01A3                 if(ABN_PORT == LEVEL_HI && CHK_ABN == LEVEL_LO )
000804 91e0 b000 	LDS  R30,45056
000806 70e1      	ANDI R30,LOW(0x1)
000807 30e1      	CPI  R30,LOW(0x1)
000808 f421      	BRNE _0x12B
000809 91a0 1c6d 	LDS  R26,_CHK_ABN
00080b 30a0      	CPI  R26,LOW(0x0)
00080c f009      	BREQ _0x12C
                 _0x12B:
00080d c00d      	RJMP _0x12A
                 _0x12C:
                 ; 0000 01A4                 {
                 ; 0000 01A5                     GRADE_DATA.abn_S_Count = phase_a_cnt;
                +
00080e eeaa     +LDI R26 , LOW ( _GRADE_DATA + ( 188 ) )
00080f e0bd     +LDI R27 , HIGH ( _GRADE_DATA + ( 188 ) )
                 	__POINTW2MN _GRADE_DATA,188
000810 940e 2967 	CALL SUBOPT_0x35
                 ; 0000 01A6                     CHK_ABN = LEVEL_HI;
000812 e0e1      	LDI  R30,LOW(1)
000813 93e0 1c6d 	STS  _CHK_ABN,R30
                 ; 0000 01A7                     led_buz_value |= LED_EVENT1;
000815 91e0 1c5a 	LDS  R30,_led_buz_value
000817 60e8      	ORI  R30,8
000818 93e0 1c5a 	STS  _led_buz_value,R30
                 ; 0000 01A8                 }
                 ; 0000 01A9                 else if(ABN_PORT == LEVEL_HI)
00081a c021      	RJMP _0x12D
                 _0x12A:
00081b 91e0 b000 	LDS  R30,45056
00081d 70e1      	ANDI R30,LOW(0x1)
00081e 30e1      	CPI  R30,LOW(0x1)
00081f f499      	BRNE _0x12E
                 ; 0000 01AA                 {
                 ; 0000 01AB                     if((MEASURE_INFO.abnCheckSTime + abn_phase_a) <= phase_a_cnt && (MEASURE_INFO.abnCheckETime + abn_ph ...
                +
000820 91e0 0d04+LDS R30 , _MEASURE_INFO + ( 8 )
000822 91f0 0d05+LDS R31 , _MEASURE_INFO + ( 8 ) + 1
                 	__GETW1MN _MEASURE_INFO,8
000824 940e 296d 	CALL SUBOPT_0x36
000826 f028      	BRLO _0x130
000827 940e 2977 	CALL SUBOPT_0x37
000829 940e 296d 	CALL SUBOPT_0x36
00082b f008      	BRLO _0x131
                 _0x130:
00082c c001      	RJMP _0x12F
                 _0x131:
                 ; 0000 01AC                     {
                 ; 0000 01AD                         dotValue++;
00082d 94b3      	INC  R11
                 ; 0000 01AE                     }
                 ; 0000 01AF                     GRADE_DATA.abn_E_Count = phase_a_cnt;
                 _0x12F:
                +
00082e eeae     +LDI R26 , LOW ( _GRADE_DATA + ( 192 ) )
00082f e0bd     +LDI R27 , HIGH ( _GRADE_DATA + ( 192 ) )
                 	__POINTW2MN _GRADE_DATA,192
000830 940e 2967 	CALL SUBOPT_0x35
                 ; 0000 01B0                 }
                 ; 0000 01B1                 else if(ABN_PORT == LEVEL_LO)
000832 c009      	RJMP _0x132
                 _0x12E:
000833 91e0 b000 	LDS  R30,45056
000835 70e1      	ANDI R30,LOW(0x1)
000836 f429      	BRNE _0x133
                 ; 0000 01B2                 {
                 ; 0000 01B3                     led_buz_value &= ~LED_EVENT1;
000837 91e0 1c5a 	LDS  R30,_led_buz_value
000839 7fe7      	ANDI R30,0XF7
00083a 940e 297c 	CALL SUBOPT_0x38
                 ; 0000 01B4                     LED_BUZ = led_buz_value;
                 ; 0000 01B5                 }
                 ; 0000 01B6 
                 ; 0000 01B7                 // Insert ABN 2020-11-26  [Check ABN Bucket]
                 ; 0000 01B8                 if(phase_a_cnt == (MEASURE_INFO.abnCheckETime + abn_phase_a) && dotValue > 0)
                 _0x133:
                 _0x132:
                 _0x12D:
00083c 940e 2977 	CALL SUBOPT_0x37
00083e 91a0 1c6e 	LDS  R26,_abn_phase_a
000840 91b0 1c6f 	LDS  R27,_abn_phase_a+1
000842 0fea      	ADD  R30,R26
000843 1ffb      	ADC  R31,R27
000844 940e 28f4 	CALL SUBOPT_0x2C
000846 17ea      	CP   R30,R26
000847 07fb      	CPC  R31,R27
000848 f419      	BRNE _0x135
000849 e0e0      	LDI  R30,LOW(0)
00084a 15eb      	CP   R30,R11
00084b f008      	BRLO _0x136
                 _0x135:
00084c c0b1      	RJMP _0x134
                 _0x136:
                 ; 0000 01B9                 {
                 ; 0000 01BA                      chkdata = (BucketData[ABN_INFO.AbnBucketNum] >> 8) &0x000F;
00084d 940e 297f 	CALL SUBOPT_0x39
00084f 940e 313f 	CALL __GETW1P
000851 2fef      	MOV  R30,R31
000852 70ef      	ANDI R30,LOW(0xF)
000853 70f0      	ANDI R31,HIGH(0xF)
000854 87ea      	STD  Y+10,R30
000855 87fb      	STD  Y+10+1,R31
                 ; 0000 01BB                      chkdata = chkdata - 1;
000856 9731      	SBIW R30,1
000857 87ea      	STD  Y+10,R30
000858 87fb      	STD  Y+10+1,R31
                 ; 0000 01BC                      //GRADE_DATA.gNumber[g_CRACK] = BucketData[ABN_INFO.AbnBucketNum];
                 ; 0000 01BD                      if( chkdata < MAX_GRADE+1)
000859 85aa      	LDD  R26,Y+10
00085a 85bb      	LDD  R27,Y+10+1
00085b 971a      	SBIW R26,10
00085c f008      	BRLO PC+2
00085d c0a0      	RJMP _0x137
                 ; 0000 01BE                      {
                 ; 0000 01BF                         GRADE_DATA.gNumber[chkdata]--;    //Minus at the same Grade number as the current ABN
                +
00085e e5ae     +LDI R26 , LOW ( _GRADE_DATA + ( 48 ) )
00085f e0bd     +LDI R27 , HIGH ( _GRADE_DATA + ( 48 ) )
                 	__POINTW2MN _GRADE_DATA,48
000860 940e 2986 	CALL SUBOPT_0x3A
000862 940e 298b 	CALL SUBOPT_0x3B
                 ; 0000 01C0                         GRADE_DATA.gNumber[g_ABN]++;      // Plus in the current ABN number
                +
000864 e8a2     +LDI R26 , LOW ( _GRADE_DATA + ( 84 ) )
000865 e0bd     +LDI R27 , HIGH ( _GRADE_DATA + ( 84 ) )
                 	__POINTW2MN _GRADE_DATA,84
000866 940e 2995 	CALL SUBOPT_0x3C
                 ; 0000 01C1                         GRADE_DATA.gWeight[chkdata] = GRADE_DATA.gWeight[chkdata] - BucketData_Wight[ABN_INFO.AbnBucketN ...
                +
000868 e8a6     +LDI R26 , LOW ( _GRADE_DATA + ( 88 ) )
000869 e0bd     +LDI R27 , HIGH ( _GRADE_DATA + ( 88 ) )
                 	__POINTW2MN _GRADE_DATA,88
00086a 940e 2986 	CALL SUBOPT_0x3A
00086c 0fea      	ADD  R30,R26
00086d 1ffb      	ADC  R31,R27
00086e 93ff      	PUSH R31
00086f 93ef      	PUSH R30
                +
000870 e8a6     +LDI R26 , LOW ( _GRADE_DATA + ( 88 ) )
000871 e0bd     +LDI R27 , HIGH ( _GRADE_DATA + ( 88 ) )
                 	__POINTW2MN _GRADE_DATA,88
000872 940e 2986 	CALL SUBOPT_0x3A
000874 940e 299e 	CALL SUBOPT_0x3D
000876 937f      	PUSH R23
000877 936f      	PUSH R22
000878 93ff      	PUSH R31
000879 93ef      	PUSH R30
00087a 940e 29a3 	CALL SUBOPT_0x3E
00087c 91af      	POP  R26
00087d 91bf      	POP  R27
00087e 918f      	POP  R24
00087f 919f      	POP  R25
000880 2766      	CLR  R22
000881 2777      	CLR  R23
000882 940e 3158 	CALL __SWAPD12
000884 940e 3030 	CALL __SUBD12
000886 91af      	POP  R26
000887 91bf      	POP  R27
000888 940e 314e 	CALL __PUTDP1
                 ; 0000 01C2                         GRADE_DATA.gWeight[g_ABN] += BucketData_Wight[ABN_INFO.AbnBucketNum+2]; //  Plus in the current  ...
00088a 940e 29a3 	CALL SUBOPT_0x3E
                +
00088c 91a0 0daa+LDS R26 , _GRADE_DATA + ( 124 )
00088e 91b0 0dab+LDS R27 , _GRADE_DATA + ( 124 ) + 1
000890 9180 0dac+LDS R24 , _GRADE_DATA + ( 124 ) + 2
000892 9190 0dad+LDS R25 , _GRADE_DATA + ( 124 ) + 3
                 	__GETD2MN _GRADE_DATA,124
000894 2766      	CLR  R22
000895 2777      	CLR  R23
000896 940e 302b 	CALL __ADDD12
                +
000898 93e0 0daa+STS _GRADE_DATA + ( 124 ) , R30
00089a 93f0 0dab+STS _GRADE_DATA + ( 124 ) + 1 , R31
00089c 9360 0dac+STS _GRADE_DATA + ( 124 ) + 2 , R22
00089e 9370 0dad+STS _GRADE_DATA + ( 124 ) + 3 , R23
                 	__PUTD1MN _GRADE_DATA,124
                 ; 0000 01C3                         Old_Value = BucketData[ABN_INFO.AbnBucketNum];
0008a0 940e 297f 	CALL SUBOPT_0x39
0008a2 940e 313f 	CALL __GETW1P
0008a4 93e0 1c72 	STS  _Old_Value,R30
0008a6 93f0 1c73 	STS  _Old_Value+1,R31
                 ; 0000 01C4 
                 ; 0000 01C5                         if(GRADE_INFO[chkdata].prttype!=PRT_TYPE_NO)      //ABD  
0008a8 85aa      	LDD  R26,Y+10
0008a9 85bb      	LDD  R27,Y+10+1
0008aa 940e 29ae 	CALL SUBOPT_0x3F
0008ac 81e0      	LD   R30,Z
0008ad 30e0      	CPI  R30,0
0008ae f099      	BREQ _0x138
                 ; 0000 01C6                         {
                 ; 0000 01C7                                 GRADE_INFO[chkdata].prtOutCount--;
0008af 85aa      	LDD  R26,Y+10
0008b0 85bb      	LDD  R27,Y+10+1
0008b1 e0ea      	LDI  R30,LOW(10)
0008b2 940e 30a4 	CALL __MULB1W2U
                +
0008b4 54e8     +SUBI R30 , LOW ( - _GRADE_INFO - ( 8 ) )
0008b5 4ff5     +SBCI R31 , HIGH ( - _GRADE_INFO - ( 8 ) )
                 	__ADDW1MN _GRADE_INFO,8
0008b6 01df      	MOVW R26,R30
0008b7 91ed      	LD   R30,X+
0008b8 91fd      	LD   R31,X+
0008b9 9731      	SBIW R30,1
0008ba 93fe      	ST   -X,R31
0008bb 93ee      	ST   -X,R30
                 ; 0000 01C8                                 GRADE_DATA.pNumber[chkdata]--;
                +
0008bc eaae     +LDI R26 , LOW ( _GRADE_DATA + ( 128 ) )
0008bd e0bd     +LDI R27 , HIGH ( _GRADE_DATA + ( 128 ) )
                 	__POINTW2MN _GRADE_DATA,128
0008be 940e 2986 	CALL SUBOPT_0x3A
0008c0 940e 298b 	CALL SUBOPT_0x3B
                 ; 0000 01C9                         }
                 ; 0000 01CA                         for(lcnt = ABN_INFO.AbnBucketNum-1; lcnt > 0 ; lcnt--)  //ABN    
                 _0x138:
0008c2 91e0 0d2c 	LDS  R30,_ABN_INFO
0008c4 91f0 0d2d 	LDS  R31,_ABN_INFO+1
0008c6 9731      	SBIW R30,1
0008c7 018f      	MOVW R16,R30
                 _0x13A:
0008c8 2400      	CLR  R0
0008c9 1600      	CP   R0,R16
0008ca 0601      	CPC  R0,R17
0008cb f570      	BRSH _0x13B
                 ; 0000 01CB                         {
                 ; 0000 01CC                             chkdata_new =((BucketData[lcnt] >> 8)&0x000F);
0008cc 940e 29b4 	CALL SUBOPT_0x40
0008ce 940e 313f 	CALL __GETW1P
0008d0 2fef      	MOV  R30,R31
0008d1 70ef      	ANDI R30,LOW(0xF)
0008d2 70f0      	ANDI R31,HIGH(0xF)
0008d3 87e8      	STD  Y+8,R30
0008d4 87f9      	STD  Y+8+1,R31
                 ; 0000 01CD                             chkdata_new = chkdata_new -1;
0008d5 9731      	SBIW R30,1
0008d6 87e8      	STD  Y+8,R30
0008d7 87f9      	STD  Y+8+1,R31
                 ; 0000 01CE 							if(chkdata_new == chkdata)
0008d8 85ea      	LDD  R30,Y+10
0008d9 85fb      	LDD  R31,Y+10+1
0008da 85a8      	LDD  R26,Y+8
0008db 85b9      	LDD  R27,Y+8+1
0008dc 17ea      	CP   R30,R26
0008dd 07fb      	CPC  R31,R27
0008de f4c1      	BRNE _0x13C
                 ; 0000 01CF                             {
                 ; 0000 01D0                                 New_Value = BucketData[lcnt];
0008df 940e 29b4 	CALL SUBOPT_0x40
0008e1 940e 313f 	CALL __GETW1P
0008e3 93e0 1c74 	STS  _New_Value,R30
0008e5 93f0 1c75 	STS  _New_Value+1,R31
                 ; 0000 01D1                                 BucketData[lcnt] = Old_Value;
0008e7 940e 29b8 	CALL SUBOPT_0x41
0008e9 91a0 1c72 	LDS  R26,_Old_Value
0008eb 91b0 1c73 	LDS  R27,_Old_Value+1
0008ed 83a0      	STD  Z+0,R26
0008ee 83b1      	STD  Z+1,R27
                 ; 0000 01D2                                 Old_Value =  New_Value;
0008ef 91e0 1c74 	LDS  R30,_New_Value
0008f1 91f0 1c75 	LDS  R31,_New_Value+1
0008f3 93e0 1c72 	STS  _Old_Value,R30
0008f5 93f0 1c73 	STS  _Old_Value+1,R31
                 ; 0000 01D3                            }
                 ; 0000 01D4                         }
                 _0x13C:
                +
0008f7 5001     +SUBI R16 , LOW ( 1 )
0008f8 4010     +SBCI R17 , HIGH ( 1 )
                 	__SUBWRN 16,17,1
0008f9 cfce      	RJMP _0x13A
                 _0x13B:
                 ; 0000 01D5                         BucketData[ABN_INFO.AbnBucketNum] = 0;  //   
0008fa 940e 297f 	CALL SUBOPT_0x39
0008fc 940e 29c0 	CALL SUBOPT_0x42
                 ; 0000 01D6                      }
                 ; 0000 01D7                 }
                 _0x137:
                 ; 0000 01D8 
                 ; 0000 01D9                 //     AD, 
                 ; 0000 01DA                 //                       , 
                 ; 0000 01DB                 //
                 ; 0000 01DC 
                 ; 0000 01DD                 //-3.3.4
                 ; 0000 01DE                 if(MEASURE_INFO.ad_start_pulse <= phase_a_cnt&& phase_a_cnt < weight_ad_end_pulse ){
                 _0x134:
0008fe 940e 2919 	CALL SUBOPT_0x30
000900 940e 29c5 	CALL SUBOPT_0x43
000902 17ea      	CP   R30,R26
000903 07fb      	CPC  R31,R27
000904 f038      	BRLO _0x13E
000905 91e0 0f0e 	LDS  R30,_weight_ad_end_pulse
000907 91f0 0f0f 	LDS  R31,_weight_ad_end_pulse+1
000909 940e 29ca 	CALL SUBOPT_0x44
00090b f008      	BRLO _0x13F
                 _0x13E:
00090c c02a      	RJMP _0x13D
                 _0x13F:
                 ; 0000 01DF                     //         
                 ; 0000 01E0                     //  || 1pulse 6channel
                 ; 0000 01E1                     for(lcnt=0;lcnt<MAX_LDCELL;lcnt++){
                +
00090d e000     +LDI R16 , LOW ( 0 )
00090e e010     +LDI R17 , HIGH ( 0 )
                 	__GETWRN 16,17,0
                 _0x141:
                +
00090f 3006     +CPI R16 , LOW ( 6 )
000910 e0e0     +LDI R30 , HIGH ( 6 )
000911 071e     +CPC R17 , R30
                 	__CPWRN 16,17,6
000912 f4f0      	BRSH _0x142
                 ; 0000 01E2                         rawdata = RD_ADC(lcnt);
000913 2fa0      	MOV  R26,R16
000914 940e 0365 	CALL _RD_ADC
000916 87ec      	STD  Y+12,R30
000917 87fd      	STD  Y+12+1,R31
                 ; 0000 01E3                         voltData[lcnt][weight_ad_cnt] = ((long)rawdata*763)/10000;
                +
000918 e2a8     +LDI R26 , 40
000919 9fa0     +MUL R26 , R16
00091a 01f0     +MOVW R30 , R0
00091b 9fa1     +MUL R26 , R17
00091c 0df0     +ADD R31 , R0
                 	__MULBNWRU 16,17,40
00091d 55e6      	SUBI R30,LOW(-_voltData)
00091e 4ef1      	SBCI R31,HIGH(-_voltData)
00091f 01df      	MOVW R26,R30
000920 91e0 1e9a 	LDS  R30,_weight_ad_cnt
000922 940e 280f 	CALL SUBOPT_0xA
000924 93ff      	PUSH R31
000925 93ef      	PUSH R30
000926 85ac      	LDD  R26,Y+12
000927 85bd      	LDD  R27,Y+12+1
000928 940e 29ce 	CALL SUBOPT_0x45
00092a 91af      	POP  R26
00092b 91bf      	POP  R27
00092c 93ed      	ST   X+,R30
00092d 93fc      	ST   X,R31
                 ; 0000 01E4                     }
                +
00092e 5f0f     +SUBI R16 , LOW ( - 1 )
00092f 4f1f     +SBCI R17 , HIGH ( - 1 )
                 	__ADDWRN 16,17,1
000930 cfde      	RJMP _0x141
                 _0x142:
                 ; 0000 01E5                     weight_ad_cnt++;
000931 91e0 1e9a 	LDS  R30,_weight_ad_cnt
000933 5fef      	SUBI R30,-LOW(1)
000934 93e0 1e9a 	STS  _weight_ad_cnt,R30
                 ; 0000 01E6                 }
                 ; 0000 01E7                 else if(weight_ad_end_pulse <= phase_a_cnt && phase_a_cnt < correct_data_end_pulse){
000936 c032      	RJMP _0x143
                 _0x13D:
000937 940e 2919 	CALL SUBOPT_0x30
000939 91a0 0f0e 	LDS  R26,_weight_ad_end_pulse
00093b 91b0 0f0f 	LDS  R27,_weight_ad_end_pulse+1
00093d 17ea      	CP   R30,R26
00093e 07fb      	CPC  R31,R27
00093f f038      	BRLO _0x145
000940 91e0 1ea8 	LDS  R30,_correct_data_end_pulse
000942 91f0 1ea9 	LDS  R31,_correct_data_end_pulse+1
000944 940e 29ca 	CALL SUBOPT_0x44
000946 f008      	BRLO _0x146
                 _0x145:
000947 c00b      	RJMP _0x144
                 _0x146:
                 ; 0000 01E8                     //  raw , ,   
                 ; 0000 01E9                     cal_cnt = phase_a_cnt - weight_ad_end_pulse;
000948 91a0 0f0e 	LDS  R26,_weight_ad_end_pulse
00094a 940e 29df 	CALL SUBOPT_0x46
                 ; 0000 01EA                     CorrectionData(cal_cnt);
00094c d467      	RCALL _CorrectionData
                 ; 0000 01EB                     if(cal_cnt>=5) weight_ad_cnt=0;
00094d 3055      	CPI  R21,5
00094e f018      	BRLO _0x147
00094f e0e0      	LDI  R30,LOW(0)
000950 93e0 1e9a 	STS  _weight_ad_cnt,R30
                 ; 0000 01EC                 }
                 _0x147:
                 ; 0000 01ED                 else if(ConvertPosition <=phase_a_cnt && phase_a_cnt < convert_end_pulse){
000952 c016      	RJMP _0x148
                 _0x144:
000953 940e 2919 	CALL SUBOPT_0x30
000955 91a0 0f16 	LDS  R26,_ConvertPosition
000957 91b0 0f17 	LDS  R27,_ConvertPosition+1
000959 17ea      	CP   R30,R26
00095a 07fb      	CPC  R31,R27
00095b f038      	BRLO _0x14A
00095c 91e0 0f18 	LDS  R30,_convert_end_pulse
00095e 91f0 0f19 	LDS  R31,_convert_end_pulse+1
000960 940e 29ca 	CALL SUBOPT_0x44
000962 f008      	BRLO _0x14B
                 _0x14A:
000963 c005      	RJMP _0x149
                 _0x14B:
                 ; 0000 01EE                     //   
                 ; 0000 01EF                     cal_cnt = phase_a_cnt - ConvertPosition;
000964 91a0 0f16 	LDS  R26,_ConvertPosition
000966 940e 29df 	CALL SUBOPT_0x46
                 ; 0000 01F0                     /*
                 ; 0000 01F1                     //UDR1 =cal_cnt;            while(!(UCSR1A & 0x20));
                 ; 0000 01F2                     //UDR1 =zero_value[cal_cnt]>>8;            while(!(UCSR1A & 0x20));
                 ; 0000 01F3                     //UDR1 =zero_value[cal_cnt];            while(!(UCSR1A & 0x20));
                 ; 0000 01F4                     //UDR1 =0xCC;            while(!(UCSR1A & 0x20));
                 ; 0000 01F5 
                 ; 0000 01F6                     if(cal_cnt>=5) {
                 ; 0000 01F7                         zero_ad_cnt=0;
                 ; 0000 01F8                         UDR1 =0xCF;            while(!(UCSR1A & 0x20));
                 ; 0000 01F9                     }
                 ; 0000 01FA                     */
                 ; 0000 01FB                     ConvertWeight(cal_cnt);
000968 d4be      	RCALL _ConvertWeight
                 ; 0000 01FC                 }
                 ; 0000 01FD                 //  
                 ; 0000 01FE                 if(MEASURE_INFO.zeroposition <= phase_a_cnt && phase_a_cnt < zero_ad_end_pulse){
                 _0x149:
                 _0x148:
                 _0x143:
                +
000969 91a0 0d00+LDS R26 , _MEASURE_INFO + ( 4 )
00096b 91b0 0d01+LDS R27 , _MEASURE_INFO + ( 4 ) + 1
                 	__GETW2MN _MEASURE_INFO,4
00096d 940e 2919 	CALL SUBOPT_0x30
00096f 17ea      	CP   R30,R26
000970 07fb      	CPC  R31,R27
000971 f038      	BRLO _0x14D
000972 91e0 0f12 	LDS  R30,_zero_ad_end_pulse
000974 91f0 0f13 	LDS  R31,_zero_ad_end_pulse+1
000976 940e 29ca 	CALL SUBOPT_0x44
000978 f008      	BRLO _0x14E
                 _0x14D:
000979 c02a      	RJMP _0x14C
                 _0x14E:
                 ; 0000 01FF                     //         
                 ; 0000 0200                     //   || 1pulse 6channel
                 ; 0000 0201                     for(lcnt=0;lcnt<MAX_LDCELL;lcnt++){
                +
00097a e000     +LDI R16 , LOW ( 0 )
00097b e010     +LDI R17 , HIGH ( 0 )
                 	__GETWRN 16,17,0
                 _0x150:
                +
00097c 3006     +CPI R16 , LOW ( 6 )
00097d e0e0     +LDI R30 , HIGH ( 6 )
00097e 071e     +CPC R17 , R30
                 	__CPWRN 16,17,6
00097f f500      	BRSH _0x151
                 ; 0000 0202                         zero_measure_value[lcnt] += (long)RD_ADC(lcnt);
000980 01f8      	MOVW R30,R16
000981 e1a0      	LDI  R26,LOW(_zero_measure_value)
000982 e1b4      	LDI  R27,HIGH(_zero_measure_value)
000983 940e 29e5 	CALL SUBOPT_0x47
000985 93ff      	PUSH R31
000986 93ef      	PUSH R30
000987 01df      	MOVW R26,R30
000988 940e 3143 	CALL __GETD1P
00098a 937f      	PUSH R23
00098b 936f      	PUSH R22
00098c 93ff      	PUSH R31
00098d 93ef      	PUSH R30
00098e 2fa0      	MOV  R26,R16
00098f 940e 0365 	CALL _RD_ADC
000991 2766      	CLR  R22
000992 2777      	CLR  R23
000993 91af      	POP  R26
000994 91bf      	POP  R27
000995 918f      	POP  R24
000996 919f      	POP  R25
000997 940e 302b 	CALL __ADDD12
000999 91af      	POP  R26
00099a 91bf      	POP  R27
00099b 940e 314e 	CALL __PUTDP1
                 ; 0000 0203                     }
                +
00099d 5f0f     +SUBI R16 , LOW ( - 1 )
00099e 4f1f     +SBCI R17 , HIGH ( - 1 )
                 	__ADDWRN 16,17,1
00099f cfdc      	RJMP _0x150
                 _0x151:
                 ; 0000 0204                     zero_ad_cnt++;
0009a0 91e0 1e9b 	LDS  R30,_zero_ad_cnt
0009a2 5fef      	SUBI R30,-LOW(1)
0009a3 c041      	RJMP _0x4BE
                 ; 0000 0205 
                 ; 0000 0206                 }
                 ; 0000 0207                 else if(zero_ad_end_pulse <= phase_a_cnt && phase_a_cnt < zero_cal_end_pulse){
                 _0x14C:
0009a4 940e 2919 	CALL SUBOPT_0x30
0009a6 91a0 0f12 	LDS  R26,_zero_ad_end_pulse
0009a8 91b0 0f13 	LDS  R27,_zero_ad_end_pulse+1
0009aa 17ea      	CP   R30,R26
0009ab 07fb      	CPC  R31,R27
0009ac f038      	BRLO _0x154
0009ad 91e0 0f14 	LDS  R30,_zero_cal_end_pulse
0009af 91f0 0f15 	LDS  R31,_zero_cal_end_pulse+1
0009b1 940e 29ca 	CALL SUBOPT_0x44
0009b3 f008      	BRLO _0x155
                 _0x154:
0009b4 c032      	RJMP _0x153
                 _0x155:
                 ; 0000 0208                     //         6   
                 ; 0000 0209                     //  || 1pulse 1channel average calculate
                 ; 0000 020A                     cal_cnt = phase_a_cnt - zero_ad_end_pulse;
0009b5 91a0 0f12 	LDS  R26,_zero_ad_end_pulse
0009b7 91e0 0ee2 	LDS  R30,_phase_a_cnt
0009b9 1bea      	SUB  R30,R26
0009ba 2f5e      	MOV  R21,R30
                 ; 0000 020B                     //
                 ; 0000 020C                     //zero_measure_value[cal_cnt] /= ZeroMeasurePulse;
                 ; 0000 020D                     zero_measure_value[cal_cnt] /= zero_ad_cnt;
0009bb 940e 29ea 	CALL SUBOPT_0x48
0009bd 940e 29e5 	CALL SUBOPT_0x47
0009bf 93ff      	PUSH R31
0009c0 93ef      	PUSH R30
0009c1 01df      	MOVW R26,R30
0009c2 940e 3143 	CALL __GETD1P
0009c4 01df      	MOVW R26,R30
0009c5 01cb      	MOVW R24,R22
0009c6 91e0 1e9b 	LDS  R30,_zero_ad_cnt
0009c8 e0f0      	LDI  R31,0
0009c9 940e 29ef 	CALL SUBOPT_0x49
0009cb 91af      	POP  R26
0009cc 91bf      	POP  R27
0009cd 940e 314e 	CALL __PUTDP1
                 ; 0000 020E                     //Digit to Voltage
                 ; 0000 020F                     zero_value[cal_cnt] = (zero_measure_value[cal_cnt]* 763)/10000;
0009cf 2fe5      	MOV  R30,R21
0009d0 940e 29f4 	CALL SUBOPT_0x4A
0009d2 93ff      	PUSH R31
0009d3 93ef      	PUSH R30
0009d4 940e 29ea 	CALL SUBOPT_0x48
0009d6 940e 29f7 	CALL SUBOPT_0x4B
0009d8 940e 29fa 	CALL SUBOPT_0x4C
0009da 91af      	POP  R26
0009db 91bf      	POP  R27
0009dc 93ed      	ST   X+,R30
0009dd 93fc      	ST   X,R31
                 ; 0000 0210                     zero_measure_value[cal_cnt] = 0;
0009de 940e 29ea 	CALL SUBOPT_0x48
0009e0 940e 2a09 	CALL SUBOPT_0x4D
                 ; 0000 0211                     //UDR1 =zero_value[cal_cnt]>>8;            while(!(UCSR1A & 0x20));
                 ; 0000 0212                     //UDR1 =zero_value[cal_cnt];            while(!(UCSR1A & 0x20));
                 ; 0000 0213                     //UDR1 =0xEE;            while(!(UCSR1A & 0x20));
                 ; 0000 0214 
                 ; 0000 0215                     if(cal_cnt>=5) {
0009e2 3055      	CPI  R21,5
0009e3 f018      	BRLO _0x156
                 ; 0000 0216                         zero_ad_cnt=0;
0009e4 e0e0      	LDI  R30,LOW(0)
                 _0x4BE:
0009e5 93e0 1e9b 	STS  _zero_ad_cnt,R30
                 ; 0000 0217                         //UDR1 =0xEF;            while(!(UCSR1A & 0x20));
                 ; 0000 0218                     }
                 ; 0000 0219                 }
                 _0x156:
                 ; 0000 021A 
                 ; 0000 021B                 if(COMM_SET_Position==phase_a_cnt){
                 _0x153:
0009e7 940e 2919 	CALL SUBOPT_0x30
0009e9 91a0 0f1e 	LDS  R26,_COMM_SET_Position
0009eb 91b0 0f1f 	LDS  R27,_COMM_SET_Position+1
0009ed 17ea      	CP   R30,R26
0009ee 07fb      	CPC  R31,R27
0009ef f449      	BRNE _0x157
                 ; 0000 021C                     //       
                 ; 0000 021D                     A_CNT_TX_HOLD=1;
0009f0 e0e1      	LDI  R30,LOW(1)
0009f1 93e0 1c0c 	STS  _A_CNT_TX_HOLD,R30
                 ; 0000 021E                     if(debugMode==0){
0009f3 91e0 1faa 	LDS  R30,_debugMode
0009f5 30e0      	CPI  R30,0
0009f6 f411      	BRNE _0x158
                 ; 0000 021F                        COMM_TX_SET();
0009f7 940e 1380 	CALL _COMM_TX_SET
                 ; 0000 0220                     }
                 ; 0000 0221                 }
                 _0x158:
                 ; 0000 0222 
                 ; 0000 0223                 if(GradingPosition <= phase_a_cnt && phase_a_cnt < grading_end_pulse){
                 _0x157:
0009f9 940e 2a14 	CALL SUBOPT_0x4E
0009fb f018      	BRLO _0x15A
0009fc 940e 2a1c 	CALL SUBOPT_0x4F
0009fe f008      	BRLO _0x15B
                 _0x15A:
0009ff c005      	RJMP _0x159
                 _0x15B:
                 ; 0000 0224                     cal_cnt = phase_a_cnt - GradingPosition;
000a00 91a0 0f20 	LDS  R26,_GradingPosition
000a02 940e 29df 	CALL SUBOPT_0x46
                 ; 0000 0225                     WeightGrading(cal_cnt);
000a04 d4dd      	RCALL _WeightGrading
                 ; 0000 0226                 }
                 ; 0000 0227 
                 ; 0000 0228 
                 ; 0000 0229                 //if(MEASURE_INFO.crackchecktime  <=phase_a_cnt && phase_a_cnt < crackchk_end_pulse){
                 ; 0000 022A                 if(MEASURE_INFO.crackchecktime <=phase_a_cnt && phase_a_cnt < crackchk_end_pulse ){
                 _0x159:
                +
000a05 91a0 0d02+LDS R26 , _MEASURE_INFO + ( 6 )
000a07 91b0 0d03+LDS R27 , _MEASURE_INFO + ( 6 ) + 1
                 	__GETW2MN _MEASURE_INFO,6
000a09 940e 2919 	CALL SUBOPT_0x30
000a0b 17ea      	CP   R30,R26
000a0c 07fb      	CPC  R31,R27
000a0d f038      	BRLO _0x15D
000a0e 91e0 0f1c 	LDS  R30,_crackchk_end_pulse
000a10 91f0 0f1d 	LDS  R31,_crackchk_end_pulse+1
000a12 940e 29ca 	CALL SUBOPT_0x44
000a14 f008      	BRLO _0x15E
                 _0x15D:
000a15 c06a      	RJMP _0x15C
                 _0x15E:
                 ; 0000 022B                     if(Crack_Dot_Chk_Enable==1){//,   
000a16 91a0 1e99 	LDS  R26,_Crack_Dot_Chk_Enable
000a18 30a1      	CPI  R26,LOW(0x1)
000a19 f009      	BREQ PC+2
000a1a c065      	RJMP _0x15F
                 ; 0000 022C                         crackValue = EDI_CH0;
000a1b 90c0 a000 	LDS  R12,40960
                 ; 0000 022D                         //dotValue = EDI_CH1;
                 ; 0000 022E 
                 ; 0000 022F 
                 ; 0000 0230 
                 ; 0000 0231                         for(lcnt=0;lcnt<6;lcnt++){
                +
000a1d e000     +LDI R16 , LOW ( 0 )
000a1e e010     +LDI R17 , HIGH ( 0 )
                 	__GETWRN 16,17,0
                 _0x161:
                +
000a1f 3006     +CPI R16 , LOW ( 6 )
000a20 e0e0     +LDI R30 , HIGH ( 6 )
000a21 071e     +CPC R17 , R30
                 	__CPWRN 16,17,6
000a22 f480      	BRSH _0x162
                 ; 0000 0232                             crack_dot_ch = 0x01 << lcnt;
000a23 2fe0      	MOV  R30,R16
000a24 940e 2a21 	CALL SUBOPT_0x50
                 ; 0000 0233                             if((crackValue & crack_dot_ch)==crack_dot_ch){ //  crack 
000a26 85ae      	LDD  R26,Y+14
000a27 21ac      	AND  R26,R12
000a28 85ee      	LDD  R30,Y+14
000a29 17ea      	CP   R30,R26
000a2a f429      	BRNE _0x163
                 ; 0000 0234                                 crackCHKCNT[lcnt]++;
000a2b 940e 2a26 	CALL SUBOPT_0x51
000a2d 91ec      	LD   R30,X
000a2e 5fef      	SUBI R30,-LOW(1)
000a2f 93ec      	ST   X,R30
                 ; 0000 0235                             }
                 ; 0000 0236                             //   
                 ; 0000 0237                             /*if((dotValue & crack_dot_ch)==crack_dot_ch){ //  crack 
                 ; 0000 0238                                 dotCHKCNT[lcnt]++;
                 ; 0000 0239                             }*/
                 ; 0000 023A                             //dotCHKCNT[lcnt] = 0;
                 ; 0000 023B                         }
                 _0x163:
                +
000a30 5f0f     +SUBI R16 , LOW ( - 1 )
000a31 4f1f     +SBCI R17 , HIGH ( - 1 )
                 	__ADDWRN 16,17,1
000a32 cfec      	RJMP _0x161
                 _0x162:
                 ; 0000 023C 
                 ; 0000 023D                         if(phase_a_cnt == (crackchk_end_pulse-1)){
000a33 91e0 0f1c 	LDS  R30,_crackchk_end_pulse
000a35 91f0 0f1d 	LDS  R31,_crackchk_end_pulse+1
000a37 9731      	SBIW R30,1
000a38 940e 28f4 	CALL SUBOPT_0x2C
000a3a 17ea      	CP   R30,R26
000a3b 07fb      	CPC  R31,R27
000a3c f009      	BREQ PC+2
000a3d c042      	RJMP _0x164
                 ; 0000 023E                             for(lcnt=0;lcnt<6;lcnt++){
                +
000a3e e000     +LDI R16 , LOW ( 0 )
000a3f e010     +LDI R17 , HIGH ( 0 )
                 	__GETWRN 16,17,0
                 _0x166:
                +
000a40 3006     +CPI R16 , LOW ( 6 )
000a41 e0e0     +LDI R30 , HIGH ( 6 )
000a42 071e     +CPC R17 , R30
                 	__CPWRN 16,17,6
000a43 f5e0      	BRSH _0x167
                 ; 0000 023F                                 crack_dot_ch = 0x01 << lcnt;
000a44 2fe0      	MOV  R30,R16
000a45 940e 2a21 	CALL SUBOPT_0x50
                 ; 0000 0240                                 if(debugMode==3){
                 ; 0000 0241                                     //UDR1 =0xFC;            while(!(UCSR1A & 0x20));
                 ; 0000 0242                                 }
                 ; 0000 0243                                 // acd
                 ; 0000 0244                                 if(crackCHKCNT[lcnt] > 10){
000a47 940e 2a26 	CALL SUBOPT_0x51
000a49 91ac      	LD   R26,X
000a4a 30ab      	CPI  R26,LOW(0xB)
000a4b f0b8      	BRLO _0x169
                 ; 0000 0245                                     ACD_DATA_BUF[0] |= (0x01<<lcnt);
000a4c 2fe0      	MOV  R30,R16
000a4d 940e 2a2b 	CALL SUBOPT_0x52
                 ; 0000 0246                                     if(debugMode==3){
000a4f 91a0 1faa 	LDS  R26,_debugMode
000a51 30a3      	CPI  R26,LOW(0x3)
000a52 f479      	BRNE _0x16A
                 ; 0000 0247                                         UDR1 =ACD_DATA_BUF[0];            while(!(UCSR1A & 0x20));
000a53 91e0 1fac 	LDS  R30,_ACD_DATA_BUF
000a55 93e0 00ce 	STS  206,R30
                 _0x16B:
000a57 91e0 00c8 	LDS  R30,200
000a59 72e0      	ANDI R30,LOW(0x20)
000a5a f3e1      	BREQ _0x16B
                 ; 0000 0248                                         UDR1 =0xFA;            while(!(UCSR1A & 0x20));
000a5b efea      	LDI  R30,LOW(250)
000a5c 93e0 00ce 	STS  206,R30
                 _0x16E:
000a5e 91e0 00c8 	LDS  R30,200
000a60 72e0      	ANDI R30,LOW(0x20)
000a61 f3e1      	BREQ _0x16E
                 ; 0000 0249                                     }
                 ; 0000 024A                                     crackCHKCNT[lcnt] = 0;
                 _0x16A:
000a62 c014      	RJMP _0x4BF
                 ; 0000 024B                                 }
                 ; 0000 024C                                 else{
                 _0x169:
                 ; 0000 024D 
                 ; 0000 024E                                     if(debugMode==3){
000a63 91a0 1faa 	LDS  R26,_debugMode
000a65 30a3      	CPI  R26,LOW(0x3)
000a66 f481      	BRNE _0x172
                 ; 0000 024F                                         UDR1 =crackCHKCNT[lcnt];            while(!(UCSR1A & 0x20));
000a67 940e 2a26 	CALL SUBOPT_0x51
000a69 91ec      	LD   R30,X
000a6a 93e0 00ce 	STS  206,R30
                 _0x173:
000a6c 91e0 00c8 	LDS  R30,200
000a6e 72e0      	ANDI R30,LOW(0x20)
000a6f f3e1      	BREQ _0x173
                 ; 0000 0250                                         UDR1 =0xFD;            while(!(UCSR1A & 0x20));
000a70 efed      	LDI  R30,LOW(253)
000a71 93e0 00ce 	STS  206,R30
                 _0x176:
000a73 91e0 00c8 	LDS  R30,200
000a75 72e0      	ANDI R30,LOW(0x20)
000a76 f3e1      	BREQ _0x176
                 ; 0000 0251                                     }
                 ; 0000 0252                                     crackCHKCNT[lcnt] = 0;
                 _0x172:
                 _0x4BF:
000a77 efa2      	LDI  R26,LOW(_crackCHKCNT)
000a78 e0bd      	LDI  R27,HIGH(_crackCHKCNT)
000a79 0fa0      	ADD  R26,R16
000a7a 1fb1      	ADC  R27,R17
000a7b e0e0      	LDI  R30,LOW(0)
000a7c 93ec      	ST   X,R30
                 ; 0000 0253                                 }
                 ; 0000 0254                             }
                +
000a7d 5f0f     +SUBI R16 , LOW ( - 1 )
000a7e 4f1f     +SBCI R17 , HIGH ( - 1 )
                 	__ADDWRN 16,17,1
000a7f cfc0      	RJMP _0x166
                 _0x167:
                 ; 0000 0255                         }
                 ; 0000 0256                     }
                 _0x164:
                 ; 0000 0257                 }
                 _0x15F:
                 ; 0000 0258 
                 ; 0000 0259                 //   
                 ; 0000 025A                 SolenoidRunning();
                 _0x15C:
000a80 940e 13b4 	CALL _SolenoidRunning
                 ; 0000 025B                 break;
000a82 c0f7      	RJMP _0x126
                 ; 0000 025C             case MEASURE_AD :
                 _0x129:
000a83 30e2      	CPI  R30,LOW(0x2)
000a84 e0a0      	LDI  R26,HIGH(0x2)
000a85 07fa      	CPC  R31,R26
000a86 f009      	BREQ PC+2
000a87 c0e0      	RJMP _0x179
                 ; 0000 025D                 if(ScanEnable==1 && phase_z_cnt>=1){
000a88 e0e1      	LDI  R30,LOW(1)
000a89 15e9      	CP   R30,R9
000a8a f419      	BRNE _0x17B
000a8b 940e 28f9 	CALL SUBOPT_0x2D
000a8d f40c      	BRGE _0x17C
                 _0x17B:
000a8e c0cb      	RJMP _0x17A
                 _0x17C:
                 ; 0000 025E                     //UDR1 = 0xEA;     while(!(UCSR1A & 0x20));
                 ; 0000 025F                     ad_full_scan[phase_a_cnt] = RD_ADC(scan_ad_ch);
000a8f 940e 2a34 	CALL SUBOPT_0x53
000a91 93ff      	PUSH R31
000a92 93ef      	PUSH R30
000a93 2dae      	MOV  R26,R14
000a94 940e 0365 	CALL _RD_ADC
000a96 91af      	POP  R26
000a97 91bf      	POP  R27
000a98 93ed      	ST   X+,R30
000a99 93fc      	ST   X,R31
                 ; 0000 0260                     ad_full_scan[phase_a_cnt] = (long)ad_full_scan[phase_a_cnt]*763/10000;
000a9a 940e 2a34 	CALL SUBOPT_0x53
000a9c 93ff      	PUSH R31
000a9d 93ef      	PUSH R30
000a9e 940e 2a3c 	CALL SUBOPT_0x54
000aa0 940e 2a40 	CALL SUBOPT_0x55
000aa2 940e 29fa 	CALL SUBOPT_0x4C
000aa4 91af      	POP  R26
000aa5 91bf      	POP  R27
000aa6 93ed      	ST   X+,R30
000aa7 93fc      	ST   X,R31
                 ; 0000 0261 
                 ; 0000 0262                     //ad_full_scan   
                 ; 0000 0263                     if(ad_full_scan[phase_a_cnt] > max_scan_val)   max_scan_val = ad_full_scan[phase_a_cnt];
000aa8 940e 2a3c 	CALL SUBOPT_0x54
000aaa 940e 313f 	CALL __GETW1P
000aac 01df      	MOVW R26,R30
000aad 91e0 0ee4 	LDS  R30,_max_scan_val
000aaf 91f0 0ee5 	LDS  R31,_max_scan_val+1
000ab1 17ea      	CP   R30,R26
000ab2 07fb      	CPC  R31,R27
000ab3 f440      	BRSH _0x17D
000ab4 940e 2a3c 	CALL SUBOPT_0x54
000ab6 940e 313f 	CALL __GETW1P
000ab8 93e0 0ee4 	STS  _max_scan_val,R30
000aba 93f0 0ee5 	STS  _max_scan_val+1,R31
                 ; 0000 0264 
                 ; 0000 0265                     //   :: 0000 0000 0000 0000
                 ; 0000 0266                     //                    1000 0000 0000 0000 :: 
                 ; 0000 0267                     //                    0100 0000 0000 0000 ::  
                 ; 0000 0268                     crack_dot_ch = 0x01 << scan_ad_ch;
                 _0x17D:
000abc 2dee      	MOV  R30,R14
000abd 940e 2a21 	CALL SUBOPT_0x50
                 ; 0000 0269                     crackValue = EDI_CH0;
000abf 90c0 a000 	LDS  R12,40960
                 ; 0000 026A                     if((crackValue & crack_dot_ch) == crack_dot_ch){
000ac1 85ae      	LDD  R26,Y+14
000ac2 21ac      	AND  R26,R12
000ac3 85ee      	LDD  R30,Y+14
000ac4 17ea      	CP   R30,R26
000ac5 f431      	BRNE _0x17E
                 ; 0000 026B                         ACD_DATA_BUF[0] |= (0x01<<crack_dot_ch);
000ac6 940e 2a2b 	CALL SUBOPT_0x52
                 ; 0000 026C                         crackCHKCNT[lcnt] = 0;
000ac8 940e 2a26 	CALL SUBOPT_0x51
000aca e0e0      	LDI  R30,LOW(0)
000acb 93ec      	ST   X,R30
                 ; 0000 026D                     }
                 ; 0000 026E 
                 ; 0000 026F                     if(((ACD_DATA_BUF[SYS_INFO.ACD_CHK_POS]>>scan_ad_ch) & 0x01)==0x01){  ad_full_scan[phase_a_cnt] |= 0 ...
                 _0x17E:
000acc 940e 2a45 	CALL SUBOPT_0x56
000ace e0b0      	LDI  R27,0
000acf 2dee      	MOV  R30,R14
000ad0 940e 3056 	CALL __ASRW12
000ad2 70e1      	ANDI R30,LOW(0x1)
000ad3 30e1      	CPI  R30,LOW(0x1)
000ad4 f439      	BRNE _0x17F
000ad5 940e 2a3c 	CALL SUBOPT_0x54
000ad7 91ed      	LD   R30,X+
000ad8 91fd      	LD   R31,X+
000ad9 68f0      	ORI  R31,HIGH(0x8000)
000ada 93fe      	ST   -X,R31
000adb 93ee      	ST   -X,R30
                 ; 0000 0270 
                 ; 0000 0271 
                 ; 0000 0272 
                 ; 0000 0273                     //dotValue = EDI_CH1;
                 ; 0000 0274                     if((dotValue & crack_dot_ch) == crack_dot_ch){
                 _0x17F:
000adc 85ae      	LDD  R26,Y+14
000add 21ab      	AND  R26,R11
000ade 85ee      	LDD  R30,Y+14
000adf 17ea      	CP   R30,R26
000ae0 f439      	BRNE _0x180
                 ; 0000 0275                         ad_full_scan[phase_a_cnt] |= 0x4000;
000ae1 940e 2a3c 	CALL SUBOPT_0x54
000ae3 91ed      	LD   R30,X+
000ae4 91fd      	LD   R31,X+
000ae5 64f0      	ORI  R31,HIGH(0x4000)
000ae6 93fe      	ST   -X,R31
000ae7 93ee      	ST   -X,R30
                 ; 0000 0276                     }
                 ; 0000 0277 
                 ; 0000 0278 
                 ; 0000 0279                     //          
                 ; 0000 027A                     if(max_scan_val > MAX_SCAN_REF && ScanStopEnable==0) {
                 _0x180:
000ae8 91e0 0ee6 	LDS  R30,_MAX_SCAN_REF
000aea 91f0 0ee7 	LDS  R31,_MAX_SCAN_REF+1
000aec 91a0 0ee4 	LDS  R26,_max_scan_val
000aee 91b0 0ee5 	LDS  R27,_max_scan_val+1
000af0 17ea      	CP   R30,R26
000af1 07fb      	CPC  R31,R27
000af2 f410      	BRSH _0x182
000af3 20dd      	TST  R13
000af4 f009      	BREQ _0x183
                 _0x182:
000af5 c013      	RJMP _0x181
                 _0x183:
                 ; 0000 027B                         max_scan_cnt++;
000af6 eea8      	LDI  R26,LOW(_max_scan_cnt)
000af7 e0be      	LDI  R27,HIGH(_max_scan_cnt)
000af8 940e 2a4c 	CALL SUBOPT_0x57
                 ; 0000 027C                         //UDR1 = max_scan_cnt;     while(!(UCSR1A & 0x20));
                 ; 0000 027D                         //UDR1 = 0xED;     while(!(UCSR1A & 0x20));
                 ; 0000 027E                         if(max_scan_cnt > 20){
000afa 91a0 0ee8 	LDS  R26,_max_scan_cnt
000afc 91b0 0ee9 	LDS  R27,_max_scan_cnt+1
000afe 9755      	SBIW R26,21
000aff f048      	BRLO _0x184
                 ; 0000 027F                             //UDR1 = 0xEE;     while(!(UCSR1A & 0x20));
                 ; 0000 0280                             //ScanStopEnable=1;
                 ; 0000 0281                             ScanStopEnable=1;
000b00 e0e1      	LDI  R30,LOW(1)
000b01 2ede      	MOV  R13,R30
                 ; 0000 0282                             max_scan_cnt = 0;
000b02 e0e0      	LDI  R30,LOW(0)
000b03 93e0 0ee8 	STS  _max_scan_cnt,R30
000b05 93e0 0ee9 	STS  _max_scan_cnt+1,R30
                 ; 0000 0283                             cur_z_phase_cnt = phase_z_cnt;
000b07 940e 2a52 	CALL SUBOPT_0x58
                 ; 0000 0284                         }
                 ; 0000 0285                     }
                 _0x184:
                 ; 0000 0286 
                 ; 0000 0287                     /*if(phase_z_cnt>10){
                 ; 0000 0288                         MAX_SCAN_REF = 1000;
                 ; 0000 0289                     }
                 ; 0000 028A                     */
                 ; 0000 028B                     // a z  ,    
                 ; 0000 028C                     //   
                 ; 0000 028D                     if(ScanStopEnable==1){
                 _0x181:
000b09 e0e1      	LDI  R30,LOW(1)
000b0a 15ed      	CP   R30,R13
000b0b f441      	BRNE _0x185
                 ; 0000 028E                         //UDR1 = 0xEB;     while(!(UCSR1A & 0x20));
                 ; 0000 028F                         //UDR1 = cur_z_phase_cnt;     while(!(UCSR1A & 0x20));
                 ; 0000 0290                         //UDR1 = phase_z_cnt;     while(!(UCSR1A & 0x20));
                 ; 0000 0291                         //if(phase_a_cnt>= SYS_INFO.z_encoder_interval || phase_z_cnt > 1){
                 ; 0000 0292                         if(cur_z_phase_cnt < phase_z_cnt){
000b0c 940e 2a5b 	CALL SUBOPT_0x59
000b0e f424      	BRGE _0x186
                 ; 0000 0293                         //if(phase_a_cnt==359){
                 ; 0000 0294                             //UDR1 = 0xEB;     while(!(UCSR1A & 0x20));
                 ; 0000 0295                             ScanStopEnable = 2;
000b0f e0e2      	LDI  R30,LOW(2)
000b10 2ede      	MOV  R13,R30
                 ; 0000 0296                             cur_z_phase_cnt = phase_z_cnt;
000b11 940e 2a52 	CALL SUBOPT_0x58
                 ; 0000 0297                         }
                 ; 0000 0298                     }
                 _0x186:
                 ; 0000 0299                     else if(ScanStopEnable==2){
000b13 c046      	RJMP _0x187
                 _0x185:
000b14 e0e2      	LDI  R30,LOW(2)
000b15 15ed      	CP   R30,R13
000b16 f531      	BRNE _0x188
                 ; 0000 029A                         //UDR1 = 0xEC;     while(!(UCSR1A & 0x20));
                 ; 0000 029B                         if(cur_z_phase_cnt < phase_z_cnt){
000b17 940e 2a5b 	CALL SUBOPT_0x59
000b19 f514      	BRGE _0x189
                 ; 0000 029C                         //if(phase_a_cnt==359){
                 ; 0000 029D                             ScanEnable = 0;     modRunning = MACHINE_STOP;
000b1a 2499      	CLR  R9
000b1b 24aa      	CLR  R10
                 ; 0000 029E                             ScanStopEnable = 0;
000b1c 24dd      	CLR  R13
                 ; 0000 029F                             //datalen = sizeof(ad_full_scan);
                 ; 0000 02A0                             datalen = sizeof(ad_full_scan);
                +
000b1d eb20     +LDI R18 , LOW ( 1200 )
000b1e e034     +LDI R19 , HIGH ( 1200 )
                 	__GETWRN 18,19,1200
                 ; 0000 02A1                             TxBuffer[0] = 0x02;
000b1f e0e2      	LDI  R30,LOW(2)
000b20 93e0 1620 	STS  _TxBuffer,R30
                 ; 0000 02A2                             TxBuffer[1] = (datalen+2)>>8;             //  COMMAND 2byte 
000b22 01f9      	MOVW R30,R18
000b23 9632      	ADIW R30,2
000b24 940e 2a65 	CALL SUBOPT_0x5A
                 ; 0000 02A3                             TxBuffer[2] = (datalen+2) & 0xFF;
000b26 2fe2      	MOV  R30,R18
000b27 5fee      	SUBI R30,-LOW(2)
000b28 940e 2a6a 	CALL SUBOPT_0x5B
                 ; 0000 02A4                             TxBuffer[3] = 0x10;
                 ; 0000 02A5                             TxBuffer[4] = 0x0A + scan_ad_ch;
000b2a 2dee      	MOV  R30,R14
000b2b 5fe6      	SUBI R30,-LOW(10)
000b2c 940e 2a70 	CALL SUBOPT_0x5C
                 ; 0000 02A6                             memcpy(&(TxBuffer[5]), &(ad_full_scan[0]), datalen);
000b2e e5e4      	LDI  R30,LOW(_ad_full_scan)
000b2f e0ff      	LDI  R31,HIGH(_ad_full_scan)
000b30 93fa      	ST   -Y,R31
000b31 93ea      	ST   -Y,R30
000b32 01d9      	MOVW R26,R18
000b33 940e 27af 	CALL _memcpy
                 ; 0000 02A7                             TxBuffer[5+datalen] = 0x03;
000b35 01f9      	MOVW R30,R18
000b36 940e 2a77 	CALL SUBOPT_0x5D
                 ; 0000 02A8                             TxEnable = 1;   txcnt = 1;  TxLength = datalen+6;   UDR1 = TxBuffer[0];
000b38 940e 2a85 	CALL SUBOPT_0x5E
                 ; 0000 02A9                             plc_prt_value &= ~MACHINE_START;
                 ; 0000 02AA                             PLC_CON = plc_prt_value;
000b3a 940e 28b5 	CALL SUBOPT_0x24
                 ; 0000 02AB                             led_buz_value &= ~LED_RUN_STOP;
                 ; 0000 02AC                             LED_BUZ = led_buz_value;
                 ; 0000 02AD                         }
                 ; 0000 02AE                     }
                 _0x189:
                 ; 0000 02AF                     else{
000b3c c01d      	RJMP _0x18A
                 _0x188:
                 ; 0000 02B0                       if(phase_z_cnt > 50){
000b3d 91a0 1428 	LDS  R26,_phase_z_cnt
000b3f 91b0 1429 	LDS  R27,_phase_z_cnt+1
000b41 9180 142a 	LDS  R24,_phase_z_cnt+2
000b43 9190 142b 	LDS  R25,_phase_z_cnt+3
                +
000b45 33a3     +CPI R26 , LOW ( 0x33 )
000b46 e0e0     +LDI R30 , HIGH ( 0x33 )
000b47 07be     +CPC R27 , R30
000b48 e0e0     +LDI R30 , BYTE3 ( 0x33 )
000b49 078e     +CPC R24 , R30
000b4a e0e0     +LDI R30 , BYTE4 ( 0x33 )
000b4b 079e     +CPC R25 , R30
                 	__CPD2N 0x33
000b4c f06c      	BRLT _0x18B
                 ; 0000 02B1                         ScanEnable = 0; modRunning = MACHINE_STOP;
000b4d 2499      	CLR  R9
000b4e 24aa      	CLR  R10
                 ; 0000 02B2                         TxBuffer[0] = 0x02;
000b4f 940e 2a90 	CALL SUBOPT_0x5F
                 ; 0000 02B3                         TxBuffer[1] = 0x00;             //  COMMAND 2byte 
                 ; 0000 02B4                         TxBuffer[2] = 0x02;
000b51 940e 2a6a 	CALL SUBOPT_0x5B
                 ; 0000 02B5                         TxBuffer[3] = 0x10;
                 ; 0000 02B6                         TxBuffer[4] = 0xFF;
000b53 efef      	LDI  R30,LOW(255)
000b54 940e 2a98 	CALL SUBOPT_0x60
                 ; 0000 02B7                         TxBuffer[5] = 0x03;
                 ; 0000 02B8                         TxEnable = 1;   txcnt = 1;  TxLength = datalen+6;   UDR1 = TxBuffer[0];
000b56 940e 2a85 	CALL SUBOPT_0x5E
                 ; 0000 02B9 
                 ; 0000 02BA                         plc_prt_value &= ~MACHINE_START;
                 ; 0000 02BB                         PLC_CON = plc_prt_value;
000b58 940e 28b5 	CALL SUBOPT_0x24
                 ; 0000 02BC                         led_buz_value &= ~LED_RUN_STOP;
                 ; 0000 02BD                         LED_BUZ = led_buz_value;
                 ; 0000 02BE                     }
                 ; 0000 02BF                     else{
                 _0x18B:
                 ; 0000 02C0                         //UDR1 = phase_z_cnt;     while(!(UCSR1A & 0x20));
                 ; 0000 02C1                         //UDR1 = 0xEC;     while(!(UCSR1A & 0x20));
                 ; 0000 02C2                     }
                 ; 0000 02C3                     }
                 _0x18A:
                 _0x187:
                 ; 0000 02C4                 }
                 ; 0000 02C5                 //if(UDR1 == 0xA5){
                 ; 0000 02C6                 if(StopCMD==1){
                 _0x17A:
000b5a 91a0 1e97 	LDS  R26,_StopCMD
000b5c 30a1      	CPI  R26,LOW(0x1)
000b5d f449      	BRNE _0x18D
                 ; 0000 02C7                     ScanEnable = 0; modRunning = MACHINE_STOP;
000b5e 2499      	CLR  R9
000b5f 24aa      	CLR  R10
                 ; 0000 02C8                     StopCMD = 0;
000b60 e0e0      	LDI  R30,LOW(0)
000b61 93e0 1e97 	STS  _StopCMD,R30
                 ; 0000 02C9                     /*TxBuffer[0] = 0x02;
                 ; 0000 02CA                     TxBuffer[1] = 0x00;             //  COMMAND 2byte 
                 ; 0000 02CB                     TxBuffer[2] = 0x02;
                 ; 0000 02CC                     TxBuffer[3] = 0x10;
                 ; 0000 02CD                     TxBuffer[4] = 0x05;
                 ; 0000 02CE                     TxBuffer[5] = 0x03;
                 ; 0000 02CF                     TxEnable = 1;   txcnt = 1;  TxLength = datalen+6;   UDR1 = TxBuffer[0];
                 ; 0000 02D0                     */
                 ; 0000 02D1                     plc_prt_value &= ~MACHINE_START;
000b63 940e 28af 	CALL SUBOPT_0x23
                 ; 0000 02D2                     PLC_CON = plc_prt_value;
000b65 93e0 8800 	STS  34816,R30
                 ; 0000 02D3                 }
                 ; 0000 02D4                 break;
                 _0x18D:
000b67 c012      	RJMP _0x126
                 ; 0000 02D5             case SOLENOID_TEST :
                 _0x179:
000b68 30e4      	CPI  R30,LOW(0x4)
000b69 e0a0      	LDI  R26,HIGH(0x4)
000b6a 07fa      	CPC  R31,R26
000b6b f471      	BRNE _0x18E
                 ; 0000 02D6                 if(GradingPosition <= phase_a_cnt && phase_a_cnt < grading_end_pulse){
000b6c 940e 2a14 	CALL SUBOPT_0x4E
000b6e f018      	BRLO _0x190
000b6f 940e 2a1c 	CALL SUBOPT_0x4F
000b71 f008      	BRLO _0x191
                 _0x190:
000b72 c005      	RJMP _0x18F
                 _0x191:
                 ; 0000 02D7                     // ::240pulse
                 ; 0000 02D8                     cal_cnt = phase_a_cnt - GradingPosition;
000b73 91a0 0f20 	LDS  R26,_GradingPosition
000b75 940e 29df 	CALL SUBOPT_0x46
                 ; 0000 02D9                     WeightGrading(cal_cnt);
000b77 d36a      	RCALL _WeightGrading
                 ; 0000 02DA                 }
                 ; 0000 02DB 
                 ; 0000 02DC                 //   
                 ; 0000 02DD                 SolenoidRunning();
                 _0x18F:
000b78 940e 13b4 	CALL _SolenoidRunning
                 ; 0000 02DE                 break;
                 ; 0000 02DF             case EMERGENCY_STOP :
                 _0x18E:
                 ; 0000 02E0                 break;
                 ; 0000 02E1         }
                 _0x126:
                 ; 0000 02E2 
                 ; 0000 02E3         //z LED on 100msec led off
                 ; 0000 02E4         if(z_led_flag==1 && (phase_a_cnt>100)){
000b7a e0e1      	LDI  R30,LOW(1)
000b7b 15e8      	CP   R30,R8
000b7c f431      	BRNE _0x194
000b7d 940e 28f4 	CALL SUBOPT_0x2C
000b7f 36a5      	CPI  R26,LOW(0x65)
000b80 e0e0      	LDI  R30,HIGH(0x65)
000b81 07be      	CPC  R27,R30
000b82 f408      	BRSH _0x195
                 _0x194:
000b83 c006      	RJMP _0x193
                 _0x195:
                 ; 0000 02E5             z_led_flag = 0;
000b84 2488      	CLR  R8
                 ; 0000 02E6             led_buz_value &= ~LED_ENCODER_Z;
000b85 91e0 1c5a 	LDS  R30,_led_buz_value
000b87 7fee      	ANDI R30,0xFE
000b88 93e0 1c5a 	STS  _led_buz_value,R30
                 ; 0000 02E7         }
                 ; 0000 02E8         //old_a_cnt = phase_a_cnt;
                 ; 0000 02E9         phase_a_cnt++;
                 _0x193:
000b8a eea2      	LDI  R26,LOW(_phase_a_cnt)
000b8b e0be      	LDI  R27,HIGH(_phase_a_cnt)
000b8c 940e 2a4c 	CALL SUBOPT_0x57
                 ; 0000 02EA 
                 ; 0000 02EB         /*if(phase_a_cnt>360){
                 ; 0000 02EC             phase_a_cnt=0;
                 ; 0000 02ED             z_led_flag = 0;
                 ; 0000 02EE             led_buz_value &= ~LED_ENCODER_Z;
                 ; 0000 02EF         } */
                 ; 0000 02F0 
                 ; 0000 02F1         LED_BUZ = led_buz_value;
000b8e 940e 2914 	CALL SUBOPT_0x2F
                 ; 0000 02F2     }
                 ; 0000 02F3     else{
000b90 c01e      	RJMP _0x196
                 _0xFC:
                 ; 0000 02F4         //    Reverse 
                 ; 0000 02F5         //A  .
                 ; 0000 02F6 
                 ; 0000 02F7         if(modRunning==ENCODER_CHK){
000b91 e0e7      	LDI  R30,LOW(7)
000b92 15ea      	CP   R30,R10
000b93 f4d9      	BRNE _0x197
                 ; 0000 02F8             if(phase_a_cnt>0){
000b94 940e 28f4 	CALL SUBOPT_0x2C
000b96 940e 316f 	CALL __CPW02
000b98 f440      	BRSH _0x198
                 ; 0000 02F9                 phase_a_cnt--;
000b99 eea2      	LDI  R26,LOW(_phase_a_cnt)
000b9a e0be      	LDI  R27,HIGH(_phase_a_cnt)
000b9b 91ed      	LD   R30,X+
000b9c 91fd      	LD   R31,X+
000b9d 9731      	SBIW R30,1
000b9e 93fe      	ST   -X,R31
000b9f 93ee      	ST   -X,R30
                 ; 0000 02FA             }
                 ; 0000 02FB             else if(phase_a_cnt==0){
000ba0 c00a      	RJMP _0x199
                 _0x198:
000ba1 940e 2919 	CALL SUBOPT_0x30
000ba3 9730      	SBIW R30,0
000ba4 f431      	BRNE _0x19A
                 ; 0000 02FC                 phase_a_cnt=359;
000ba5 e6e7      	LDI  R30,LOW(359)
000ba6 e0f1      	LDI  R31,HIGH(359)
000ba7 93e0 0ee2 	STS  _phase_a_cnt,R30
000ba9 93f0 0ee3 	STS  _phase_a_cnt+1,R31
                 ; 0000 02FD             }
                 ; 0000 02FE 
                 ; 0000 02FF             A_TX_DATA[0] = 0x02;
                 _0x19A:
                 _0x199:
000bab 940e 292c 	CALL SUBOPT_0x33
                 ; 0000 0300             A_TX_DATA[1] = 0x00;
                 ; 0000 0301             A_TX_DATA[2] = 0x04;
                 ; 0000 0302             A_TX_DATA[3] = 0xE1;
                 ; 0000 0303             A_TX_DATA[4] = 0x01;
                 ; 0000 0304             A_TX_DATA[5] = phase_a_cnt >> 8 ;
                 ; 0000 0305             A_TX_DATA[6] = phase_a_cnt;
                 ; 0000 0306             A_TX_DATA[7] = 0x03;
                 ; 0000 0307 
                 ; 0000 0308             memcpy(&TxBuffer[0],&A_TX_DATA[0],sizeof(A_TX_DATA));
000bad 940e 2947 	CALL SUBOPT_0x34
                 ; 0000 0309             //if(COMM_SET_Position!=phase_a_cnt){
                 ; 0000 030A                 TxEnable = 1;   txcnt = 1;  TxLength = 8;   UDR1 = TxBuffer[0];
                 ; 0000 030B             //}
                 ; 0000 030C         }
                 ; 0000 030D 
                 ; 0000 030E     }
                 _0x197:
                 _0x196:
                 ; 0000 030F }
000baf 940e 317f 	CALL __LOADLOCR6
000bb1 962f      	ADIW R28,15
000bb2 c1f3      	RJMP _0x4DB
                 ; .FEND
                 ;
                 ;// USART0 Receiver interrupt service routine
                 ;interrupt [USART1_RXC] void usart1_rx_isr(void)
                 ; 0000 0313 {
                 _usart1_rx_isr:
                 ; .FSTART _usart1_rx_isr
000bb3 940e 2aa7 	CALL SUBOPT_0x61
                 ; 0000 0314     unsigned char rxd;
                 ; 0000 0315 
                 ; 0000 0316     rxd = UDR1;
000bb5 931a      	ST   -Y,R17
                 ;	rxd -> R17
000bb6 9110 00ce 	LDS  R17,206
                 ; 0000 0317 
                 ; 0000 0318     switch(COM_MOD){
000bb8 91e0 1bfd 	LDS  R30,_COM_MOD
000bba e0f0      	LDI  R31,0
                 ; 0000 0319         case COM_STX :
000bbb 9730      	SBIW R30,0
000bbc f009      	BREQ PC+2
000bbd c03d      	RJMP _0x19E
                 ; 0000 031A             if(rxd==0x02){
000bbe 3012      	CPI  R17,2
000bbf f421      	BRNE _0x19F
                 ; 0000 031B                 COM_MOD = COM_LEN;
000bc0 e0e1      	LDI  R30,LOW(1)
000bc1 93e0 1bfd 	STS  _COM_MOD,R30
                 ; 0000 031C             }
                 ; 0000 031D             else if(rxd==0xA5){
000bc3 c036      	RJMP _0x1A0
                 _0x19F:
000bc4 3a15      	CPI  R17,165
000bc5 f5a1      	BRNE _0x1A1
                 ; 0000 031E                 //version 3.4.2
                 ; 0000 031F                 //    
                 ; 0000 0320                 //        ,
                 ; 0000 0321                 //          OFF
                 ; 0000 0322                 //   
                 ; 0000 0323                 //       ,
                 ; 0000 0324                 //       off
                 ; 0000 0325                 if(MACHINE_STATE==1){
000bc6 91a0 1e98 	LDS  R26,_MACHINE_STATE
000bc8 30a1      	CPI  R26,LOW(0x1)
000bc9 f4a9      	BRNE _0x1A2
                 ; 0000 0326                     //StopEnable = 1;
                 ; 0000 0327                     EVENT_ENABLE = 1;
000bca 940e 28c4 	CALL SUBOPT_0x26
                 ; 0000 0328                     SpeedAdjEnable = 1;
                 ; 0000 0329                     accel_rdy = 0;
000bcc 940e 2887 	CALL SUBOPT_0x1E
                 ; 0000 032A                     deaccel_rdy = 1;
000bce 93e0 2043 	STS  _deaccel_rdy,R30
                 ; 0000 032B                     StopCMD = 1;
000bd0 e0e1      	LDI  R30,LOW(1)
000bd1 93e0 1e97 	STS  _StopCMD,R30
                 ; 0000 032C                     if(debugMode==1){
000bd3 91a0 1faa 	LDS  R26,_debugMode
000bd5 30a1      	CPI  R26,LOW(0x1)
000bd6 f439      	BRNE _0x1A3
                 ; 0000 032D                        UDR1 =0xF2;            while(!(UCSR1A & 0x20));
000bd7 efe2      	LDI  R30,LOW(242)
000bd8 93e0 00ce 	STS  206,R30
                 _0x1A4:
000bda 91e0 00c8 	LDS  R30,200
000bdc 72e0      	ANDI R30,LOW(0x20)
000bdd f3e1      	BREQ _0x1A4
                 ; 0000 032E                     }
                 ; 0000 032F                 }
                 _0x1A3:
                 ; 0000 0330                 else if(MACHINE_STATE==0){
000bde c01b      	RJMP _0x1A7
                 _0x1A2:
000bdf 91e0 1e98 	LDS  R30,_MACHINE_STATE
000be1 30e0      	CPI  R30,0
000be2 f4b9      	BRNE _0x1A8
                 ; 0000 0331                     StopEnable = 0;
000be3 e0e0      	LDI  R30,LOW(0)
000be4 93e0 1c03 	STS  _StopEnable,R30
                 ; 0000 0332                     StopCMD = 0;
000be6 93e0 1e97 	STS  _StopCMD,R30
                 ; 0000 0333                     plc_prt_value &= ~MACHINE_START;
000be8 940e 28af 	CALL SUBOPT_0x23
                 ; 0000 0334                     plc_prt_value |= EVENT_STOP;
000bea 60e2      	ORI  R30,2
000beb 93e0 0ee1 	STS  _plc_prt_value,R30
                 ; 0000 0335                     PLC_CON = plc_prt_value;
000bed 940e 28b5 	CALL SUBOPT_0x24
                 ; 0000 0336                     led_buz_value &= ~LED_RUN_STOP;
                 ; 0000 0337                     LED_BUZ = led_buz_value;
                 ; 0000 0338                      if(debugMode==1){
000bef 91a0 1faa 	LDS  R26,_debugMode
000bf1 30a1      	CPI  R26,LOW(0x1)
000bf2 f439      	BRNE _0x1A9
                 ; 0000 0339                         UDR1 =0xF3;            while(!(UCSR1A & 0x20));
000bf3 efe3      	LDI  R30,LOW(243)
000bf4 93e0 00ce 	STS  206,R30
                 _0x1AA:
000bf6 91e0 00c8 	LDS  R30,200
000bf8 72e0      	ANDI R30,LOW(0x20)
000bf9 f3e1      	BREQ _0x1AA
                 ; 0000 033A                      }
                 ; 0000 033B                 }
                 _0x1A9:
                 ; 0000 033C             }
                 _0x1A8:
                 _0x1A7:
                 ; 0000 033D             break;
                 _0x1A1:
                 _0x1A0:
000bfa c039      	RJMP _0x19D
                 ; 0000 033E         case COM_LEN :
                 _0x19E:
000bfb 30e1      	CPI  R30,LOW(0x1)
000bfc e0a0      	LDI  R26,HIGH(0x1)
000bfd 07fa      	CPC  R31,R26
000bfe f451      	BRNE _0x1AD
                 ; 0000 033F             RxLength = rxd;        COM_MOD = COM_DAT;
000bff 2fe1      	MOV  R30,R17
000c00 e0f0      	LDI  R31,0
000c01 93e0 1c13 	STS  _RxLength,R30
000c03 93f0 1c14 	STS  _RxLength+1,R31
000c05 e0e2      	LDI  R30,LOW(2)
000c06 93e0 1bfd 	STS  _COM_MOD,R30
                 ; 0000 0340             break;
000c08 c02b      	RJMP _0x19D
                 ; 0000 0341         case COM_DAT :
                 _0x1AD:
000c09 30e2      	CPI  R30,LOW(0x2)
000c0a e0a0      	LDI  R26,HIGH(0x2)
000c0b 07fa      	CPC  R31,R26
000c0c f4b9      	BRNE _0x1AE
                 ; 0000 0342             RxBuffer[revcnt++] = rxd;
000c0d e1a1      	LDI  R26,LOW(_revcnt)
000c0e e1bc      	LDI  R27,HIGH(_revcnt)
000c0f 940e 2a4c 	CALL SUBOPT_0x57
000c11 9731      	SBIW R30,1
000c12 5de4      	SUBI R30,LOW(-_RxBuffer)
000c13 4efb      	SBCI R31,HIGH(-_RxBuffer)
000c14 8310      	ST   Z,R17
                 ; 0000 0343             if(RxLength<=revcnt){
000c15 91e0 1c11 	LDS  R30,_revcnt
000c17 91f0 1c12 	LDS  R31,_revcnt+1
000c19 91a0 1c13 	LDS  R26,_RxLength
000c1b 91b0 1c14 	LDS  R27,_RxLength+1
000c1d 17ea      	CP   R30,R26
000c1e 07fb      	CPC  R31,R27
000c1f f018      	BRLO _0x1AF
                 ; 0000 0344                 COM_MOD = COM_ETX;
000c20 e0e3      	LDI  R30,LOW(3)
000c21 93e0 1bfd 	STS  _COM_MOD,R30
                 ; 0000 0345             }
                 ; 0000 0346             break;
                 _0x1AF:
000c23 c010      	RJMP _0x19D
                 ; 0000 0347         case COM_ETX :
                 _0x1AE:
000c24 30e3      	CPI  R30,LOW(0x3)
000c25 e0a0      	LDI  R26,HIGH(0x3)
000c26 07fa      	CPC  R31,R26
000c27 f461      	BRNE _0x19D
                 ; 0000 0348             if(rxd==0x03){
000c28 3013      	CPI  R17,3
000c29 f451      	BRNE _0x1B1
                 ; 0000 0349                 COM_MOD = COM_STX;
000c2a e0e0      	LDI  R30,LOW(0)
000c2b 93e0 1bfd 	STS  _COM_MOD,R30
                 ; 0000 034A                 revcnt=0;
000c2d 93e0 1c11 	STS  _revcnt,R30
000c2f 93e0 1c12 	STS  _revcnt+1,R30
                 ; 0000 034B                 COM_REV_ENABLE = 1;
000c31 e0e1      	LDI  R30,LOW(1)
000c32 93e0 1bfc 	STS  _COM_REV_ENABLE,R30
                 ; 0000 034C             }
                 ; 0000 034D             break;
                 _0x1B1:
                 ; 0000 034E     }
                 _0x19D:
                 ; 0000 034F }
000c34 9119      	LD   R17,Y+
000c35 c026      	RJMP _0x4DC
                 ; .FEND
                 ;
                 ;// USART1 Receiver interrupt service routine
                 ;interrupt [USART1_TXC] void usart1_tx_isr(void)
                 ; 0000 0353 {
                 _usart1_tx_isr:
                 ; .FSTART _usart1_tx_isr
000c36 940e 2aa7 	CALL SUBOPT_0x61
                 ; 0000 0354     if(TxEnable){
000c38 91e0 1bfe 	LDS  R30,_TxEnable
000c3a 30e0      	CPI  R30,0
000c3b f101      	BREQ _0x1B2
                 ; 0000 0355         if(txcnt<TxLength){
000c3c 91e0 1c0d 	LDS  R30,_TxLength
000c3e 91f0 1c0e 	LDS  R31,_TxLength+1
000c40 91a0 1c0f 	LDS  R26,_txcnt
000c42 91b0 1c10 	LDS  R27,_txcnt+1
000c44 17ae      	CP   R26,R30
000c45 07bf      	CPC  R27,R31
000c46 f460      	BRSH _0x1B3
                 ; 0000 0356             UDR1 = TxBuffer[txcnt++];
000c47 e0af      	LDI  R26,LOW(_txcnt)
000c48 e1bc      	LDI  R27,HIGH(_txcnt)
000c49 940e 2a4c 	CALL SUBOPT_0x57
000c4b 9731      	SBIW R30,1
000c4c 5ee0      	SUBI R30,LOW(-_TxBuffer)
000c4d 4ef9      	SBCI R31,HIGH(-_TxBuffer)
000c4e 81e0      	LD   R30,Z
000c4f 93e0 00ce 	STS  206,R30
                 ; 0000 0357             A_CNT_TX_HOLD = 1;
000c51 e0e1      	LDI  R30,LOW(1)
000c52 c007      	RJMP _0x4C0
                 ; 0000 0358         }
                 ; 0000 0359         else{
                 _0x1B3:
                 ; 0000 035A             TxEnable = 0;   txcnt = 0;      A_CNT_TX_HOLD = 0;
000c53 e0e0      	LDI  R30,LOW(0)
000c54 93e0 1bfe 	STS  _TxEnable,R30
000c56 93e0 1c0f 	STS  _txcnt,R30
000c58 93e0 1c10 	STS  _txcnt+1,R30
                 _0x4C0:
000c5a 93e0 1c0c 	STS  _A_CNT_TX_HOLD,R30
                 ; 0000 035B         }
                 ; 0000 035C     }
                 ; 0000 035D }
                 _0x1B2:
                 _0x4DC:
000c5c 91e9      	LD   R30,Y+
000c5d bfef      	OUT  SREG,R30
000c5e 91f9      	LD   R31,Y+
000c5f 91e9      	LD   R30,Y+
000c60 91b9      	LD   R27,Y+
000c61 91a9      	LD   R26,Y+
000c62 9518      	RETI
                 ; .FEND
                 ;
                 ;// Timer 0 overflow interrupt service routine
                 ;interrupt [TIM0_OVF] void timer0_ovf_isr(void)
                 ; 0000 0361 {
                 _timer0_ovf_isr:
                 ; .FSTART _timer0_ovf_isr
                 ; 0000 0362     // Reinitialize Timer 0 value
                 ; 0000 0363     //TCNT0=0xF1;
                 ; 0000 0364     // Place your code here
                 ; 0000 0365 
                 ; 0000 0366 }
000c63 9518      	RETI
                 ; .FEND
                 ;
                 ;// Timer1 output compare A interrupt service routine
                 ;interrupt [TIM1_COMPA] void timer1_compa_isr(void)
                 ; 0000 036A {
                 _timer1_compa_isr:
                 ; .FSTART _timer1_compa_isr
000c64 940e 28d7 	CALL SUBOPT_0x29
                 ; 0000 036B 
                 ; 0000 036C     long avrtotal=0;
                 ; 0000 036D     unsigned int readvalue=0;
                 ; 0000 036E 
                 ; 0000 036F     // Place your code here
                 ; 0000 0370     TCNT1H = 0x00;
000c66 9724      	SBIW R28,4
000c67 e0e0      	LDI  R30,LOW(0)
000c68 83e8      	ST   Y,R30
000c69 940e 2aae 	CALL SUBOPT_0x62
000c6b 931a      	ST   -Y,R17
000c6c 930a      	ST   -Y,R16
                 ;	avrtotal -> Y+2
                 ;	readvalue -> R16,R17
                +
000c6d e000     +LDI R16 , LOW ( 0 )
000c6e e010     +LDI R17 , HIGH ( 0 )
                 	__GETWRN 16,17,0
000c6f e0e0      	LDI  R30,LOW(0)
000c70 940e 285f 	CALL SUBOPT_0x19
                 ; 0000 0371     TCNT1L = 0x00;
                 ; 0000 0372 
                 ; 0000 0373     switch(TimerMode){
000c72 91e0 1bff 	LDS  R30,_TimerMode
000c74 940e 2ab3 	CALL SUBOPT_0x63
                 ; 0000 0374         case tmrADC :
000c76 f009      	BREQ PC+2
000c77 c08d      	RJMP _0x1B8
                 ; 0000 0375             readvalue = RD_ADC(reformCH);
000c78 91a0 1c02 	LDS  R26,_reformCH
000c7a 940e 0365 	CALL _RD_ADC
000c7c 018f      	MOVW R16,R30
                 ; 0000 0376             avrtotal = reformTotal + ((long)readvalue*763)/10000;                     //(reformTotal)  ...
000c7d 01d8      	MOVW R26,R16
000c7e 940e 29ce 	CALL SUBOPT_0x45
000c80 940e 2ab8 	CALL SUBOPT_0x64
000c82 940e 302b 	CALL __ADDD12
                +
000c84 83ea     +STD Y + 2 , R30
000c85 83fb     +STD Y + 2 + 1 , R31
000c86 836c     +STD Y + 2 + 2 , R22
000c87 837d     +STD Y + 2 + 3 , R23
                 	__PUTD1S 2
                 ; 0000 0377             reformTotal -= (long)reform_ADC[adcnt];                       //   .
000c88 940e 2ac1 	CALL SUBOPT_0x65
000c8a e0f0      	LDI  R31,0
000c8b 940e 2815 	CALL SUBOPT_0xB
000c8d 940e 2a40 	CALL SUBOPT_0x55
000c8f 940e 2ac6 	CALL SUBOPT_0x66
                 ; 0000 0378             reform_ADC[adcnt] = (unsigned int)(avrtotal / (avr_loop_cnt+1));        //
000c91 940e 280f 	CALL SUBOPT_0xA
000c93 93ff      	PUSH R31
000c94 93ef      	PUSH R30
000c95 91e0 1c01 	LDS  R30,_avr_loop_cnt
000c97 e0f0      	LDI  R31,0
000c98 9631      	ADIW R30,1
                +
000c99 81aa     +LDD R26 , Y + 2
000c9a 81bb     +LDD R27 , Y + 2 + 1
000c9b 818c     +LDD R24 , Y + 2 + 2
000c9c 819d     +LDD R25 , Y + 2 + 3
                 	__GETD2S 2
000c9d 940e 29ef 	CALL SUBOPT_0x49
000c9f 91af      	POP  R26
000ca0 91bf      	POP  R27
000ca1 93ed      	ST   X+,R30
000ca2 93fc      	ST   X,R31
                 ; 0000 0379 
                 ; 0000 037A             reformVoltage = (long)reform_ADC[adcnt];
000ca3 940e 2ac1 	CALL SUBOPT_0x65
000ca5 e0f0      	LDI  R31,0
000ca6 940e 2815 	CALL SUBOPT_0xB
000ca8 940e 313f 	CALL __GETW1P
000caa 93e0 1c4b 	STS  _reformVoltage,R30
000cac 93f0 1c4c 	STS  _reformVoltage+1,R31
                 ; 0000 037B             reformTotal += (long)reform_ADC[adcnt++];
000cae 940e 2ad2 	CALL SUBOPT_0x67
000cb0 940e 2a40 	CALL SUBOPT_0x55
000cb2 940e 2adc 	CALL SUBOPT_0x68
                 ; 0000 037C             adcnt %= avr_loop_cnt;
                 ; 0000 037D 
                 ; 0000 037E 
                 ; 0000 037F             if(reformVoltage >= zero_value[reformCH]){
000cb4 940e 2af0 	CALL SUBOPT_0x69
000cb6 940e 2af6 	CALL SUBOPT_0x6A
000cb8 17ae      	CP   R26,R30
000cb9 07bf      	CPC  R27,R31
000cba f080      	BRLO _0x1B9
                 ; 0000 0380                 diffVoltage = reformVoltage - zero_value[reformCH];
000cbb 940e 2af0 	CALL SUBOPT_0x69
000cbd 940e 2af6 	CALL SUBOPT_0x6A
000cbf 1bae      	SUB  R26,R30
000cc0 0bbf      	SBC  R27,R31
000cc1 93a0 1c51 	STS  _diffVoltage,R26
000cc3 93b0 1c52 	STS  _diffVoltage+1,R27
                 ; 0000 0381                 //Positive Value
                 ; 0000 0382                 reformSigned = 0;
000cc5 e0e0      	LDI  R30,LOW(0)
000cc6 93e0 1c4f 	STS  _reformSigned,R30
000cc8 93e0 1c50 	STS  _reformSigned+1,R30
                 ; 0000 0383             }
                 ; 0000 0384             else   {
000cca c010      	RJMP _0x1BA
                 _0x1B9:
                 ; 0000 0385                  diffVoltage = zero_value[reformCH] - reformVoltage;
000ccb 940e 2af0 	CALL SUBOPT_0x69
000ccd 940e 2af6 	CALL SUBOPT_0x6A
000ccf 1bea      	SUB  R30,R26
000cd0 0bfb      	SBC  R31,R27
000cd1 93e0 1c51 	STS  _diffVoltage,R30
000cd3 93f0 1c52 	STS  _diffVoltage+1,R31
                 ; 0000 0386                  //Negative Value
                 ; 0000 0387                 reformSigned = 1;
000cd5 e0e1      	LDI  R30,LOW(1)
000cd6 e0f0      	LDI  R31,HIGH(1)
000cd7 93e0 1c4f 	STS  _reformSigned,R30
000cd9 93f0 1c50 	STS  _reformSigned+1,R31
                 ; 0000 0388             }
                 _0x1BA:
                 ; 0000 0389 
                 ; 0000 038A             reformWeight = ((long)diffVoltage * ConstWeight[reformCH])/1000;
000cdb 91e0 1c51 	LDS  R30,_diffVoltage
000cdd 91f0 1c52 	LDS  R31,_diffVoltage+1
000cdf 2766      	CLR  R22
000ce0 2777      	CLR  R23
000ce1 937f      	PUSH R23
000ce2 936f      	PUSH R22
000ce3 93ff      	PUSH R31
000ce4 93ef      	PUSH R30
000ce5 940e 2afd 	CALL SUBOPT_0x6B
000ce7 e0f0      	LDI  R31,0
000ce8 940e 2815 	CALL SUBOPT_0xB
000cea 940e 313f 	CALL __GETW1P
000cec 91af      	POP  R26
000ced 91bf      	POP  R27
000cee 918f      	POP  R24
000cef 919f      	POP  R25
000cf0 940e 2b02 	CALL SUBOPT_0x6C
000cf2 93e0 1c4d 	STS  _reformWeight,R30
000cf4 93f0 1c4e 	STS  _reformWeight+1,R31
                 ; 0000 038B             reformWeight = ((long)reformWeight* 29412)/100000;
000cf6 91a0 1c4d 	LDS  R26,_reformWeight
000cf8 91b0 1c4e 	LDS  R27,_reformWeight+1
000cfa 2788      	CLR  R24
000cfb 2799      	CLR  R25
000cfc 940e 2b0f 	CALL SUBOPT_0x6D
000cfe 93e0 1c4d 	STS  _reformWeight,R30
000d00 93f0 1c4e 	STS  _reformWeight+1,R31
                 ; 0000 038C 
                 ; 0000 038D             OCR1AH=0x00;        OCR1AL=0x4E;        //5msec /1024 prescaler
000d02 940e 2898 	CALL SUBOPT_0x21
                 ; 0000 038E             TCCR1B = 0x05;
                 ; 0000 038F 
                 ; 0000 0390             break;
000d04 c09e      	RJMP _0x1B7
                 ; 0000 0391         case tmrSPEED :
                 _0x1B8:
000d05 30e2      	CPI  R30,LOW(0x2)
000d06 e0a0      	LDI  R26,HIGH(0x2)
000d07 07fa      	CPC  R31,R26
000d08 f009      	BREQ PC+2
000d09 c08f      	RJMP _0x1BB
                 ; 0000 0392             if(modRunning==NORMAL_RUN || modRunning==SOLENOID_TEST){
000d0a e0e1      	LDI  R30,LOW(1)
000d0b 15ea      	CP   R30,R10
000d0c f021      	BREQ _0x1BD
000d0d e0e4      	LDI  R30,LOW(4)
000d0e 15ea      	CP   R30,R10
000d0f f009      	BREQ _0x1BD
000d10 c087      	RJMP _0x1BC
                 _0x1BD:
                 ; 0000 0393                 tmrSPEEDCNT++;
000d11 e1a5      	LDI  R26,LOW(_tmrSPEEDCNT)
000d12 e1bc      	LDI  R27,HIGH(_tmrSPEEDCNT)
000d13 940e 2a4c 	CALL SUBOPT_0x57
                 ; 0000 0394 
                 ; 0000 0395                 if(AccelStart==1){
000d15 91a0 1c5b 	LDS  R26,_AccelStart
000d17 30a1      	CPI  R26,LOW(0x1)
000d18 f579      	BRNE _0x1BF
                 ; 0000 0396                     AccelCount++;
000d19 e6a2      	LDI  R26,LOW(_AccelCount)
000d1a e1bc      	LDI  R27,HIGH(_AccelCount)
000d1b 940e 2a4c 	CALL SUBOPT_0x57
                 ; 0000 0397                     if((AccelCount % unit_rising) ==0){ //5msec period interrupt
000d1d 91e0 1c68 	LDS  R30,_unit_rising
000d1f e0f0      	LDI  R31,0
000d20 91a0 1c62 	LDS  R26,_AccelCount
000d22 91b0 1c63 	LDS  R27,_AccelCount+1
000d24 940e 3107 	CALL __MODW21U
000d26 9730      	SBIW R30,0
000d27 f501      	BRNE _0x1C0
                 ; 0000 0398                         AccelStep++;
000d28 91e0 1c5d 	LDS  R30,_AccelStep
000d2a 5fef      	SUBI R30,-LOW(1)
000d2b 93e0 1c5d 	STS  _AccelStep,R30
                 ; 0000 0399                         Sol_Correction_Count = SYS_INFO.correction -(AccelStep*unit_correct);
000d2d 91e0 1c67 	LDS  R30,_unit_correct
000d2f 91a0 1c5d 	LDS  R26,_AccelStep
000d31 02ea      	MULS R30,R26
000d32 01f0      	MOVW R30,R0
                +
000d33 91a0 0d1e+LDS R26 , _SYS_INFO + ( 4 )
                 	__GETB2MN _SYS_INFO,4
000d35 1bae      	SUB  R26,R30
000d36 93a0 1c5f 	STS  _Sol_Correction_Count,R26
                 ; 0000 039A 
                 ; 0000 039B                         if(AccelStep<init_off_correction){
000d38 940e 288c 	CALL SUBOPT_0x1F
000d3a 91a0 1c5d 	LDS  R26,_AccelStep
000d3c e0b0      	LDI  R27,0
                 ; 0000 039C                             off_Correction_Count = 0;
                 ; 0000 039D                         }
                 ; 0000 039E                         else{
                 ; 0000 039F                             off_Correction_Count = 0;
                 _0x4C1:
000d3d e0e0      	LDI  R30,LOW(0)
000d3e 940e 28bf 	CALL SUBOPT_0x25
                 ; 0000 03A0                         }
                 ; 0000 03A1 
                 ; 0000 03A2                         if(AccelStep>=SYS_INFO.correction){
                +
000d40 91e0 0d1e+LDS R30 , _SYS_INFO + ( 4 )
                 	__GETB1MN _SYS_INFO,4
000d42 91a0 1c5d 	LDS  R26,_AccelStep
000d44 17ae      	CP   R26,R30
000d45 f010      	BRLO _0x1C3
                 ; 0000 03A3                             AccelStart = 0;                 //
000d46 940e 2876 	CALL SUBOPT_0x1D
                 ; 0000 03A4                             AccelStep = 0;
                 ; 0000 03A5                             AccelCount=accelStartCount;
                 ; 0000 03A6                             Sol_Correction_Count = 0;
                 ; 0000 03A7                         }
                 ; 0000 03A8                     }
                 _0x1C3:
                 ; 0000 03A9                 }
                 _0x1C0:
                 ; 0000 03AA 
                 ; 0000 03AB                 if(DeAccelStart==1){
                 _0x1BF:
000d48 91a0 1c5c 	LDS  R26,_DeAccelStart
000d4a 30a1      	CPI  R26,LOW(0x1)
000d4b f009      	BREQ PC+2
000d4c c040      	RJMP _0x1C4
                 ; 0000 03AC                     DeAccelDelay++;
000d4d eaa2      	LDI  R26,LOW(_DeAccelDelay)
000d4e e1bf      	LDI  R27,HIGH(_DeAccelDelay)
000d4f 940e 2a4c 	CALL SUBOPT_0x57
                 ; 0000 03AD                     if(DeAccelDelay>=DelayTimeCount){
000d51 91e0 1fa4 	LDS  R30,_DelayTimeCount
000d53 91f0 1fa5 	LDS  R31,_DelayTimeCount+1
000d55 91a0 1fa2 	LDS  R26,_DeAccelDelay
000d57 91b0 1fa3 	LDS  R27,_DeAccelDelay+1
000d59 17ae      	CP   R26,R30
000d5a 07bf      	CPC  R27,R31
000d5b f188      	BRLO _0x1C5
                 ; 0000 03AE 
                 ; 0000 03AF                     DeAccelCount++;
000d5c e6a4      	LDI  R26,LOW(_DeAccelCount)
000d5d e1bc      	LDI  R27,HIGH(_DeAccelCount)
000d5e 940e 2a4c 	CALL SUBOPT_0x57
                 ; 0000 03B0                     if((DeAccelCount %unit_falling) ==0){
000d60 91e0 1c69 	LDS  R30,_unit_falling
000d62 e0f0      	LDI  R31,0
000d63 91a0 1c64 	LDS  R26,_DeAccelCount
000d65 91b0 1c65 	LDS  R27,_DeAccelCount+1
000d67 940e 3107 	CALL __MODW21U
000d69 9730      	SBIW R30,0
000d6a f511      	BRNE _0x1C6
                 ; 0000 03B1                         DeAccelStep++;
000d6b 91e0 1c5e 	LDS  R30,_DeAccelStep
000d6d 5fef      	SUBI R30,-LOW(1)
000d6e 93e0 1c5e 	STS  _DeAccelStep,R30
                 ; 0000 03B2                         Sol_Correction_Count = DeAccelStep * unit_correct;
000d70 91e0 1c67 	LDS  R30,_unit_correct
000d72 91a0 1c5e 	LDS  R26,_DeAccelStep
000d74 02ea      	MULS R30,R26
000d75 01f0      	MOVW R30,R0
000d76 93e0 1c5f 	STS  _Sol_Correction_Count,R30
                 ; 0000 03B3 
                 ; 0000 03B4                         if(DeAccelStep>(init_off_correction+10)){
000d78 940e 288c 	CALL SUBOPT_0x1F
000d7a 963a      	ADIW R30,10
000d7b 91a0 1c5e 	LDS  R26,_DeAccelStep
000d7d e0b0      	LDI  R27,0
                 ; 0000 03B5                             off_Correction_Count = 0;
                 ; 0000 03B6                         }
                 ; 0000 03B7                         else{
                 ; 0000 03B8                             off_Correction_Count = 0;
                 _0x4C2:
000d7e e0e0      	LDI  R30,LOW(0)
000d7f 940e 28bf 	CALL SUBOPT_0x25
                 ; 0000 03B9                         }
                 ; 0000 03BA 
                 ; 0000 03BB                         if(DeAccelStep>=SYS_INFO.correction){
                +
000d81 91e0 0d1e+LDS R30 , _SYS_INFO + ( 4 )
                 	__GETB1MN _SYS_INFO,4
000d83 91a0 1c5e 	LDS  R26,_DeAccelStep
000d85 17ae      	CP   R26,R30
000d86 f030      	BRLO _0x1C9
                 ; 0000 03BC                             DeAccelStart = 0;           //
000d87 940e 28a2 	CALL SUBOPT_0x22
                 ; 0000 03BD                             DeAccelStep = deAccelStartCount;
                 ; 0000 03BE                             DeAccelCount=0;
                 ; 0000 03BF                             Sol_Correction_Count=SYS_INFO.correction+5;
000d89 940e 2891 	CALL SUBOPT_0x20
                 ; 0000 03C0 
                 ; 0000 03C1                             timerstop = 1;
000d8b 93e0 1fa6 	STS  _timerstop,R30
                 ; 0000 03C2                         }
                 ; 0000 03C3                     }
                 _0x1C9:
                 ; 0000 03C4 
                 ; 0000 03C5                     }
                 _0x1C6:
                 ; 0000 03C6                 }
                 _0x1C5:
                 ; 0000 03C7 
                 ; 0000 03C8                 if(timerstop==0){
                 _0x1C4:
000d8d 91e0 1fa6 	LDS  R30,_timerstop
000d8f 30e0      	CPI  R30,0
000d90 f419      	BRNE _0x1CA
                 ; 0000 03C9                     OCR1AH=0x00;        OCR1AL=0x4E;        //5msec /1024 prescaler
000d91 940e 2898 	CALL SUBOPT_0x21
                 ; 0000 03CA                     TCCR1B = 0x05;
                 ; 0000 03CB                 }
                 ; 0000 03CC                 else{
000d93 c004      	RJMP _0x1CB
                 _0x1CA:
                 ; 0000 03CD                     TCCR1B = 0x00;
000d94 940e 285b 	CALL SUBOPT_0x18
                 ; 0000 03CE                     TimerMode = tmrNONE;
000d96 93e0 1bff 	STS  _TimerMode,R30
                 ; 0000 03CF                 }
                 _0x1CB:
                 ; 0000 03D0             }
                 ; 0000 03D1             break;
                 _0x1BC:
000d98 c00a      	RJMP _0x1B7
                 ; 0000 03D2         case tmrBUZ :
                 _0x1BB:
000d99 30e3      	CPI  R30,LOW(0x3)
000d9a e0a0      	LDI  R26,HIGH(0x3)
000d9b 07fa      	CPC  R31,R26
000d9c f431      	BRNE _0x1B7
                 ; 0000 03D3             led_buz_value &= ~BUZZER_ON;
000d9d 940e 2b1e 	CALL SUBOPT_0x6E
                 ; 0000 03D4             LED_BUZ = led_buz_value;
                 ; 0000 03D5             TCCR1B = 0x00;
000d9f 940e 285b 	CALL SUBOPT_0x18
                 ; 0000 03D6             TimerMode = tmrNONE;
000da1 93e0 1bff 	STS  _TimerMode,R30
                 ; 0000 03D7             break;
                 ; 0000 03D8     }
                 _0x1B7:
                 ; 0000 03D9 }
000da3 8119      	LDD  R17,Y+1
000da4 8108      	LDD  R16,Y+0
000da5 9626      	ADIW R28,6
                 _0x4DB:
000da6 91e9      	LD   R30,Y+
000da7 bfef      	OUT  SREG,R30
000da8 91f9      	LD   R31,Y+
000da9 91e9      	LD   R30,Y+
000daa 91b9      	LD   R27,Y+
000dab 91a9      	LD   R26,Y+
000dac 9199      	LD   R25,Y+
000dad 9189      	LD   R24,Y+
000dae 9179      	LD   R23,Y+
000daf 9169      	LD   R22,Y+
000db0 90f9      	LD   R15,Y+
000db1 9019      	LD   R1,Y+
000db2 9009      	LD   R0,Y+
000db3 9518      	RETI
                 ; .FEND
                 ;
                 ;
                 ;//     , ,   
                 ;void CorrectionData(unsigned char ch){
                 ; 0000 03DD void CorrectionData(unsigned char ch){
                 _CorrectionData:
                 ; .FSTART _CorrectionData
                 ; 0000 03DE     unsigned int maxdata=0, mindata=10000, avrdata;
                 ; 0000 03DF     long TotalValue=0;
                 ; 0000 03E0     unsigned char lcnt;
                 ; 0000 03E1 
                 ; 0000 03E2     //  , ,  
                 ; 0000 03E3     for(lcnt=0;lcnt<weight_ad_cnt;lcnt++){
000db4 93aa      	ST   -Y,R26
000db5 9725      	SBIW R28,5
000db6 940e 2aae 	CALL SUBOPT_0x62
000db8 e0e0      	LDI  R30,LOW(0)
000db9 83ec      	STD  Y+4,R30
000dba 940e 3178 	CALL __SAVELOCR6
                 ;	ch -> Y+11
                 ;	maxdata -> R16,R17
                 ;	mindata -> R18,R19
                 ;	avrdata -> R20,R21
                 ;	TotalValue -> Y+7
                 ;	lcnt -> Y+6
                +
000dbc e000     +LDI R16 , LOW ( 0 )
000dbd e010     +LDI R17 , HIGH ( 0 )
                 	__GETWRN 16,17,0
                +
000dbe e120     +LDI R18 , LOW ( 10000 )
000dbf e237     +LDI R19 , HIGH ( 10000 )
                 	__GETWRN 18,19,10000
000dc0 83ee      	STD  Y+6,R30
                 _0x1CE:
000dc1 91e0 1e9a 	LDS  R30,_weight_ad_cnt
000dc3 81ae      	LDD  R26,Y+6
000dc4 17ae      	CP   R26,R30
000dc5 f510      	BRSH _0x1CF
                 ; 0000 03E4         if(voltData[ch][lcnt] >= maxdata) maxdata=voltData[ch][lcnt];
000dc6 940e 2b22 	CALL SUBOPT_0x6F
000dc8 940e 313f 	CALL __GETW1P
000dca 17e0      	CP   R30,R16
000dcb 07f1      	CPC  R31,R17
000dcc f020      	BRLO _0x1D0
000dcd 940e 2b22 	CALL SUBOPT_0x6F
000dcf 910d      	LD   R16,X+
000dd0 911c      	LD   R17,X
                 ; 0000 03E5         if(voltData[ch][lcnt] <= mindata) mindata=voltData[ch][lcnt];
                 _0x1D0:
000dd1 940e 2b22 	CALL SUBOPT_0x6F
000dd3 940e 313f 	CALL __GETW1P
000dd5 172e      	CP   R18,R30
000dd6 073f      	CPC  R19,R31
000dd7 f020      	BRLO _0x1D1
000dd8 940e 2b22 	CALL SUBOPT_0x6F
000dda 912d      	LD   R18,X+
000ddb 913c      	LD   R19,X
                 ; 0000 03E6         TotalValue += (long)voltData[ch][lcnt];
                 _0x1D1:
000ddc 940e 2b22 	CALL SUBOPT_0x6F
000dde 940e 2a40 	CALL SUBOPT_0x55
000de0 940e 2b2c 	CALL SUBOPT_0x70
000de2 940e 2b31 	CALL SUBOPT_0x71
                 ; 0000 03E7     }
000de4 81ee      	LDD  R30,Y+6
000de5 5fef      	SUBI R30,-LOW(1)
000de6 83ee      	STD  Y+6,R30
000de7 cfd9      	RJMP _0x1CE
                 _0x1CF:
                 ; 0000 03E8 
                 ; 0000 03E9     avrdata = (unsigned int)(TotalValue / weight_ad_cnt);
000de8 940e 2b38 	CALL SUBOPT_0x72
000dea 01af      	MOVW R20,R30
                 ; 0000 03EA     TotalValue = 0;
000deb e0e0      	LDI  R30,LOW(0)
                +
000dec 83ef     +STD Y + 7 , R30
000ded 87e8     +STD Y + 7 + 1 , R30
000dee 87e9     +STD Y + 7 + 2 , R30
000def 87ea     +STD Y + 7 + 3 , R30
                 	__CLRD1S 7
                 ; 0000 03EB 
                 ; 0000 03EC     //,   
                 ; 0000 03ED     for(lcnt=0;lcnt<weight_ad_cnt;lcnt++){
000df0 83ee      	STD  Y+6,R30
                 _0x1D3:
000df1 91e0 1e9a 	LDS  R30,_weight_ad_cnt
000df3 81ae      	LDD  R26,Y+6
000df4 17ae      	CP   R26,R30
000df5 f568      	BRSH _0x1D4
                 ; 0000 03EE         if(voltData[ch][lcnt] >= maxdata || voltData[ch][lcnt]<=mindata){
000df6 940e 2b22 	CALL SUBOPT_0x6F
000df8 940e 313f 	CALL __GETW1P
000dfa 17e0      	CP   R30,R16
000dfb 07f1      	CPC  R31,R17
000dfc f418      	BRSH _0x1D6
000dfd 172e      	CP   R18,R30
000dfe 073f      	CPC  R19,R31
000dff f060      	BRLO _0x1D5
                 _0x1D6:
                 ; 0000 03EF             voltData[ch][lcnt] = avrdata;
000e00 85eb      	LDD  R30,Y+11
000e01 e2a8      	LDI  R26,LOW(40)
000e02 9fea      	MUL  R30,R26
000e03 01f0      	MOVW R30,R0
000e04 55e6      	SUBI R30,LOW(-_voltData)
000e05 4ef1      	SBCI R31,HIGH(-_voltData)
000e06 01df      	MOVW R26,R30
000e07 81ee      	LDD  R30,Y+6
000e08 940e 280f 	CALL SUBOPT_0xA
000e0a 8340      	ST   Z,R20
000e0b 8351      	STD  Z+1,R21
                 ; 0000 03F0         }
                 ; 0000 03F1 
                 ; 0000 03F2         TotalValue += (long)voltData[ch][lcnt];
                 _0x1D5:
000e0c 940e 2b22 	CALL SUBOPT_0x6F
000e0e 940e 2a40 	CALL SUBOPT_0x55
000e10 940e 2b3d 	CALL SUBOPT_0x73
                 ; 0000 03F3         weight_value[ch] = (TotalValue / weight_ad_cnt);
000e12 85eb      	LDD  R30,Y+11
000e13 e2a4      	LDI  R26,LOW(_weight_value)
000e14 e0bf      	LDI  R27,HIGH(_weight_value)
000e15 940e 280f 	CALL SUBOPT_0xA
000e17 93ff      	PUSH R31
000e18 93ef      	PUSH R30
000e19 940e 2b38 	CALL SUBOPT_0x72
000e1b 91af      	POP  R26
000e1c 91bf      	POP  R27
000e1d 93ed      	ST   X+,R30
000e1e 93fc      	ST   X,R31
                 ; 0000 03F4     }
000e1f 81ee      	LDD  R30,Y+6
000e20 5fef      	SUBI R30,-LOW(1)
000e21 83ee      	STD  Y+6,R30
000e22 cfce      	RJMP _0x1D3
                 _0x1D4:
                 ; 0000 03F5 }
000e23 940e 317f 	CALL __LOADLOCR6
000e25 962c      	ADIW R28,12
000e26 9508      	RET
                 ; .FEND
                 ;
                 ;//     
                 ;void ConvertWeight(unsigned char ch){
                 ; 0000 03F8 void ConvertWeight(unsigned char ch){
                 _ConvertWeight:
                 ; .FSTART _ConvertWeight
                 ; 0000 03F9     unsigned int iWeight;
                 ; 0000 03FA     int RWeight;
                 ; 0000 03FB 
                 ; 0000 03FC     //   .
                 ; 0000 03FD     if(weight_value[ch] >= zero_value[ch]){
000e27 93aa      	ST   -Y,R26
000e28 940e 317a 	CALL __SAVELOCR4
                 ;	ch -> Y+4
                 ;	iWeight -> R16,R17
                 ;	RWeight -> R18,R19
000e2a 940e 2b3f 	CALL SUBOPT_0x74
000e2c 940e 2b44 	CALL SUBOPT_0x75
000e2e e0f0      	LDI  R31,0
000e2f 940e 2815 	CALL SUBOPT_0xB
000e31 940e 313f 	CALL __GETW1P
000e33 160e      	CP   R0,R30
000e34 061f      	CPC  R1,R31
000e35 f028      	BRLO _0x1D8
                 ; 0000 03FE         iWeight = weight_value[ch] - zero_value[ch];
000e36 940e 2b3f 	CALL SUBOPT_0x74
000e38 940e 2b44 	CALL SUBOPT_0x75
000e3a c007      	RJMP _0x4C3
                 ; 0000 03FF     }
                 ; 0000 0400     else{
                 _0x1D8:
                 ; 0000 0401         iWeight = zero_value[ch]-weight_value[ch];
000e3b 940e 2b4a 	CALL SUBOPT_0x76
000e3d 900d      	LD   R0,X+
000e3e 901c      	LD   R1,X
000e3f 81ec      	LDD  R30,Y+4
000e40 e2a4      	LDI  R26,LOW(_weight_value)
000e41 e0bf      	LDI  R27,HIGH(_weight_value)
                 _0x4C3:
000e42 e0f0      	LDI  R31,0
000e43 940e 2815 	CALL SUBOPT_0xB
000e45 940e 313f 	CALL __GETW1P
000e47 01d0      	MOVW R26,R0
000e48 1bae      	SUB  R26,R30
000e49 0bbf      	SBC  R27,R31
000e4a 018d      	MOVW R16,R26
                 ; 0000 0402     }
                 ; 0000 0403 
                 ; 0000 0404     old_Zero[ch] = zero_value[ch];
000e4b 81ec      	LDD  R30,Y+4
000e4c e9ac      	LDI  R26,LOW(_old_Zero)
000e4d e1be      	LDI  R27,HIGH(_old_Zero)
000e4e 940e 280f 	CALL SUBOPT_0xA
000e50 010f      	MOVW R0,R30
000e51 940e 2b4a 	CALL SUBOPT_0x76
000e53 940e 2b4f 	CALL SUBOPT_0x77
                 ; 0000 0405 
                 ; 0000 0406     //1   SPAN ,      ( 0.0286=100/3500) 
                 ; 0000 0407     //  
                 ; 0000 0408     RWeight = ((long)iWeight * ConstWeight[ch])/1000;
000e55 2766      	CLR  R22
000e56 2777      	CLR  R23
000e57 937f      	PUSH R23
000e58 936f      	PUSH R22
000e59 93ff      	PUSH R31
000e5a 93ef      	PUSH R30
000e5b 81ec      	LDD  R30,Y+4
000e5c e4a8      	LDI  R26,LOW(_ConstWeight)
000e5d e0bf      	LDI  R27,HIGH(_ConstWeight)
000e5e e0f0      	LDI  R31,0
000e5f 940e 2815 	CALL SUBOPT_0xB
000e61 940e 313f 	CALL __GETW1P
000e63 91af      	POP  R26
000e64 91bf      	POP  R27
000e65 918f      	POP  R24
000e66 919f      	POP  R25
000e67 940e 2b02 	CALL SUBOPT_0x6C
000e69 019f      	MOVW R18,R30
                 ; 0000 0409     RWeight = ((long)RWeight*29412 )/100000;
000e6a 01d9      	MOVW R26,R18
000e6b 940e 3077 	CALL __CWD2
000e6d 940e 2b0f 	CALL SUBOPT_0x6D
000e6f 019f      	MOVW R18,R30
                 ; 0000 040A 
                 ; 0000 040B 
                 ; 0000 040C     //   
                 ; 0000 040D     if(debugMode==2){
000e70 91a0 1faa 	LDS  R26,_debugMode
000e72 30a2      	CPI  R26,LOW(0x2)
000e73 f009      	BREQ PC+2
000e74 c047      	RJMP _0x1DA
                 ; 0000 040E 
                 ; 0000 040F         UDR1 =weight_value[ch]>>8;            while(!(UCSR1A & 0x20));
000e75 940e 2b3f 	CALL SUBOPT_0x74
000e77 940e 2b56 	CALL SUBOPT_0x78
                 _0x1DB:
000e79 91e0 00c8 	LDS  R30,200
000e7b 72e0      	ANDI R30,LOW(0x20)
000e7c f3e1      	BREQ _0x1DB
                 ; 0000 0410         UDR1 =weight_value[ch];            while(!(UCSR1A & 0x20));
000e7d 940e 2b3f 	CALL SUBOPT_0x74
000e7f 91ec      	LD   R30,X
000e80 93e0 00ce 	STS  206,R30
                 _0x1DE:
000e82 91e0 00c8 	LDS  R30,200
000e84 72e0      	ANDI R30,LOW(0x20)
000e85 f3e1      	BREQ _0x1DE
                 ; 0000 0411         UDR1 =zero_value[ch]>>8;            while(!(UCSR1A & 0x20));
000e86 940e 2b4a 	CALL SUBOPT_0x76
000e88 940e 2b56 	CALL SUBOPT_0x78
                 _0x1E1:
000e8a 91e0 00c8 	LDS  R30,200
000e8c 72e0      	ANDI R30,LOW(0x20)
000e8d f3e1      	BREQ _0x1E1
                 ; 0000 0412         UDR1 =zero_value[ch];            while(!(UCSR1A & 0x20));
000e8e 940e 2b4a 	CALL SUBOPT_0x76
000e90 91ec      	LD   R30,X
000e91 93e0 00ce 	STS  206,R30
                 _0x1E4:
000e93 91e0 00c8 	LDS  R30,200
000e95 72e0      	ANDI R30,LOW(0x20)
000e96 f3e1      	BREQ _0x1E4
                 ; 0000 0413         UDR1 =0xDD;            while(!(UCSR1A & 0x20));
000e97 eded      	LDI  R30,LOW(221)
000e98 93e0 00ce 	STS  206,R30
                 _0x1E7:
000e9a 91e0 00c8 	LDS  R30,200
000e9c 72e0      	ANDI R30,LOW(0x20)
000e9d f3e1      	BREQ _0x1E7
                 ; 0000 0414 
                 ; 0000 0415 
                 ; 0000 0416         UDR1 =RWeight>>8;            while(!(UCSR1A & 0x20));
000e9e 01f9      	MOVW R30,R18
000e9f 940e 2b5d 	CALL SUBOPT_0x79
                 _0x1EA:
000ea1 91e0 00c8 	LDS  R30,200
000ea3 72e0      	ANDI R30,LOW(0x20)
000ea4 f3e1      	BREQ _0x1EA
                 ; 0000 0417         UDR1 =RWeight;            while(!(UCSR1A & 0x20));
000ea5 9320 00ce 	STS  206,R18
                 _0x1ED:
000ea7 91e0 00c8 	LDS  R30,200
000ea9 72e0      	ANDI R30,LOW(0x20)
000eaa f3e1      	BREQ _0x1ED
                 ; 0000 0418         UDR1 =0xDE;            while(!(UCSR1A & 0x20));
000eab edee      	LDI  R30,LOW(222)
000eac 93e0 00ce 	STS  206,R30
                 _0x1F0:
000eae 91e0 00c8 	LDS  R30,200
000eb0 72e0      	ANDI R30,LOW(0x20)
000eb1 f3e1      	BREQ _0x1F0
                 ; 0000 0419 
                 ; 0000 041A         if(ch==5){
000eb2 81ac      	LDD  R26,Y+4
000eb3 30a5      	CPI  R26,LOW(0x5)
000eb4 f439      	BRNE _0x1F3
                 ; 0000 041B             UDR1 =0xDF;            while(!(UCSR1A & 0x20));
000eb5 edef      	LDI  R30,LOW(223)
000eb6 93e0 00ce 	STS  206,R30
                 _0x1F4:
000eb8 91e0 00c8 	LDS  R30,200
000eba 72e0      	ANDI R30,LOW(0x20)
000ebb f3e1      	BREQ _0x1F4
                 ; 0000 041C         }
                 ; 0000 041D     }
                 _0x1F3:
                 ; 0000 041E 
                 ; 0000 041F     //Offset & Span 
                 ; 0000 0420     //Offset     
                 ; 0000 0421     //Span   
                 ; 0000 0422     //Offset = Z_MeasureValue - Z_Reference
                 ; 0000 0423     //SPAN = iWeight / MaxRef (  100g  - MaxRef = 4800)
                 ; 0000 0424     //  
                 ; 0000 0425     if(weight_value[ch] >= zero_value[ch]){
                 _0x1DA:
000ebc 940e 2b3f 	CALL SUBOPT_0x74
000ebe 940e 2b44 	CALL SUBOPT_0x75
000ec0 e0f0      	LDI  R31,0
000ec1 940e 2815 	CALL SUBOPT_0xB
000ec3 940e 313f 	CALL __GETW1P
000ec5 160e      	CP   R0,R30
000ec6 061f      	CPC  R1,R31
000ec7 f040      	BRLO _0x1F7
                 ; 0000 0426         ResultWeight[ch] = RWeight;
000ec8 81ec      	LDD  R30,Y+4
000ec9 e0a4      	LDI  R26,LOW(_ResultWeight)
000eca e1b4      	LDI  R27,HIGH(_ResultWeight)
000ecb 940e 280f 	CALL SUBOPT_0xA
000ecd 8320      	ST   Z,R18
000ece 8331      	STD  Z+1,R19
                 ; 0000 0427     }
                 ; 0000 0428     else{
000ecf c00e      	RJMP _0x1F8
                 _0x1F7:
                 ; 0000 0429         ResultWeight[ch] = RWeight * -1;
000ed0 81ec      	LDD  R30,Y+4
000ed1 e0a4      	LDI  R26,LOW(_ResultWeight)
000ed2 e1b4      	LDI  R27,HIGH(_ResultWeight)
000ed3 940e 280f 	CALL SUBOPT_0xA
000ed5 01bf      	MOVW R22,R30
000ed6 01f9      	MOVW R30,R18
000ed7 efaf      	LDI  R26,LOW(65535)
000ed8 efbf      	LDI  R27,HIGH(65535)
000ed9 940e 30aa 	CALL __MULW12
000edb 01db      	MOVW R26,R22
000edc 93ed      	ST   X+,R30
000edd 93fc      	ST   X,R31
                 ; 0000 042A     }
                 _0x1F8:
                 ; 0000 042B 
                 ; 0000 042C }
000ede 940e 3181 	CALL __LOADLOCR4
000ee0 9625      	ADIW R28,5
000ee1 9508      	RET
                 ; .FEND
                 ;
                 ;//  , , ,  
                 ;void WeightGrading(unsigned char ch){
                 ; 0000 042F void WeightGrading(unsigned char ch){
                 _WeightGrading:
                 ; .FSTART _WeightGrading
                 ; 0000 0430     unsigned char grade_result=0xFF, k=0;
                 ; 0000 0431     int gradeWeight, set_bucket_data=0;
                 ; 0000 0432     int testWeight[9] = {700,650,580,500,450,390,0,0,100};
                 ; 0000 0433     long eggcnt_sum = 0;
                 ; 0000 0434 
                 ; 0000 0435     //ver3.4.1 =  acd  
                 ; 0000 0436     unsigned char crackdata;
                 ; 0000 0437 
                 ; 0000 0438     testWeight[0] = GRADE_INFO[g_KING].loLimit + 20;
000ee2 93aa      	ST   -Y,R26
000ee3 9767      	SBIW R28,23
000ee4 e186      	LDI  R24,22
000ee5 e0a1      	LDI  R26,LOW(1)
000ee6 e0b0      	LDI  R27,HIGH(1)
000ee7 ebe2      	LDI  R30,LOW(_0x1F9*2)
000ee8 e0f2      	LDI  R31,HIGH(_0x1F9*2)
000ee9 940e 3186 	CALL __INITLOCB
000eeb 940e 3178 	CALL __SAVELOCR6
                 ;	ch -> Y+29
                 ;	grade_result -> R17
                 ;	k -> R16
                 ;	gradeWeight -> R18,R19
                 ;	set_bucket_data -> R20,R21
                 ;	testWeight -> Y+11
                 ;	eggcnt_sum -> Y+7
                 ;	crackdata -> Y+6
000eed ef1f      	LDI  R17,255
000eee e000      	LDI  R16,0
                +
000eef e040     +LDI R20 , LOW ( 0 )
000ef0 e050     +LDI R21 , HIGH ( 0 )
                 	__GETWRN 20,21,0
000ef1 940e 2b62 	CALL SUBOPT_0x7A
000ef3 9674      	ADIW R30,20
000ef4 87eb      	STD  Y+11,R30
000ef5 87fc      	STD  Y+11+1,R31
                 ; 0000 0439     testWeight[1] = GRADE_INFO[g_SPECIAL].loLimit + 20;
000ef6 940e 2b67 	CALL SUBOPT_0x7B
000ef8 9674      	ADIW R30,20
000ef9 87ed      	STD  Y+13,R30
000efa 87fe      	STD  Y+13+1,R31
                 ; 0000 043A     testWeight[2] = GRADE_INFO[g_BIG].loLimit + 20;
000efb 940e 2b6c 	CALL SUBOPT_0x7C
000efd 9674      	ADIW R30,20
000efe 87ef      	STD  Y+15,R30
000eff 8bf8      	STD  Y+15+1,R31
                 ; 0000 043B     testWeight[3] = GRADE_INFO[g_MIDDLE].loLimit + 20;
000f00 940e 2b71 	CALL SUBOPT_0x7D
000f02 9674      	ADIW R30,20
000f03 8be9      	STD  Y+17,R30
000f04 8bfa      	STD  Y+17+1,R31
                 ; 0000 043C     testWeight[4] = GRADE_INFO[g_SMALL].loLimit + 20;
000f05 940e 2b76 	CALL SUBOPT_0x7E
000f07 9674      	ADIW R30,20
000f08 8beb      	STD  Y+19,R30
000f09 8bfc      	STD  Y+19+1,R31
                 ; 0000 043D     testWeight[5] = GRADE_INFO[g_LIGHT].loLimit + 20;
000f0a 940e 2b7b 	CALL SUBOPT_0x7F
000f0c 9674      	ADIW R30,20
000f0d 8bed      	STD  Y+21,R30
000f0e 8bfe      	STD  Y+21+1,R31
                 ; 0000 043E 
                 ; 0000 043F     if(modRunning==NORMAL_RUN){
000f0f e0e1      	LDI  R30,LOW(1)
000f10 15ea      	CP   R30,R10
000f11 f429      	BRNE _0x1FA
                 ; 0000 0440         gradeWeight = ResultWeight[ch];
000f12 8ded      	LDD  R30,Y+29
000f13 e0a4      	LDI  R26,LOW(_ResultWeight)
000f14 e1b4      	LDI  R27,HIGH(_ResultWeight)
000f15 e0f0      	LDI  R31,0
000f16 c040      	RJMP _0x4C4
                 ; 0000 0441     }
                 ; 0000 0442     else if(modRunning==SOLENOID_TEST){
                 _0x1FA:
000f17 e0e4      	LDI  R30,LOW(4)
000f18 15ea      	CP   R30,R10
000f19 f009      	BREQ PC+2
000f1a c042      	RJMP _0x1FC
                 ; 0000 0443         if(SolenoidTestType==0){
000f1b 2033      	TST  R3
000f1c f519      	BRNE _0x1FD
                 ; 0000 0444             if(ch==0){
000f1d 8ded      	LDD  R30,Y+29
000f1e 30e0      	CPI  R30,0
000f1f f4e9      	BRNE _0x1FE
                 ; 0000 0445                 if(TestGrade==5){
000f20 e0e5      	LDI  R30,LOW(5)
000f21 15e6      	CP   R30,R6
000f22 f439      	BRNE _0x1FF
                 ; 0000 0446                     //ver3.4.1 =  acd  
                 ; 0000 0447                     //crackCHKCNT[0] = 100;
                 ; 0000 0448                     ACD_DATA_BUF[0] = 0x01;
000f23 e0e1      	LDI  R30,LOW(1)
000f24 93e0 1fac 	STS  _ACD_DATA_BUF,R30
                 ; 0000 0449                     dotCHKCNT[0] = 0;
000f26 e0e0      	LDI  R30,LOW(0)
000f27 93e0 0df8 	STS  _dotCHKCNT,R30
                 ; 0000 044A                 }
                 ; 0000 044B                 else if(TestGrade==6){
000f29 c012      	RJMP _0x200
                 _0x1FF:
000f2a e0e6      	LDI  R30,LOW(6)
000f2b 15e6      	CP   R30,R6
000f2c f439      	BRNE _0x201
                 ; 0000 044C                     dotCHKCNT[0] =100;
000f2d e6e4      	LDI  R30,LOW(100)
000f2e 93e0 0df8 	STS  _dotCHKCNT,R30
                 ; 0000 044D                     //crackCHKCNT[0] = 0;
                 ; 0000 044E                     //ver3.4.1 =  acd  
                 ; 0000 044F                     ACD_DATA_BUF[0] = 0x00;
000f30 e0e0      	LDI  R30,LOW(0)
000f31 93e0 1fac 	STS  _ACD_DATA_BUF,R30
                 ; 0000 0450                 }
                 ; 0000 0451                 else{
000f33 c008      	RJMP _0x202
                 _0x201:
                 ; 0000 0452                     gradeWeight = testWeight[TestGrade];
000f34 2de6      	MOV  R30,R6
000f35 e0f0      	LDI  R31,0
000f36 01de      	MOVW R26,R28
000f37 961b      	ADIW R26,11
000f38 940e 2815 	CALL SUBOPT_0xB
000f3a 912d      	LD   R18,X+
000f3b 913c      	LD   R19,X
                 ; 0000 0453                 }
                 _0x202:
                 _0x200:
                 ; 0000 0454             }
                 ; 0000 0455             else{
000f3c c002      	RJMP _0x203
                 _0x1FE:
                 ; 0000 0456                 gradeWeight = 10;
                +
000f3d e02a     +LDI R18 , LOW ( 10 )
000f3e e030     +LDI R19 , HIGH ( 10 )
                 	__GETWRN 18,19,10
                 ; 0000 0457             }
                 _0x203:
                 ; 0000 0458         }
                 ; 0000 0459         else if(SolenoidTestType==1){
000f3f c01d      	RJMP _0x204
                 _0x1FD:
000f40 e0e1      	LDI  R30,LOW(1)
000f41 15e3      	CP   R30,R3
000f42 f4d1      	BRNE _0x205
                 ; 0000 045A             if(TestGrade==5){
000f43 e0e5      	LDI  R30,LOW(5)
000f44 15e6      	CP   R30,R6
000f45 f429      	BRNE _0x206
                 ; 0000 045B                 //ver3.4.1 =  acd  
                 ; 0000 045C                 //crackCHKCNT[ch] = 100;
                 ; 0000 045D                 ACD_DATA_BUF[0] = 0x01<<ch;
000f46 940e 2b80 	CALL SUBOPT_0x80
000f48 93e0 1fac 	STS  _ACD_DATA_BUF,R30
                 ; 0000 045E             }
                 ; 0000 045F             else if(TestGrade==6){
000f4a c012      	RJMP _0x207
                 _0x206:
000f4b e0e6      	LDI  R30,LOW(6)
000f4c 15e6      	CP   R30,R6
000f4d f429      	BRNE _0x208
                 ; 0000 0460                 dotCHKCNT[ch] =100;
000f4e 940e 2b85 	CALL SUBOPT_0x81
000f50 e6a4      	LDI  R26,LOW(100)
000f51 83a0      	STD  Z+0,R26
                 ; 0000 0461             }
                 ; 0000 0462             else{
000f52 c00a      	RJMP _0x209
                 _0x208:
                 ; 0000 0463                 gradeWeight = testWeight[TestGrade];
000f53 2de6      	MOV  R30,R6
000f54 e0f0      	LDI  R31,0
000f55 01de      	MOVW R26,R28
000f56 961b      	ADIW R26,11
                 _0x4C4:
000f57 0fee      	LSL  R30
000f58 1fff      	ROL  R31
000f59 0fae      	ADD  R26,R30
000f5a 1fbf      	ADC  R27,R31
000f5b 912d      	LD   R18,X+
000f5c 913c      	LD   R19,X
                 ; 0000 0464             }
                 _0x209:
                 _0x207:
                 ; 0000 0465         }
                 ; 0000 0466     }
                 _0x205:
                 _0x204:
                 ; 0000 0467 
                 ; 0000 0468     GRADE_DATA.gEWeight[ch] = ResultWeight[ch];
                 _0x1FC:
000f5d 8ded      	LDD  R30,Y+29
000f5e e2ae      	LDI  R26,LOW(_GRADE_DATA)
000f5f e0bd      	LDI  R27,HIGH(_GRADE_DATA)
000f60 e0f0      	LDI  R31,0
000f61 940e 29e5 	CALL SUBOPT_0x47
000f63 010f      	MOVW R0,R30
000f64 8ded      	LDD  R30,Y+29
000f65 e0a4      	LDI  R26,LOW(_ResultWeight)
000f66 e1b4      	LDI  R27,HIGH(_ResultWeight)
000f67 e0f0      	LDI  R31,0
000f68 940e 2815 	CALL SUBOPT_0xB
000f6a 940e 313f 	CALL __GETW1P
000f6c 01d0      	MOVW R26,R0
000f6d 940e 3072 	CALL __CWD1
000f6f 940e 314e 	CALL __PUTDP1
                 ; 0000 0469 
                 ; 0000 046A     // if((crackCHKCNT[ch] <= 5) && dotCHKCNT[ch]<= 5){     //    :: 5 
                 ; 0000 046B     //ver3.4.1 =  acd  
                 ; 0000 046C     //SYS_INFO.ACD_CHK_POS =3;
                 ; 0000 046D     crackdata = (ACD_DATA_BUF[SYS_INFO.ACD_CHK_POS]>>ch) & 0x01;
000f71 940e 2a45 	CALL SUBOPT_0x56
000f73 8ded      	LDD  R30,Y+29
000f74 940e 304e 	CALL __LSRB12
000f76 70e1      	ANDI R30,LOW(0x1)
000f77 83ee      	STD  Y+6,R30
                 ; 0000 046E 
                 ; 0000 046F     if(debugMode==3){
000f78 91a0 1faa 	LDS  R26,_debugMode
000f7a 30a3      	CPI  R26,LOW(0x3)
000f7b f581      	BRNE _0x20A
                 ; 0000 0470         UDR1 =ACD_DATA_BUF[0];            while(!(UCSR1A & 0x20));
000f7c 91e0 1fac 	LDS  R30,_ACD_DATA_BUF
000f7e 93e0 00ce 	STS  206,R30
                 _0x20B:
000f80 91e0 00c8 	LDS  R30,200
000f82 72e0      	ANDI R30,LOW(0x20)
000f83 f3e1      	BREQ _0x20B
                 ; 0000 0471         UDR1 =ACD_DATA_BUF[1];            while(!(UCSR1A & 0x20));
                +
000f84 91e0 1fad+LDS R30 , _ACD_DATA_BUF + ( 1 )
                 	__GETB1MN _ACD_DATA_BUF,1
000f86 93e0 00ce 	STS  206,R30
                 _0x20E:
000f88 91e0 00c8 	LDS  R30,200
000f8a 72e0      	ANDI R30,LOW(0x20)
000f8b f3e1      	BREQ _0x20E
                 ; 0000 0472         UDR1 =ACD_DATA_BUF[2];            while(!(UCSR1A & 0x20));
                +
000f8c 91e0 1fae+LDS R30 , _ACD_DATA_BUF + ( 2 )
                 	__GETB1MN _ACD_DATA_BUF,2
000f8e 93e0 00ce 	STS  206,R30
                 _0x211:
000f90 91e0 00c8 	LDS  R30,200
000f92 72e0      	ANDI R30,LOW(0x20)
000f93 f3e1      	BREQ _0x211
                 ; 0000 0473         UDR1 =ACD_DATA_BUF[3];            while(!(UCSR1A & 0x20));
                +
000f94 91e0 1faf+LDS R30 , _ACD_DATA_BUF + ( 3 )
                 	__GETB1MN _ACD_DATA_BUF,3
000f96 93e0 00ce 	STS  206,R30
                 _0x214:
000f98 91e0 00c8 	LDS  R30,200
000f9a 72e0      	ANDI R30,LOW(0x20)
000f9b f3e1      	BREQ _0x214
                 ; 0000 0474         UDR1 =ACD_DATA_BUF[SYS_INFO.ACD_CHK_POS];            while(!(UCSR1A & 0x20));
000f9c 940e 2b8a 	CALL SUBOPT_0x82
000f9e 81e0      	LD   R30,Z
000f9f 93e0 00ce 	STS  206,R30
                 _0x217:
000fa1 91e0 00c8 	LDS  R30,200
000fa3 72e0      	ANDI R30,LOW(0x20)
000fa4 f3e1      	BREQ _0x217
                 ; 0000 0475         UDR1 =0xFB;                                          while(!(UCSR1A & 0x20));
000fa5 efeb      	LDI  R30,LOW(251)
000fa6 93e0 00ce 	STS  206,R30
                 _0x21A:
000fa8 91e0 00c8 	LDS  R30,200
000faa 72e0      	ANDI R30,LOW(0x20)
000fab f3e1      	BREQ _0x21A
                 ; 0000 0476     }
                 ; 0000 0477 
                 ; 0000 0478     if((crackdata == 0 ) && dotCHKCNT[ch]<= 5){     //    :: 5 
                 _0x20A:
000fac 81ae      	LDD  R26,Y+6
000fad 30a0      	CPI  R26,LOW(0x0)
000fae f429      	BRNE _0x21E
000faf 940e 2b85 	CALL SUBOPT_0x81
000fb1 81a0      	LD   R26,Z
000fb2 30a6      	CPI  R26,LOW(0x6)
000fb3 f008      	BRLO _0x21F
                 _0x21E:
000fb4 c223      	RJMP _0x21D
                 _0x21F:
                 ; 0000 0479         //crackCHKCNT[ch] = 0;
                 ; 0000 047A         //crack data reset;
                 ; 0000 047B         GRADE_DATA.gECrack[ch]=0;
                +
000fb5 e4a6     +LDI R26 , LOW ( _GRADE_DATA + ( 24 ) )
000fb6 e0bd     +LDI R27 , HIGH ( _GRADE_DATA + ( 24 ) )
                 	__POINTW2MN _GRADE_DATA,24
000fb7 8ded      	LDD  R30,Y+29
000fb8 e0f0      	LDI  R31,0
000fb9 940e 2a09 	CALL SUBOPT_0x4D
                 ; 0000 047C         ACD_DATA_BUF[SYS_INFO.ACD_CHK_POS] &= ~(0x01<<ch);
000fbb 940e 2b8a 	CALL SUBOPT_0x82
000fbd 01bf      	MOVW R22,R30
000fbe 8010      	LD   R1,Z
000fbf 940e 2b80 	CALL SUBOPT_0x80
000fc1 95e0      	COM  R30
000fc2 21e1      	AND  R30,R1
000fc3 01db      	MOVW R26,R22
000fc4 93ec      	ST   X,R30
                 ; 0000 047D 
                 ; 0000 047E         dotCHKCNT[ch] = 0;
000fc5 940e 2b85 	CALL SUBOPT_0x81
000fc7 e0a0      	LDI  R26,LOW(0)
000fc8 83a0      	STD  Z+0,R26
                 ; 0000 047F         //Grading
                 ; 0000 0480         if(gradeWeight >= GRADE_INFO[g_ETC].hiLimit){       //
000fc9 940e 2b90 	CALL SUBOPT_0x83
000fcb f0ec      	BRLT _0x220
                 ; 0000 0481             grade_result = g_ETC;   GRADE_DATA.gNumber[g_ETC]++;    // ,   
000fcc e018      	LDI  R17,LOW(8)
                +
000fcd e7ae     +LDI R26 , LOW ( _GRADE_DATA + ( 80 ) )
000fce e0bd     +LDI R27 , HIGH ( _GRADE_DATA + ( 80 ) )
                 	__POINTW2MN _GRADE_DATA,80
000fcf 940e 2995 	CALL SUBOPT_0x3C
                 ; 0000 0482             GRADE_DATA.gWeight[g_ETC] += gradeWeight;
000fd1 940e 2b97 	CALL SUBOPT_0x84
                 ; 0000 0483             //
                 ; 0000 0484             if(GRADE_INFO[g_ETC].prttype!=PRT_TYPE_NO){
000fd3 f0a1      	BREQ _0x221
                 ; 0000 0485                 if(GRADE_INFO[g_ETC].prtOutCount<GRADE_INFO[g_ETC].prtSetCount || GRADE_INFO[g_ETC].prtSetCount==0) {
000fd4 940e 2bb0 	CALL SUBOPT_0x85
000fd6 f034      	BRLT _0x223
                +
000fd7 91e0 0b06+LDS R30 , _GRADE_INFO + ( 86 )
000fd9 91f0 0b07+LDS R31 , _GRADE_INFO + ( 86 ) + 1
                 	__GETW1MN _GRADE_INFO,86
000fdb 9730      	SBIW R30,0
000fdc f449      	BRNE _0x222
                 _0x223:
                 ; 0000 0486                     GRADE_INFO[g_ETC].prtOutCount++;
                +
000fdd e0a8     +LDI R26 , LOW ( _GRADE_INFO + ( 88 ) )
000fde e0bb     +LDI R27 , HIGH ( _GRADE_INFO + ( 88 ) )
                 	__POINTW2MN _GRADE_INFO,88
000fdf 940e 2a4c 	CALL SUBOPT_0x57
                 ; 0000 0487                     GRADE_DATA.pNumber[g_ETC]++;
                +
000fe1 ecae     +LDI R26 , LOW ( _GRADE_DATA + ( 160 ) )
000fe2 e0bd     +LDI R27 , HIGH ( _GRADE_DATA + ( 160 ) )
                 	__POINTW2MN _GRADE_DATA,160
000fe3 940e 2995 	CALL SUBOPT_0x3C
                 ; 0000 0488                 }
                 ; 0000 0489                 else{
000fe5 c002      	RJMP _0x225
                 _0x222:
                 ; 0000 048A                     old_prttype[g_ETC] = GRADE_INFO[g_ETC].prttype;
000fe6 940e 2bbb 	CALL SUBOPT_0x86
                 ; 0000 048B                     GRADE_INFO[g_ETC].prttype = PRT_TYPE_NO;
                 ; 0000 048C                     GRADE_INFO[g_ETC].prtOutCount = 0;
                 ; 0000 048D                 }
                 _0x225:
                 ; 0000 048E             }
                 ; 0000 048F         }
                 _0x221:
                 ; 0000 0490         else if((gradeWeight < GRADE_INFO[g_ETC].hiLimit)&&(gradeWeight >= GRADE_INFO[g_KING].loLimit)){ //
000fe8 c1ee      	RJMP _0x226
                 _0x220:
000fe9 940e 2b90 	CALL SUBOPT_0x83
000feb f42c      	BRGE _0x228
000fec 940e 2b62 	CALL SUBOPT_0x7A
000fee 172e      	CP   R18,R30
000fef 073f      	CPC  R19,R31
000ff0 f40c      	BRGE _0x229
                 _0x228:
000ff1 c043      	RJMP _0x227
                 _0x229:
                 ; 0000 0491             grade_result = g_KING;
000ff2 e010      	LDI  R17,LOW(0)
                 ; 0000 0492             GRADE_DATA.gNumber[g_KING]++;
                +
000ff3 e5ae     +LDI R26 , LOW ( _GRADE_DATA + ( 48 ) )
000ff4 e0bd     +LDI R27 , HIGH ( _GRADE_DATA + ( 48 ) )
                 	__POINTW2MN _GRADE_DATA,48
000ff5 940e 2995 	CALL SUBOPT_0x3C
                 ; 0000 0493             GRADE_DATA.gWeight[g_KING] += gradeWeight;
                +
000ff7 91a0 0d86+LDS R26 , _GRADE_DATA + ( 88 )
000ff9 91b0 0d87+LDS R27 , _GRADE_DATA + ( 88 ) + 1
000ffb 9180 0d88+LDS R24 , _GRADE_DATA + ( 88 ) + 2
000ffd 9190 0d89+LDS R25 , _GRADE_DATA + ( 88 ) + 3
                 	__GETD2MN _GRADE_DATA,88
000fff 940e 2bc5 	CALL SUBOPT_0x87
                +
001001 93e0 0d86+STS _GRADE_DATA + ( 88 ) , R30
001003 93f0 0d87+STS _GRADE_DATA + ( 88 ) + 1 , R31
001005 9360 0d88+STS _GRADE_DATA + ( 88 ) + 2 , R22
001007 9370 0d89+STS _GRADE_DATA + ( 88 ) + 3 , R23
                 	__PUTD1MN _GRADE_DATA,88
                 ; 0000 0494             //
                 ; 0000 0495             if(GRADE_INFO[g_KING].prttype!=PRT_TYPE_NO){
                +
001009 91e0 0ab5+LDS R30 , _GRADE_INFO + ( 5 )
                 	__GETB1MN _GRADE_INFO,5
00100b 30e0      	CPI  R30,0
00100c f139      	BREQ _0x22A
                 ; 0000 0496                 if(GRADE_INFO[g_KING].prtOutCount<GRADE_INFO[g_KING].prtSetCount || GRADE_INFO[g_KING].prtSetCount==0) {
                +
00100d 91a0 0ab8+LDS R26 , _GRADE_INFO + ( 8 )
00100f 91b0 0ab9+LDS R27 , _GRADE_INFO + ( 8 ) + 1
                 	__GETW2MN _GRADE_INFO,8
                +
001011 91e0 0ab6+LDS R30 , _GRADE_INFO + ( 6 )
001013 91f0 0ab7+LDS R31 , _GRADE_INFO + ( 6 ) + 1
                 	__GETW1MN _GRADE_INFO,6
001015 17ae      	CP   R26,R30
001016 07bf      	CPC  R27,R31
001017 f034      	BRLT _0x22C
                +
001018 91a0 0ab6+LDS R26 , _GRADE_INFO + ( 6 )
00101a 91b0 0ab7+LDS R27 , _GRADE_INFO + ( 6 ) + 1
                 	__GETW2MN _GRADE_INFO,6
00101c 9710      	SBIW R26,0
00101d f449      	BRNE _0x22B
                 _0x22C:
                 ; 0000 0497                     GRADE_INFO[g_KING].prtOutCount++;
                +
00101e eba8     +LDI R26 , LOW ( _GRADE_INFO + ( 8 ) )
00101f e0ba     +LDI R27 , HIGH ( _GRADE_INFO + ( 8 ) )
                 	__POINTW2MN _GRADE_INFO,8
001020 940e 2a4c 	CALL SUBOPT_0x57
                 ; 0000 0498                     GRADE_DATA.pNumber[g_KING]++;
                +
001022 eaae     +LDI R26 , LOW ( _GRADE_DATA + ( 128 ) )
001023 e0bd     +LDI R27 , HIGH ( _GRADE_DATA + ( 128 ) )
                 	__POINTW2MN _GRADE_DATA,128
001024 940e 2995 	CALL SUBOPT_0x3C
                 ; 0000 0499                 }
                 ; 0000 049A                 else{
001026 c00d      	RJMP _0x22E
                 _0x22B:
                 ; 0000 049B                     old_prttype[g_KING] = GRADE_INFO[g_KING].prttype;
                +
001027 91e0 0ab5+LDS R30 , _GRADE_INFO + ( 5 )
                 	__GETB1MN _GRADE_INFO,5
001029 93e0 1e8e 	STS  _old_prttype,R30
                 ; 0000 049C                     GRADE_INFO[g_KING].prttype = PRT_TYPE_NO;
00102b e0e0      	LDI  R30,LOW(0)
                +
00102c 93e0 0ab5+STS _GRADE_INFO + ( 5 ) , R30
                 	__PUTB1MN _GRADE_INFO,5
                 ; 0000 049D                     GRADE_INFO[g_KING].prtOutCount = 0;
00102e e0e0      	LDI  R30,LOW(0)
00102f e0f0      	LDI  R31,HIGH(0)
                +
001030 93e0 0ab8+STS _GRADE_INFO + ( 8 ) , R30
001032 93f0 0ab9+STS _GRADE_INFO + ( 8 ) + 1 , R31
                 	__PUTW1MN _GRADE_INFO,8
                 ; 0000 049E                 }
                 _0x22E:
                 ; 0000 049F             }
                 ; 0000 04A0         }
                 _0x22A:
                 ; 0000 04A1         else if((gradeWeight < GRADE_INFO[g_KING].loLimit)&&(gradeWeight >= GRADE_INFO[g_SPECIAL].loLimit)){ //:: ...
001034 c1a2      	RJMP _0x22F
                 _0x227:
001035 940e 2b62 	CALL SUBOPT_0x7A
001037 172e      	CP   R18,R30
001038 073f      	CPC  R19,R31
001039 f42c      	BRGE _0x231
00103a 940e 2b67 	CALL SUBOPT_0x7B
00103c 172e      	CP   R18,R30
00103d 073f      	CPC  R19,R31
00103e f40c      	BRGE _0x232
                 _0x231:
00103f c041      	RJMP _0x230
                 _0x232:
                 ; 0000 04A2             grade_result = g_SPECIAL;
001040 e011      	LDI  R17,LOW(1)
                 ; 0000 04A3             GRADE_DATA.gNumber[g_SPECIAL]++;
                +
001041 e6a2     +LDI R26 , LOW ( _GRADE_DATA + ( 52 ) )
001042 e0bd     +LDI R27 , HIGH ( _GRADE_DATA + ( 52 ) )
                 	__POINTW2MN _GRADE_DATA,52
001043 940e 2995 	CALL SUBOPT_0x3C
                 ; 0000 04A4             GRADE_DATA.gWeight[g_SPECIAL] += gradeWeight;
                +
001045 91a0 0d8a+LDS R26 , _GRADE_DATA + ( 92 )
001047 91b0 0d8b+LDS R27 , _GRADE_DATA + ( 92 ) + 1
001049 9180 0d8c+LDS R24 , _GRADE_DATA + ( 92 ) + 2
00104b 9190 0d8d+LDS R25 , _GRADE_DATA + ( 92 ) + 3
                 	__GETD2MN _GRADE_DATA,92
00104d 940e 2bc5 	CALL SUBOPT_0x87
                +
00104f 93e0 0d8a+STS _GRADE_DATA + ( 92 ) , R30
001051 93f0 0d8b+STS _GRADE_DATA + ( 92 ) + 1 , R31
001053 9360 0d8c+STS _GRADE_DATA + ( 92 ) + 2 , R22
001055 9370 0d8d+STS _GRADE_DATA + ( 92 ) + 3 , R23
                 	__PUTD1MN _GRADE_DATA,92
                 ; 0000 04A5             //
                 ; 0000 04A6             if(GRADE_INFO[g_SPECIAL].prttype!=PRT_TYPE_NO){
                +
001057 91e0 0abf+LDS R30 , _GRADE_INFO + ( 15 )
                 	__GETB1MN _GRADE_INFO,15
001059 30e0      	CPI  R30,0
00105a f129      	BREQ _0x233
                 ; 0000 04A7                 if( GRADE_INFO[g_SPECIAL].prtOutCount<GRADE_INFO[g_SPECIAL].prtSetCount || GRADE_INFO[g_SPECIAL].prtSetC ...
                +
00105b 91a0 0ac2+LDS R26 , _GRADE_INFO + ( 18 )
00105d 91b0 0ac3+LDS R27 , _GRADE_INFO + ( 18 ) + 1
                 	__GETW2MN _GRADE_INFO,18
                +
00105f 91e0 0ac0+LDS R30 , _GRADE_INFO + ( 16 )
001061 91f0 0ac1+LDS R31 , _GRADE_INFO + ( 16 ) + 1
                 	__GETW1MN _GRADE_INFO,16
001063 17ae      	CP   R26,R30
001064 07bf      	CPC  R27,R31
001065 f034      	BRLT _0x235
                +
001066 91e0 0ac0+LDS R30 , _GRADE_INFO + ( 16 )
001068 91f0 0ac1+LDS R31 , _GRADE_INFO + ( 16 ) + 1
                 	__GETW1MN _GRADE_INFO,16
00106a 9730      	SBIW R30,0
00106b f449      	BRNE _0x234
                 _0x235:
                 ; 0000 04A8                     GRADE_INFO[g_SPECIAL].prtOutCount++;
                +
00106c eca2     +LDI R26 , LOW ( _GRADE_INFO + ( 18 ) )
00106d e0ba     +LDI R27 , HIGH ( _GRADE_INFO + ( 18 ) )
                 	__POINTW2MN _GRADE_INFO,18
00106e 940e 2a4c 	CALL SUBOPT_0x57
                 ; 0000 04A9                     GRADE_DATA.pNumber[g_SPECIAL]++;
                +
001070 eba2     +LDI R26 , LOW ( _GRADE_DATA + ( 132 ) )
001071 e0bd     +LDI R27 , HIGH ( _GRADE_DATA + ( 132 ) )
                 	__POINTW2MN _GRADE_DATA,132
001072 940e 2995 	CALL SUBOPT_0x3C
                 ; 0000 04AA                 }
                 ; 0000 04AB                 else{
001074 c00b      	RJMP _0x237
                 _0x234:
                 ; 0000 04AC                     old_prttype[g_SPECIAL] = GRADE_INFO[g_SPECIAL].prttype;
                +
001075 91e0 0abf+LDS R30 , _GRADE_INFO + ( 15 )
                 	__GETB1MN _GRADE_INFO,15
                +
001077 93e0 1e8f+STS _old_prttype + ( 1 ) , R30
                 	__PUTB1MN _old_prttype,1
                 ; 0000 04AD                     GRADE_INFO[g_SPECIAL].prttype = PRT_TYPE_NO;
001079 e0e0      	LDI  R30,LOW(0)
                +
00107a 93e0 0abf+STS _GRADE_INFO + ( 15 ) , R30
                 	__PUTB1MN _GRADE_INFO,15
                 ; 0000 04AE                     GRADE_INFO[g_SPECIAL].prtOutCount = 0;
                +
00107c ece2     +LDI R30 , LOW ( _GRADE_INFO + ( 18 ) )
00107d e0fa     +LDI R31 , HIGH ( _GRADE_INFO + ( 18 ) )
                 	__POINTW1MN _GRADE_INFO,18
00107e 940e 27d4 	CALL SUBOPT_0x2
                 ; 0000 04AF                 }
                 _0x237:
                 ; 0000 04B0             }
                 ; 0000 04B1         }
                 _0x233:
                 ; 0000 04B2         else if((gradeWeight < GRADE_INFO[g_SPECIAL].loLimit)&&(gradeWeight >=GRADE_INFO[g_BIG].loLimit)){ //::  ...
001080 c156      	RJMP _0x238
                 _0x230:
001081 940e 2b67 	CALL SUBOPT_0x7B
001083 172e      	CP   R18,R30
001084 073f      	CPC  R19,R31
001085 f42c      	BRGE _0x23A
001086 940e 2b6c 	CALL SUBOPT_0x7C
001088 172e      	CP   R18,R30
001089 073f      	CPC  R19,R31
00108a f40c      	BRGE _0x23B
                 _0x23A:
00108b c041      	RJMP _0x239
                 _0x23B:
                 ; 0000 04B3             grade_result = g_BIG;
00108c e012      	LDI  R17,LOW(2)
                 ; 0000 04B4             GRADE_DATA.gNumber[g_BIG]++;
                +
00108d e6a6     +LDI R26 , LOW ( _GRADE_DATA + ( 56 ) )
00108e e0bd     +LDI R27 , HIGH ( _GRADE_DATA + ( 56 ) )
                 	__POINTW2MN _GRADE_DATA,56
00108f 940e 2995 	CALL SUBOPT_0x3C
                 ; 0000 04B5             GRADE_DATA.gWeight[g_BIG] += gradeWeight;
                +
001091 91a0 0d8e+LDS R26 , _GRADE_DATA + ( 96 )
001093 91b0 0d8f+LDS R27 , _GRADE_DATA + ( 96 ) + 1
001095 9180 0d90+LDS R24 , _GRADE_DATA + ( 96 ) + 2
001097 9190 0d91+LDS R25 , _GRADE_DATA + ( 96 ) + 3
                 	__GETD2MN _GRADE_DATA,96
001099 940e 2bc5 	CALL SUBOPT_0x87
                +
00109b 93e0 0d8e+STS _GRADE_DATA + ( 96 ) , R30
00109d 93f0 0d8f+STS _GRADE_DATA + ( 96 ) + 1 , R31
00109f 9360 0d90+STS _GRADE_DATA + ( 96 ) + 2 , R22
0010a1 9370 0d91+STS _GRADE_DATA + ( 96 ) + 3 , R23
                 	__PUTD1MN _GRADE_DATA,96
                 ; 0000 04B6             //
                 ; 0000 04B7             if(GRADE_INFO[g_BIG].prttype!=PRT_TYPE_NO){
                +
0010a3 91e0 0ac9+LDS R30 , _GRADE_INFO + ( 25 )
                 	__GETB1MN _GRADE_INFO,25
0010a5 30e0      	CPI  R30,0
0010a6 f129      	BREQ _0x23C
                 ; 0000 04B8                 if(GRADE_INFO[g_BIG].prtOutCount<GRADE_INFO[g_BIG].prtSetCount || GRADE_INFO[g_BIG].prtSetCount==0) {
                +
0010a7 91a0 0acc+LDS R26 , _GRADE_INFO + ( 28 )
0010a9 91b0 0acd+LDS R27 , _GRADE_INFO + ( 28 ) + 1
                 	__GETW2MN _GRADE_INFO,28
                +
0010ab 91e0 0aca+LDS R30 , _GRADE_INFO + ( 26 )
0010ad 91f0 0acb+LDS R31 , _GRADE_INFO + ( 26 ) + 1
                 	__GETW1MN _GRADE_INFO,26
0010af 17ae      	CP   R26,R30
0010b0 07bf      	CPC  R27,R31
0010b1 f034      	BRLT _0x23E
                +
0010b2 91e0 0aca+LDS R30 , _GRADE_INFO + ( 26 )
0010b4 91f0 0acb+LDS R31 , _GRADE_INFO + ( 26 ) + 1
                 	__GETW1MN _GRADE_INFO,26
0010b6 9730      	SBIW R30,0
0010b7 f449      	BRNE _0x23D
                 _0x23E:
                 ; 0000 04B9                     GRADE_INFO[g_BIG].prtOutCount++;
                +
0010b8 ecac     +LDI R26 , LOW ( _GRADE_INFO + ( 28 ) )
0010b9 e0ba     +LDI R27 , HIGH ( _GRADE_INFO + ( 28 ) )
                 	__POINTW2MN _GRADE_INFO,28
0010ba 940e 2a4c 	CALL SUBOPT_0x57
                 ; 0000 04BA                     GRADE_DATA.pNumber[g_BIG]++;
                +
0010bc eba6     +LDI R26 , LOW ( _GRADE_DATA + ( 136 ) )
0010bd e0bd     +LDI R27 , HIGH ( _GRADE_DATA + ( 136 ) )
                 	__POINTW2MN _GRADE_DATA,136
0010be 940e 2995 	CALL SUBOPT_0x3C
                 ; 0000 04BB                 }
                 ; 0000 04BC                 else{
0010c0 c00b      	RJMP _0x240
                 _0x23D:
                 ; 0000 04BD                     old_prttype[g_BIG] = GRADE_INFO[g_BIG].prttype;
                +
0010c1 91e0 0ac9+LDS R30 , _GRADE_INFO + ( 25 )
                 	__GETB1MN _GRADE_INFO,25
                +
0010c3 93e0 1e90+STS _old_prttype + ( 2 ) , R30
                 	__PUTB1MN _old_prttype,2
                 ; 0000 04BE                     GRADE_INFO[g_BIG].prttype = PRT_TYPE_NO;
0010c5 e0e0      	LDI  R30,LOW(0)
                +
0010c6 93e0 0ac9+STS _GRADE_INFO + ( 25 ) , R30
                 	__PUTB1MN _GRADE_INFO,25
                 ; 0000 04BF                     GRADE_INFO[g_BIG].prtOutCount = 0;
                +
0010c8 ecec     +LDI R30 , LOW ( _GRADE_INFO + ( 28 ) )
0010c9 e0fa     +LDI R31 , HIGH ( _GRADE_INFO + ( 28 ) )
                 	__POINTW1MN _GRADE_INFO,28
0010ca 940e 27d4 	CALL SUBOPT_0x2
                 ; 0000 04C0                 }
                 _0x240:
                 ; 0000 04C1             }
                 ; 0000 04C2         }
                 _0x23C:
                 ; 0000 04C3         else if((gradeWeight < GRADE_INFO[g_BIG].loLimit)&&(gradeWeight >= GRADE_INFO[g_MIDDLE].loLimit)){ //::  ...
0010cc c10a      	RJMP _0x241
                 _0x239:
0010cd 940e 2b6c 	CALL SUBOPT_0x7C
0010cf 172e      	CP   R18,R30
0010d0 073f      	CPC  R19,R31
0010d1 f42c      	BRGE _0x243
0010d2 940e 2b71 	CALL SUBOPT_0x7D
0010d4 172e      	CP   R18,R30
0010d5 073f      	CPC  R19,R31
0010d6 f40c      	BRGE _0x244
                 _0x243:
0010d7 c041      	RJMP _0x242
                 _0x244:
                 ; 0000 04C4             grade_result = g_MIDDLE;
0010d8 e013      	LDI  R17,LOW(3)
                 ; 0000 04C5             GRADE_DATA.gNumber[g_MIDDLE]++;
                +
0010d9 e6aa     +LDI R26 , LOW ( _GRADE_DATA + ( 60 ) )
0010da e0bd     +LDI R27 , HIGH ( _GRADE_DATA + ( 60 ) )
                 	__POINTW2MN _GRADE_DATA,60
0010db 940e 2995 	CALL SUBOPT_0x3C
                 ; 0000 04C6             GRADE_DATA.gWeight[g_MIDDLE] += gradeWeight;
                +
0010dd 91a0 0d92+LDS R26 , _GRADE_DATA + ( 100 )
0010df 91b0 0d93+LDS R27 , _GRADE_DATA + ( 100 ) + 1
0010e1 9180 0d94+LDS R24 , _GRADE_DATA + ( 100 ) + 2
0010e3 9190 0d95+LDS R25 , _GRADE_DATA + ( 100 ) + 3
                 	__GETD2MN _GRADE_DATA,100
0010e5 940e 2bc5 	CALL SUBOPT_0x87
                +
0010e7 93e0 0d92+STS _GRADE_DATA + ( 100 ) , R30
0010e9 93f0 0d93+STS _GRADE_DATA + ( 100 ) + 1 , R31
0010eb 9360 0d94+STS _GRADE_DATA + ( 100 ) + 2 , R22
0010ed 9370 0d95+STS _GRADE_DATA + ( 100 ) + 3 , R23
                 	__PUTD1MN _GRADE_DATA,100
                 ; 0000 04C7             //
                 ; 0000 04C8             if(GRADE_INFO[g_MIDDLE].prttype!=PRT_TYPE_NO){
                +
0010ef 91e0 0ad3+LDS R30 , _GRADE_INFO + ( 35 )
                 	__GETB1MN _GRADE_INFO,35
0010f1 30e0      	CPI  R30,0
0010f2 f129      	BREQ _0x245
                 ; 0000 04C9                 if(GRADE_INFO[g_MIDDLE].prtOutCount<GRADE_INFO[g_MIDDLE].prtSetCount || GRADE_INFO[g_MIDDLE].prtSetCount ...
                +
0010f3 91a0 0ad6+LDS R26 , _GRADE_INFO + ( 38 )
0010f5 91b0 0ad7+LDS R27 , _GRADE_INFO + ( 38 ) + 1
                 	__GETW2MN _GRADE_INFO,38
                +
0010f7 91e0 0ad4+LDS R30 , _GRADE_INFO + ( 36 )
0010f9 91f0 0ad5+LDS R31 , _GRADE_INFO + ( 36 ) + 1
                 	__GETW1MN _GRADE_INFO,36
0010fb 17ae      	CP   R26,R30
0010fc 07bf      	CPC  R27,R31
0010fd f034      	BRLT _0x247
                +
0010fe 91e0 0ad4+LDS R30 , _GRADE_INFO + ( 36 )
001100 91f0 0ad5+LDS R31 , _GRADE_INFO + ( 36 ) + 1
                 	__GETW1MN _GRADE_INFO,36
001102 9730      	SBIW R30,0
001103 f449      	BRNE _0x246
                 _0x247:
                 ; 0000 04CA                     GRADE_INFO[g_MIDDLE].prtOutCount++;
                +
001104 eda6     +LDI R26 , LOW ( _GRADE_INFO + ( 38 ) )
001105 e0ba     +LDI R27 , HIGH ( _GRADE_INFO + ( 38 ) )
                 	__POINTW2MN _GRADE_INFO,38
001106 940e 2a4c 	CALL SUBOPT_0x57
                 ; 0000 04CB                     GRADE_DATA.pNumber[g_MIDDLE]++;
                +
001108 ebaa     +LDI R26 , LOW ( _GRADE_DATA + ( 140 ) )
001109 e0bd     +LDI R27 , HIGH ( _GRADE_DATA + ( 140 ) )
                 	__POINTW2MN _GRADE_DATA,140
00110a 940e 2995 	CALL SUBOPT_0x3C
                 ; 0000 04CC                 }
                 ; 0000 04CD                 else{
00110c c00b      	RJMP _0x249
                 _0x246:
                 ; 0000 04CE                     old_prttype[g_MIDDLE] = GRADE_INFO[g_MIDDLE].prttype;
                +
00110d 91e0 0ad3+LDS R30 , _GRADE_INFO + ( 35 )
                 	__GETB1MN _GRADE_INFO,35
                +
00110f 93e0 1e91+STS _old_prttype + ( 3 ) , R30
                 	__PUTB1MN _old_prttype,3
                 ; 0000 04CF                     GRADE_INFO[g_MIDDLE].prttype = PRT_TYPE_NO;
001111 e0e0      	LDI  R30,LOW(0)
                +
001112 93e0 0ad3+STS _GRADE_INFO + ( 35 ) , R30
                 	__PUTB1MN _GRADE_INFO,35
                 ; 0000 04D0                     GRADE_INFO[g_MIDDLE].prtOutCount = 0;
                +
001114 ede6     +LDI R30 , LOW ( _GRADE_INFO + ( 38 ) )
001115 e0fa     +LDI R31 , HIGH ( _GRADE_INFO + ( 38 ) )
                 	__POINTW1MN _GRADE_INFO,38
001116 940e 27d4 	CALL SUBOPT_0x2
                 ; 0000 04D1                 }
                 _0x249:
                 ; 0000 04D2             }
                 ; 0000 04D3         }
                 _0x245:
                 ; 0000 04D4         else if((gradeWeight < GRADE_INFO[g_MIDDLE].loLimit)&&(gradeWeight >= GRADE_INFO[g_SMALL].loLimit)){ // ::  ...
001118 c0be      	RJMP _0x24A
                 _0x242:
001119 940e 2b71 	CALL SUBOPT_0x7D
00111b 172e      	CP   R18,R30
00111c 073f      	CPC  R19,R31
00111d f42c      	BRGE _0x24C
00111e 940e 2b76 	CALL SUBOPT_0x7E
001120 172e      	CP   R18,R30
001121 073f      	CPC  R19,R31
001122 f40c      	BRGE _0x24D
                 _0x24C:
001123 c041      	RJMP _0x24B
                 _0x24D:
                 ; 0000 04D5             grade_result = g_SMALL;
001124 e014      	LDI  R17,LOW(4)
                 ; 0000 04D6             GRADE_DATA.gNumber[g_SMALL]++;
                +
001125 e6ae     +LDI R26 , LOW ( _GRADE_DATA + ( 64 ) )
001126 e0bd     +LDI R27 , HIGH ( _GRADE_DATA + ( 64 ) )
                 	__POINTW2MN _GRADE_DATA,64
001127 940e 2995 	CALL SUBOPT_0x3C
                 ; 0000 04D7             GRADE_DATA.gWeight[g_SMALL] += gradeWeight;
                +
001129 91a0 0d96+LDS R26 , _GRADE_DATA + ( 104 )
00112b 91b0 0d97+LDS R27 , _GRADE_DATA + ( 104 ) + 1
00112d 9180 0d98+LDS R24 , _GRADE_DATA + ( 104 ) + 2
00112f 9190 0d99+LDS R25 , _GRADE_DATA + ( 104 ) + 3
                 	__GETD2MN _GRADE_DATA,104
001131 940e 2bc5 	CALL SUBOPT_0x87
                +
001133 93e0 0d96+STS _GRADE_DATA + ( 104 ) , R30
001135 93f0 0d97+STS _GRADE_DATA + ( 104 ) + 1 , R31
001137 9360 0d98+STS _GRADE_DATA + ( 104 ) + 2 , R22
001139 9370 0d99+STS _GRADE_DATA + ( 104 ) + 3 , R23
                 	__PUTD1MN _GRADE_DATA,104
                 ; 0000 04D8             //
                 ; 0000 04D9             if(GRADE_INFO[g_SMALL].prttype!=PRT_TYPE_NO){
                +
00113b 91e0 0add+LDS R30 , _GRADE_INFO + ( 45 )
                 	__GETB1MN _GRADE_INFO,45
00113d 30e0      	CPI  R30,0
00113e f129      	BREQ _0x24E
                 ; 0000 04DA                 if(GRADE_INFO[g_SMALL].prtOutCount<GRADE_INFO[g_SMALL].prtSetCount || GRADE_INFO[g_SMALL].prtSetCount==0 ...
                +
00113f 91a0 0ae0+LDS R26 , _GRADE_INFO + ( 48 )
001141 91b0 0ae1+LDS R27 , _GRADE_INFO + ( 48 ) + 1
                 	__GETW2MN _GRADE_INFO,48
                +
001143 91e0 0ade+LDS R30 , _GRADE_INFO + ( 46 )
001145 91f0 0adf+LDS R31 , _GRADE_INFO + ( 46 ) + 1
                 	__GETW1MN _GRADE_INFO,46
001147 17ae      	CP   R26,R30
001148 07bf      	CPC  R27,R31
001149 f034      	BRLT _0x250
                +
00114a 91e0 0ade+LDS R30 , _GRADE_INFO + ( 46 )
00114c 91f0 0adf+LDS R31 , _GRADE_INFO + ( 46 ) + 1
                 	__GETW1MN _GRADE_INFO,46
00114e 9730      	SBIW R30,0
00114f f449      	BRNE _0x24F
                 _0x250:
                 ; 0000 04DB                     GRADE_INFO[g_SMALL].prtOutCount++;
                +
001150 eea0     +LDI R26 , LOW ( _GRADE_INFO + ( 48 ) )
001151 e0ba     +LDI R27 , HIGH ( _GRADE_INFO + ( 48 ) )
                 	__POINTW2MN _GRADE_INFO,48
001152 940e 2a4c 	CALL SUBOPT_0x57
                 ; 0000 04DC                     GRADE_DATA.pNumber[g_SMALL]++;
                +
001154 ebae     +LDI R26 , LOW ( _GRADE_DATA + ( 144 ) )
001155 e0bd     +LDI R27 , HIGH ( _GRADE_DATA + ( 144 ) )
                 	__POINTW2MN _GRADE_DATA,144
001156 940e 2995 	CALL SUBOPT_0x3C
                 ; 0000 04DD                 }
                 ; 0000 04DE                 else{
001158 c00b      	RJMP _0x252
                 _0x24F:
                 ; 0000 04DF                     old_prttype[g_SMALL] = GRADE_INFO[g_SMALL].prttype;
                +
001159 91e0 0add+LDS R30 , _GRADE_INFO + ( 45 )
                 	__GETB1MN _GRADE_INFO,45
                +
00115b 93e0 1e92+STS _old_prttype + ( 4 ) , R30
                 	__PUTB1MN _old_prttype,4
                 ; 0000 04E0                     GRADE_INFO[g_SMALL].prttype = PRT_TYPE_NO;
00115d e0e0      	LDI  R30,LOW(0)
                +
00115e 93e0 0add+STS _GRADE_INFO + ( 45 ) , R30
                 	__PUTB1MN _GRADE_INFO,45
                 ; 0000 04E1                     GRADE_INFO[g_SMALL].prtOutCount = 0;
                +
001160 eee0     +LDI R30 , LOW ( _GRADE_INFO + ( 48 ) )
001161 e0fa     +LDI R31 , HIGH ( _GRADE_INFO + ( 48 ) )
                 	__POINTW1MN _GRADE_INFO,48
001162 940e 27d4 	CALL SUBOPT_0x2
                 ; 0000 04E2                 }
                 _0x252:
                 ; 0000 04E3             }
                 ; 0000 04E4         }
                 _0x24E:
                 ; 0000 04E5         else if((gradeWeight < GRADE_INFO[g_SMALL].loLimit)&&(gradeWeight >= GRADE_INFO[g_LIGHT].loLimit)){ // ::  ...
001164 c072      	RJMP _0x253
                 _0x24B:
001165 940e 2b76 	CALL SUBOPT_0x7E
001167 172e      	CP   R18,R30
001168 073f      	CPC  R19,R31
001169 f42c      	BRGE _0x255
00116a 940e 2b7b 	CALL SUBOPT_0x7F
00116c 172e      	CP   R18,R30
00116d 073f      	CPC  R19,R31
00116e f40c      	BRGE _0x256
                 _0x255:
00116f c041      	RJMP _0x254
                 _0x256:
                 ; 0000 04E6             grade_result = g_LIGHT;
001170 e015      	LDI  R17,LOW(5)
                 ; 0000 04E7             GRADE_DATA.gNumber[g_LIGHT]++;
                +
001171 e7a2     +LDI R26 , LOW ( _GRADE_DATA + ( 68 ) )
001172 e0bd     +LDI R27 , HIGH ( _GRADE_DATA + ( 68 ) )
                 	__POINTW2MN _GRADE_DATA,68
001173 940e 2995 	CALL SUBOPT_0x3C
                 ; 0000 04E8             GRADE_DATA.gWeight[g_LIGHT] += gradeWeight;
                +
001175 91a0 0d9a+LDS R26 , _GRADE_DATA + ( 108 )
001177 91b0 0d9b+LDS R27 , _GRADE_DATA + ( 108 ) + 1
001179 9180 0d9c+LDS R24 , _GRADE_DATA + ( 108 ) + 2
00117b 9190 0d9d+LDS R25 , _GRADE_DATA + ( 108 ) + 3
                 	__GETD2MN _GRADE_DATA,108
00117d 940e 2bc5 	CALL SUBOPT_0x87
                +
00117f 93e0 0d9a+STS _GRADE_DATA + ( 108 ) , R30
001181 93f0 0d9b+STS _GRADE_DATA + ( 108 ) + 1 , R31
001183 9360 0d9c+STS _GRADE_DATA + ( 108 ) + 2 , R22
001185 9370 0d9d+STS _GRADE_DATA + ( 108 ) + 3 , R23
                 	__PUTD1MN _GRADE_DATA,108
                 ; 0000 04E9             //
                 ; 0000 04EA             if(GRADE_INFO[g_LIGHT].prttype!=PRT_TYPE_NO){
                +
001187 91e0 0ae7+LDS R30 , _GRADE_INFO + ( 55 )
                 	__GETB1MN _GRADE_INFO,55
001189 30e0      	CPI  R30,0
00118a f129      	BREQ _0x257
                 ; 0000 04EB                 if(GRADE_INFO[g_LIGHT].prtOutCount<GRADE_INFO[g_LIGHT].prtSetCount || GRADE_INFO[g_LIGHT].prtSetCount==0 ...
                +
00118b 91a0 0aea+LDS R26 , _GRADE_INFO + ( 58 )
00118d 91b0 0aeb+LDS R27 , _GRADE_INFO + ( 58 ) + 1
                 	__GETW2MN _GRADE_INFO,58
                +
00118f 91e0 0ae8+LDS R30 , _GRADE_INFO + ( 56 )
001191 91f0 0ae9+LDS R31 , _GRADE_INFO + ( 56 ) + 1
                 	__GETW1MN _GRADE_INFO,56
001193 17ae      	CP   R26,R30
001194 07bf      	CPC  R27,R31
001195 f034      	BRLT _0x259
                +
001196 91e0 0ae8+LDS R30 , _GRADE_INFO + ( 56 )
001198 91f0 0ae9+LDS R31 , _GRADE_INFO + ( 56 ) + 1
                 	__GETW1MN _GRADE_INFO,56
00119a 9730      	SBIW R30,0
00119b f449      	BRNE _0x258
                 _0x259:
                 ; 0000 04EC                     GRADE_INFO[g_LIGHT].prtOutCount++;
                +
00119c eeaa     +LDI R26 , LOW ( _GRADE_INFO + ( 58 ) )
00119d e0ba     +LDI R27 , HIGH ( _GRADE_INFO + ( 58 ) )
                 	__POINTW2MN _GRADE_INFO,58
00119e 940e 2a4c 	CALL SUBOPT_0x57
                 ; 0000 04ED                     GRADE_DATA.pNumber[g_LIGHT]++;
                +
0011a0 eca2     +LDI R26 , LOW ( _GRADE_DATA + ( 148 ) )
0011a1 e0bd     +LDI R27 , HIGH ( _GRADE_DATA + ( 148 ) )
                 	__POINTW2MN _GRADE_DATA,148
0011a2 940e 2995 	CALL SUBOPT_0x3C
                 ; 0000 04EE                 }
                 ; 0000 04EF                 else{
0011a4 c00b      	RJMP _0x25B
                 _0x258:
                 ; 0000 04F0                     old_prttype[g_LIGHT] = GRADE_INFO[g_LIGHT].prttype;
                +
0011a5 91e0 0ae7+LDS R30 , _GRADE_INFO + ( 55 )
                 	__GETB1MN _GRADE_INFO,55
                +
0011a7 93e0 1e93+STS _old_prttype + ( 5 ) , R30
                 	__PUTB1MN _old_prttype,5
                 ; 0000 04F1                     GRADE_INFO[g_LIGHT].prttype = PRT_TYPE_NO;
0011a9 e0e0      	LDI  R30,LOW(0)
                +
0011aa 93e0 0ae7+STS _GRADE_INFO + ( 55 ) , R30
                 	__PUTB1MN _GRADE_INFO,55
                 ; 0000 04F2                     GRADE_INFO[g_LIGHT].prtOutCount = 0;
                +
0011ac eeea     +LDI R30 , LOW ( _GRADE_INFO + ( 58 ) )
0011ad e0fa     +LDI R31 , HIGH ( _GRADE_INFO + ( 58 ) )
                 	__POINTW1MN _GRADE_INFO,58
0011ae 940e 27d4 	CALL SUBOPT_0x2
                 ; 0000 04F3                 }
                 _0x25B:
                 ; 0000 04F4             }
                 ; 0000 04F5         }
                 _0x257:
                 ; 0000 04F6         else if( (gradeWeight < GRADE_INFO[g_LIGHT].loLimit) && (gradeWeight >= 100)){       // ::   ...
0011b0 c026      	RJMP _0x25C
                 _0x254:
0011b1 940e 2b7b 	CALL SUBOPT_0x7F
0011b3 172e      	CP   R18,R30
0011b4 073f      	CPC  R19,R31
0011b5 f424      	BRGE _0x25E
                +
0011b6 3624     +CPI R18 , LOW ( 100 )
0011b7 e0e0     +LDI R30 , HIGH ( 100 )
0011b8 073e     +CPC R19 , R30
                 	__CPWRN 18,19,100
0011b9 f40c      	BRGE _0x25F
                 _0x25E:
0011ba c01c      	RJMP _0x25D
                 _0x25F:
                 ; 0000 04F7             grade_result = g_ETC;
0011bb e018      	LDI  R17,LOW(8)
                 ; 0000 04F8             GRADE_DATA.gNumber[g_ETC]++;
                +
0011bc e7ae     +LDI R26 , LOW ( _GRADE_DATA + ( 80 ) )
0011bd e0bd     +LDI R27 , HIGH ( _GRADE_DATA + ( 80 ) )
                 	__POINTW2MN _GRADE_DATA,80
0011be 940e 2995 	CALL SUBOPT_0x3C
                 ; 0000 04F9             GRADE_DATA.gWeight[g_ETC] += gradeWeight;
0011c0 940e 2b97 	CALL SUBOPT_0x84
                 ; 0000 04FA             //
                 ; 0000 04FB             if(GRADE_INFO[g_ETC].prttype!=PRT_TYPE_NO){
0011c2 f0a1      	BREQ _0x260
                 ; 0000 04FC                 if(GRADE_INFO[g_ETC].prtOutCount<GRADE_INFO[g_ETC].prtSetCount || GRADE_INFO[g_ETC].prtSetCount==0) {
0011c3 940e 2bb0 	CALL SUBOPT_0x85
0011c5 f034      	BRLT _0x262
                +
0011c6 91e0 0b06+LDS R30 , _GRADE_INFO + ( 86 )
0011c8 91f0 0b07+LDS R31 , _GRADE_INFO + ( 86 ) + 1
                 	__GETW1MN _GRADE_INFO,86
0011ca 9730      	SBIW R30,0
0011cb f449      	BRNE _0x261
                 _0x262:
                 ; 0000 04FD                     GRADE_INFO[g_ETC].prtOutCount++;
                +
0011cc e0a8     +LDI R26 , LOW ( _GRADE_INFO + ( 88 ) )
0011cd e0bb     +LDI R27 , HIGH ( _GRADE_INFO + ( 88 ) )
                 	__POINTW2MN _GRADE_INFO,88
0011ce 940e 2a4c 	CALL SUBOPT_0x57
                 ; 0000 04FE                     GRADE_DATA.pNumber[g_ETC]++;
                +
0011d0 ecae     +LDI R26 , LOW ( _GRADE_DATA + ( 160 ) )
0011d1 e0bd     +LDI R27 , HIGH ( _GRADE_DATA + ( 160 ) )
                 	__POINTW2MN _GRADE_DATA,160
0011d2 940e 2995 	CALL SUBOPT_0x3C
                 ; 0000 04FF                 }
                 ; 0000 0500                 else{
0011d4 c002      	RJMP _0x264
                 _0x261:
                 ; 0000 0501                     old_prttype[g_ETC] = GRADE_INFO[g_ETC].prttype;
0011d5 940e 2bbb 	CALL SUBOPT_0x86
                 ; 0000 0502                     GRADE_INFO[g_ETC].prttype = PRT_TYPE_NO;
                 ; 0000 0503                     GRADE_INFO[g_ETC].prtOutCount = 0;
                 ; 0000 0504                 }
                 _0x264:
                 ; 0000 0505             }
                 ; 0000 0506         }
                 _0x260:
                 ; 0000 0507     }
                 _0x25D:
                 _0x25C:
                 _0x253:
                 _0x24A:
                 _0x241:
                 _0x238:
                 _0x22F:
                 _0x226:
                 ; 0000 0508     else{
0011d7 c085      	RJMP _0x265
                 _0x21D:
                 ; 0000 0509         if(dotCHKCNT[ch]>5){
0011d8 940e 2b85 	CALL SUBOPT_0x81
0011da 81a0      	LD   R26,Z
                 ; 0000 050A //            grade_result = g_DOT;
                 ; 0000 050B //            GRADE_DATA.gNumber[g_DOT]++;
                 ; 0000 050C //            GRADE_DATA.gWeight[g_DOT] += gradeWeight;
                 ; 0000 050D //            //version 3.4.2
                 ; 0000 050E //            //
                 ; 0000 050F //            if(GRADE_INFO[g_DOT].prttype!=PRT_TYPE_NO){
                 ; 0000 0510 //                if(GRADE_INFO[g_DOT].prtOutCount<GRADE_INFO[g_DOT].prtSetCount || GRADE_INFO[g_DOT].prtSetCount==0) {
                 ; 0000 0511 //                    GRADE_INFO[g_DOT].prtOutCount++;
                 ; 0000 0512 //                    GRADE_DATA.pNumber[g_DOT]++;
                 ; 0000 0513 //                }
                 ; 0000 0514 //                else{
                 ; 0000 0515 //                    old_prttype[g_DOT] = GRADE_INFO[g_DOT].prttype;
                 ; 0000 0516 //                    GRADE_INFO[g_DOT].prttype = PRT_TYPE_NO;
                 ; 0000 0517 //                    GRADE_INFO[g_DOT].prtOutCount = 0;
                 ; 0000 0518 //                }
                 ; 0000 0519 //            }
                 ; 0000 051A //
                 ; 0000 051B //            dotCHKCNT[ch] = 0;
                 ; 0000 051C         }
                 ; 0000 051D         //ver3.4.1 =  acd  
                 ; 0000 051E         crackdata = (ACD_DATA_BUF[SYS_INFO.ACD_CHK_POS]>>ch) & 0x01;
0011db 940e 2a45 	CALL SUBOPT_0x56
0011dd 8ded      	LDD  R30,Y+29
0011de 940e 304e 	CALL __LSRB12
0011e0 70e1      	ANDI R30,LOW(0x1)
0011e1 83ee      	STD  Y+6,R30
                 ; 0000 051F         //if(crackCHKCNT[ch]>5){
                 ; 0000 0520         if(crackdata==0x01){
0011e2 81ae      	LDD  R26,Y+6
0011e3 30a1      	CPI  R26,LOW(0x1)
0011e4 f009      	BREQ PC+2
0011e5 c077      	RJMP _0x267
                 ; 0000 0521 
                 ; 0000 0522             if(debugMode==3){
0011e6 91a0 1faa 	LDS  R26,_debugMode
0011e8 30a3      	CPI  R26,LOW(0x3)
0011e9 f4e9      	BRNE _0x268
                 ; 0000 0523 
                 ; 0000 0524                 UDR1 =gradeWeight>>8;                           while(!(UCSR1A & 0x20));
0011ea 01f9      	MOVW R30,R18
0011eb 940e 2b5d 	CALL SUBOPT_0x79
                 _0x269:
0011ed 91e0 00c8 	LDS  R30,200
0011ef 72e0      	ANDI R30,LOW(0x20)
0011f0 f3e1      	BREQ _0x269
                 ; 0000 0525                 UDR1 =gradeWeight;                              while(!(UCSR1A & 0x20));
0011f1 9320 00ce 	STS  206,R18
                 _0x26C:
0011f3 91e0 00c8 	LDS  R30,200
0011f5 72e0      	ANDI R30,LOW(0x20)
0011f6 f3e1      	BREQ _0x26C
                 ; 0000 0526                 UDR1 =ACD_DATA_BUF[SYS_INFO.ACD_CHK_POS];            while(!(UCSR1A & 0x20));
0011f7 940e 2b8a 	CALL SUBOPT_0x82
0011f9 81e0      	LD   R30,Z
0011fa 93e0 00ce 	STS  206,R30
                 _0x26F:
0011fc 91e0 00c8 	LDS  R30,200
0011fe 72e0      	ANDI R30,LOW(0x20)
0011ff f3e1      	BREQ _0x26F
                 ; 0000 0527                 UDR1 =0xFE;                                          while(!(UCSR1A & 0x20));
001200 efee      	LDI  R30,LOW(254)
001201 93e0 00ce 	STS  206,R30
                 _0x272:
001203 91e0 00c8 	LDS  R30,200
001205 72e0      	ANDI R30,LOW(0x20)
001206 f3e1      	BREQ _0x272
                 ; 0000 0528             }
                 ; 0000 0529             grade_result = g_CRACK;
                 _0x268:
001207 e016      	LDI  R17,LOW(6)
                 ; 0000 052A 
                 ; 0000 052B             GRADE_DATA.gECrack[ch]=1;
                +
001208 e4a6     +LDI R26 , LOW ( _GRADE_DATA + ( 24 ) )
001209 e0bd     +LDI R27 , HIGH ( _GRADE_DATA + ( 24 ) )
                 	__POINTW2MN _GRADE_DATA,24
00120a 8ded      	LDD  R30,Y+29
00120b e0f0      	LDI  R31,0
00120c 940e 2bcb 	CALL SUBOPT_0x88
                +
00120e e0e1     +LDI R30 , LOW ( 0x1 )
00120f e0f0     +LDI R31 , HIGH ( 0x1 )
001210 e060     +LDI R22 , BYTE3 ( 0x1 )
001211 e070     +LDI R23 , BYTE4 ( 0x1 )
                 	__GETD1N 0x1
001212 940e 314e 	CALL __PUTDP1
                 ; 0000 052C 
                 ; 0000 052D             GRADE_DATA.gNumber[g_CRACK]++;
                +
001214 e7a6     +LDI R26 , LOW ( _GRADE_DATA + ( 72 ) )
001215 e0bd     +LDI R27 , HIGH ( _GRADE_DATA + ( 72 ) )
                 	__POINTW2MN _GRADE_DATA,72
001216 940e 2995 	CALL SUBOPT_0x3C
                 ; 0000 052E             GRADE_DATA.gWeight[g_CRACK] += gradeWeight;
                +
001218 91a0 0d9e+LDS R26 , _GRADE_DATA + ( 112 )
00121a 91b0 0d9f+LDS R27 , _GRADE_DATA + ( 112 ) + 1
00121c 9180 0da0+LDS R24 , _GRADE_DATA + ( 112 ) + 2
00121e 9190 0da1+LDS R25 , _GRADE_DATA + ( 112 ) + 3
                 	__GETD2MN _GRADE_DATA,112
001220 940e 2bc5 	CALL SUBOPT_0x87
                +
001222 93e0 0d9e+STS _GRADE_DATA + ( 112 ) , R30
001224 93f0 0d9f+STS _GRADE_DATA + ( 112 ) + 1 , R31
001226 9360 0da0+STS _GRADE_DATA + ( 112 ) + 2 , R22
001228 9370 0da1+STS _GRADE_DATA + ( 112 ) + 3 , R23
                 	__PUTD1MN _GRADE_DATA,112
                 ; 0000 052F 
                 ; 0000 0530             //version 3.4.2
                 ; 0000 0531             //
                 ; 0000 0532             if(GRADE_INFO[g_CRACK].prttype!=PRT_TYPE_NO){
                +
00122a 91e0 0af1+LDS R30 , _GRADE_INFO + ( 65 )
                 	__GETB1MN _GRADE_INFO,65
00122c 30e0      	CPI  R30,0
00122d f129      	BREQ _0x275
                 ; 0000 0533                 if(GRADE_INFO[g_CRACK].prtOutCount<GRADE_INFO[g_CRACK].prtSetCount || GRADE_INFO[g_CRACK].prtSetCount==0 ...
                +
00122e 91a0 0af4+LDS R26 , _GRADE_INFO + ( 68 )
001230 91b0 0af5+LDS R27 , _GRADE_INFO + ( 68 ) + 1
                 	__GETW2MN _GRADE_INFO,68
                +
001232 91e0 0af2+LDS R30 , _GRADE_INFO + ( 66 )
001234 91f0 0af3+LDS R31 , _GRADE_INFO + ( 66 ) + 1
                 	__GETW1MN _GRADE_INFO,66
001236 17ae      	CP   R26,R30
001237 07bf      	CPC  R27,R31
001238 f034      	BRLT _0x277
                +
001239 91e0 0af2+LDS R30 , _GRADE_INFO + ( 66 )
00123b 91f0 0af3+LDS R31 , _GRADE_INFO + ( 66 ) + 1
                 	__GETW1MN _GRADE_INFO,66
00123d 9730      	SBIW R30,0
00123e f449      	BRNE _0x276
                 _0x277:
                 ; 0000 0534                     GRADE_INFO[g_CRACK].prtOutCount++;
                +
00123f efa4     +LDI R26 , LOW ( _GRADE_INFO + ( 68 ) )
001240 e0ba     +LDI R27 , HIGH ( _GRADE_INFO + ( 68 ) )
                 	__POINTW2MN _GRADE_INFO,68
001241 940e 2a4c 	CALL SUBOPT_0x57
                 ; 0000 0535                     GRADE_DATA.pNumber[g_CRACK]++;
                +
001243 eca6     +LDI R26 , LOW ( _GRADE_DATA + ( 152 ) )
001244 e0bd     +LDI R27 , HIGH ( _GRADE_DATA + ( 152 ) )
                 	__POINTW2MN _GRADE_DATA,152
001245 940e 2995 	CALL SUBOPT_0x3C
                 ; 0000 0536                 }
                 ; 0000 0537                 else{
001247 c00b      	RJMP _0x279
                 _0x276:
                 ; 0000 0538                     old_prttype[g_CRACK] = GRADE_INFO[g_CRACK].prttype;
                +
001248 91e0 0af1+LDS R30 , _GRADE_INFO + ( 65 )
                 	__GETB1MN _GRADE_INFO,65
                +
00124a 93e0 1e94+STS _old_prttype + ( 6 ) , R30
                 	__PUTB1MN _old_prttype,6
                 ; 0000 0539                     GRADE_INFO[g_CRACK].prttype = PRT_TYPE_NO;
00124c e0e0      	LDI  R30,LOW(0)
                +
00124d 93e0 0af1+STS _GRADE_INFO + ( 65 ) , R30
                 	__PUTB1MN _GRADE_INFO,65
                 ; 0000 053A                     GRADE_INFO[g_CRACK].prtOutCount = 0;
                +
00124f efe4     +LDI R30 , LOW ( _GRADE_INFO + ( 68 ) )
001250 e0fa     +LDI R31 , HIGH ( _GRADE_INFO + ( 68 ) )
                 	__POINTW1MN _GRADE_INFO,68
001251 940e 27d4 	CALL SUBOPT_0x2
                 ; 0000 053B                 }
                 _0x279:
                 ; 0000 053C             }
                 ; 0000 053D             //version 3.4.1
                 ; 0000 053E             ACD_DATA_BUF[SYS_INFO.ACD_CHK_POS] &= ~(0x01<<ch);
                 _0x275:
001253 940e 2b8a 	CALL SUBOPT_0x82
001255 01bf      	MOVW R22,R30
001256 8010      	LD   R1,Z
001257 940e 2b80 	CALL SUBOPT_0x80
001259 95e0      	COM  R30
00125a 21e1      	AND  R30,R1
00125b 01db      	MOVW R26,R22
00125c 93ec      	ST   X,R30
                 ; 0000 053F             //crackCHKCNT[ch] = 0;
                 ; 0000 0540         }
                 ; 0000 0541     }
                 _0x267:
                 _0x265:
                 ; 0000 0542     ////Grading Value Bit Table
                 ; 0000 0543     // 0000 | 0000 | 0000 | 0000
                 ; 0000 0544     //--------------------------
                 ; 0000 0545     //   |      |     |       |-> Solenoid Position || Low Nibble
                 ; 0000 0546     //   |      |     |---------> Solenoid Position || High Nibble
                 ; 0000 0547     //   |      |---------------> Grade Position
                 ; 0000 0548     //   |----------------------> Crack/DOT Info, PRT TYPE || 00:CLean, 01:CRACK(0x8000), 02:DOT(0x4000), 00:NONE, 01:PR ...
                 ; 0000 0549 
                 ; 0000 054A     if(grade_result != 0xFF){
00125d 3f1f      	CPI  R17,255
00125e f409      	BRNE PC+2
00125f c11c      	RJMP _0x27A
                 ; 0000 054B         GRADE_DATA.gTNumber++;
                +
001260 eda6     +LDI R26 , LOW ( _GRADE_DATA + ( 168 ) )
001261 e0bd     +LDI R27 , HIGH ( _GRADE_DATA + ( 168 ) )
                 	__POINTW2MN _GRADE_DATA,168
001262 940e 2995 	CALL SUBOPT_0x3C
                 ; 0000 054C         GRADE_DATA.gTWeight += gradeWeight;
                +
001264 91a0 0dda+LDS R26 , _GRADE_DATA + ( 172 )
001266 91b0 0ddb+LDS R27 , _GRADE_DATA + ( 172 ) + 1
001268 9180 0ddc+LDS R24 , _GRADE_DATA + ( 172 ) + 2
00126a 9190 0ddd+LDS R25 , _GRADE_DATA + ( 172 ) + 3
                 	__GETD2MN _GRADE_DATA,172
00126c 940e 2bc5 	CALL SUBOPT_0x87
00126e 940e 2bd0 	CALL SUBOPT_0x89
                 ; 0000 054D         BucketData_Wight[MAX_LDCELL-ch+1] = gradeWeight;
001270 8ded      	LDD  R30,Y+29
001271 e0f0      	LDI  R31,0
001272 e0a6      	LDI  R26,LOW(6)
001273 e0b0      	LDI  R27,HIGH(6)
001274 940e 315e 	CALL __SWAPW12
001276 1bea      	SUB  R30,R26
001277 0bfb      	SBC  R31,R27
001278 9631      	ADIW R30,1
001279 940e 2bd9 	CALL SUBOPT_0x8A
00127b 8320      	ST   Z,R18
00127c 8331      	STD  Z+1,R19
                 ; 0000 054E         set_bucket_data = 0;
                +
00127d e040     +LDI R20 , LOW ( 0 )
00127e e050     +LDI R21 , HIGH ( 0 )
                 	__GETWRN 20,21,0
                 ; 0000 054F         //#########################################
                 ; 0000 0550         //###  -      ###
                 ; 0000 0551         //###  2014.11.24                   ###
                 ; 0000 0552         //###     ###
                 ; 0000 0553         //###       ###
                 ; 0000 0554         //#########################################
                 ; 0000 0555 
                 ; 0000 0556         //  
                 ; 0000 0557         if(GRADE_DATA.gNumber[grade_result]<=0){
00127f 940e 2be0 	CALL SUBOPT_0x8B
001281 940e 29f7 	CALL SUBOPT_0x4B
001283 940e 3165 	CALL __CPD01
001285 f0ac      	BRLT _0x27B
                 ; 0000 0558             GRADE_DATA.gNumber[grade_result] = 0;
001286 940e 2be0 	CALL SUBOPT_0x8B
001288 940e 2a09 	CALL SUBOPT_0x4D
                 ; 0000 0559             set_bucket_data = ((GRADE_DATA.gNumber[grade_result]) % GRADE_INFO[grade_result].solenoidnumber);
00128a 940e 2be0 	CALL SUBOPT_0x8B
00128c 940e 29f7 	CALL SUBOPT_0x4B
00128e 937f      	PUSH R23
00128f 936f      	PUSH R22
001290 93ff      	PUSH R31
001291 93ef      	PUSH R30
001292 940e 2be5 	CALL SUBOPT_0x8C
001294 91af      	POP  R26
001295 91bf      	POP  R27
001296 918f      	POP  R24
001297 919f      	POP  R25
001298 940e 2bed 	CALL SUBOPT_0x8D
                 ; 0000 055A         }
                 ; 0000 055B         else{
00129a c08c      	RJMP _0x27C
                 _0x27B:
                 ; 0000 055C             //PackerSharedEnable 9      .
                 ; 0000 055D             if(PackerSharedEnable!=9){
00129b 91a0 2044 	LDS  R26,_PackerSharedEnable
00129d 30a9      	CPI  R26,LOW(0x9)
00129e f409      	BRNE PC+2
00129f c064      	RJMP _0x27D
                 ; 0000 055E                 if(grade_result<PackerSharedEnable){
0012a0 91e0 2044 	LDS  R30,_PackerSharedEnable
0012a2 171e      	CP   R17,R30
0012a3 f498      	BRSH _0x27E
                 ; 0000 055F                     set_bucket_data = ((GRADE_DATA.gNumber[grade_result]-1) % GRADE_INFO[grade_result].solenoidnumber);
0012a4 940e 2be0 	CALL SUBOPT_0x8B
0012a6 940e 29f7 	CALL SUBOPT_0x4B
0012a8 940e 2bf3 	CALL SUBOPT_0x8E
0012aa 937f      	PUSH R23
0012ab 936f      	PUSH R22
0012ac 93ff      	PUSH R31
0012ad 93ef      	PUSH R30
0012ae 940e 2be5 	CALL SUBOPT_0x8C
0012b0 91af      	POP  R26
0012b1 91bf      	POP  R27
0012b2 918f      	POP  R24
0012b3 919f      	POP  R25
0012b4 940e 2bed 	CALL SUBOPT_0x8D
                 ; 0000 0560                 }
                 ; 0000 0561                 else{
0012b6 c04c      	RJMP _0x27F
                 _0x27E:
                 ; 0000 0562 
                 ; 0000 0563                     eggcnt_sum = 0;
0012b7 e0e0      	LDI  R30,LOW(0)
                +
0012b8 83ef     +STD Y + 7 , R30
0012b9 87e8     +STD Y + 7 + 1 , R30
0012ba 87e9     +STD Y + 7 + 2 , R30
0012bb 87ea     +STD Y + 7 + 3 , R30
                 	__CLRD1S 7
                 ; 0000 0564 
                 ; 0000 0565                     for(k=PackerSharedEnable;k<=8;k++){
0012bc 9100 2044 	LDS  R16,_PackerSharedEnable
                 _0x281:
0012be 3009      	CPI  R16,9
0012bf f450      	BRSH _0x282
                 ; 0000 0566                         eggcnt_sum +=  GRADE_DATA.gNumber[k];
                +
0012c0 e5ae     +LDI R26 , LOW ( _GRADE_DATA + ( 48 ) )
0012c1 e0bd     +LDI R27 , HIGH ( _GRADE_DATA + ( 48 ) )
                 	__POINTW2MN _GRADE_DATA,48
0012c2 2fe0      	MOV  R30,R16
0012c3 e0f0      	LDI  R31,0
0012c4 940e 29f7 	CALL SUBOPT_0x4B
0012c6 940e 2b3d 	CALL SUBOPT_0x73
                 ; 0000 0567                     }
0012c8 5f0f      	SUBI R16,-1
0012c9 cff4      	RJMP _0x281
                 _0x282:
                 ; 0000 0568 
                 ; 0000 0569                     if(PackerSharedEnable==8){
0012ca 91a0 2044 	LDS  R26,_PackerSharedEnable
0012cc 30a8      	CPI  R26,LOW(0x8)
0012cd f451      	BRNE _0x283
                 ; 0000 056A                         eggcnt_sum += GRADE_DATA.gNumber[g_CRACK];
                +
0012ce 91e0 0d76+LDS R30 , _GRADE_DATA + ( 72 )
0012d0 91f0 0d77+LDS R31 , _GRADE_DATA + ( 72 ) + 1
0012d2 9160 0d78+LDS R22 , _GRADE_DATA + ( 72 ) + 2
0012d4 9170 0d79+LDS R23 , _GRADE_DATA + ( 72 ) + 3
                 	__GETD1MN _GRADE_DATA,72
0012d6 940e 2b3d 	CALL SUBOPT_0x73
                 ; 0000 056B                     }
                 ; 0000 056C                     set_bucket_data = (eggcnt_sum-1) % GRADE_INFO[g_CRACK].solenoidnumber;
                 _0x283:
                +
0012d8 81ef     +LDD R30 , Y + 7
0012d9 85f8     +LDD R31 , Y + 7 + 1
0012da 8569     +LDD R22 , Y + 7 + 2
0012db 857a     +LDD R23 , Y + 7 + 3
                 	__GETD1S 7
0012dc 940e 2bf3 	CALL SUBOPT_0x8E
0012de 01df      	MOVW R26,R30
0012df 01cb      	MOVW R24,R22
                +
0012e0 91e0 0af0+LDS R30 , _GRADE_INFO + ( 64 )
                 	__GETB1MN _GRADE_INFO,64
0012e2 e0f0      	LDI  R31,0
0012e3 940e 2bed 	CALL SUBOPT_0x8D
                 ; 0000 056D 
                 ; 0000 056E                     if(debugMode==3){
0012e5 91a0 1faa 	LDS  R26,_debugMode
0012e7 30a3      	CPI  R26,LOW(0x3)
0012e8 f4d1      	BRNE _0x284
                 ; 0000 056F                         UDR1 =grade_result;            while(!(UCSR1A & 0x20));
0012e9 9310 00ce 	STS  206,R17
                 _0x285:
0012eb 91e0 00c8 	LDS  R30,200
0012ed 72e0      	ANDI R30,LOW(0x20)
0012ee f3e1      	BREQ _0x285
                 ; 0000 0570                         UDR1 =set_bucket_data>>8;            while(!(UCSR1A & 0x20));
0012ef 01fa      	MOVW R30,R20
0012f0 940e 2b5d 	CALL SUBOPT_0x79
                 _0x288:
0012f2 91e0 00c8 	LDS  R30,200
0012f4 72e0      	ANDI R30,LOW(0x20)
0012f5 f3e1      	BREQ _0x288
                 ; 0000 0571                         UDR1 =set_bucket_data;            while(!(UCSR1A & 0x20));
0012f6 9340 00ce 	STS  206,R20
                 _0x28B:
0012f8 91e0 00c8 	LDS  R30,200
0012fa 72e0      	ANDI R30,LOW(0x20)
0012fb f3e1      	BREQ _0x28B
                 ; 0000 0572                         UDR1 =0xDF;            while(!(UCSR1A & 0x20));
0012fc edef      	LDI  R30,LOW(223)
0012fd 93e0 00ce 	STS  206,R30
                 _0x28E:
0012ff 91e0 00c8 	LDS  R30,200
001301 72e0      	ANDI R30,LOW(0x20)
001302 f3e1      	BREQ _0x28E
                 ; 0000 0573                     }
                 ; 0000 0574                 }
                 _0x284:
                 _0x27F:
                 ; 0000 0575             }
                 ; 0000 0576             else{
001303 c023      	RJMP _0x291
                 _0x27D:
                 ; 0000 0577                 set_bucket_data = ((GRADE_DATA.gNumber[grade_result]-1) % GRADE_INFO[grade_result].solenoidnumber);
001304 940e 2be0 	CALL SUBOPT_0x8B
001306 940e 29f7 	CALL SUBOPT_0x4B
001308 940e 2bf3 	CALL SUBOPT_0x8E
00130a 937f      	PUSH R23
00130b 936f      	PUSH R22
00130c 93ff      	PUSH R31
00130d 93ef      	PUSH R30
00130e 940e 2be5 	CALL SUBOPT_0x8C
001310 91af      	POP  R26
001311 91bf      	POP  R27
001312 918f      	POP  R24
001313 919f      	POP  R25
001314 940e 2bed 	CALL SUBOPT_0x8D
                 ; 0000 0578                 if(debugMode==3){
001316 91a0 1faa 	LDS  R26,_debugMode
001318 30a3      	CPI  R26,LOW(0x3)
001319 f469      	BRNE _0x292
                 ; 0000 0579                             UDR1 =set_bucket_data;            while(!(UCSR1A & 0x20));
00131a 9340 00ce 	STS  206,R20
                 _0x293:
00131c 91e0 00c8 	LDS  R30,200
00131e 72e0      	ANDI R30,LOW(0x20)
00131f f3e1      	BREQ _0x293
                 ; 0000 057A                             UDR1 =0xDC;            while(!(UCSR1A & 0x20));
001320 edec      	LDI  R30,LOW(220)
001321 93e0 00ce 	STS  206,R30
                 _0x296:
001323 91e0 00c8 	LDS  R30,200
001325 72e0      	ANDI R30,LOW(0x20)
001326 f3e1      	BREQ _0x296
                 ; 0000 057B                 }
                 ; 0000 057C             }
                 _0x292:
                 _0x291:
                 ; 0000 057D         }
                 _0x27C:
                 ; 0000 057E 
                 ; 0000 057F 
                 ; 0000 0580         // - .
                 ; 0000 0581         //#########################################
                 ; 0000 0582         //###  -      ###
                 ; 0000 0583         //###  2014.11.24                   ###
                 ; 0000 0584         //###     ###
                 ; 0000 0585         //###       ###
                 ; 0000 0586         //#########################################
                 ; 0000 0587          if(PackerSharedEnable!=9){
001327 91a0 2044 	LDS  R26,_PackerSharedEnable
001329 30a9      	CPI  R26,LOW(0x9)
00132a f049      	BREQ _0x299
                 ; 0000 0588             if(grade_result<PackerSharedEnable){
00132b 91e0 2044 	LDS  R30,_PackerSharedEnable
00132d 171e      	CP   R17,R30
00132e f418      	BRSH _0x29A
                 ; 0000 0589                 set_bucket_data |= (grade_result+1) <<  8;
00132f 940e 2bf8 	CALL SUBOPT_0x8F
                 ; 0000 058A             }
                 ; 0000 058B             else{
001331 c001      	RJMP _0x29B
                 _0x29A:
                 ; 0000 058C                 set_bucket_data |= (g_CRACK+1) <<  8;
001332 6057      	ORI  R21,HIGH(1792)
                 ; 0000 058D             }
                 _0x29B:
                 ; 0000 058E          }
                 ; 0000 058F          else
001333 c002      	RJMP _0x29C
                 _0x299:
                 ; 0000 0590          {
                 ; 0000 0591             set_bucket_data |= (grade_result+1) <<  8;
001334 940e 2bf8 	CALL SUBOPT_0x8F
                 ; 0000 0592          }
                 _0x29C:
                 ; 0000 0593 
                 ; 0000 0594 
                 ; 0000 0595         //
                 ; 0000 0596         //19.08.14     
                 ; 0000 0597         // 0~7  
                 ; 0000 0598         //   +    
                 ; 0000 0599         if(Marking_Version == 1)
001336 91a0 1c6b 	LDS  R26,_Marking_Version
001338 30a1      	CPI  R26,LOW(0x1)
001339 f439      	BRNE _0x29D
                 ; 0000 059A         {
                 ; 0000 059B             if(GRADE_INFO[grade_result].prttype>PRT_TYPE_NO)
00133a 940e 27ce 	CALL SUBOPT_0x1
00133c 81a0      	LD   R26,Z
00133d 30a1      	CPI  R26,LOW(0x1)
00133e f008      	BRLO _0x29E
                 ; 0000 059C             {
                 ; 0000 059D                 set_bucket_data |=0x1000;
00133f 6150      	ORI  R21,HIGH(4096)
                 ; 0000 059E             }
                 ; 0000 059F         }
                 _0x29E:
                 ; 0000 05A0         else if(Marking_Version == 0)
001340 c011      	RJMP _0x29F
                 _0x29D:
001341 91e0 1c6b 	LDS  R30,_Marking_Version
001343 30e0      	CPI  R30,0
001344 f469      	BRNE _0x2A0
                 ; 0000 05A1         {
                 ; 0000 05A2             if(GRADE_INFO[grade_result].prttype==PRT_TYPE_A)
001345 940e 27ce 	CALL SUBOPT_0x1
001347 81a0      	LD   R26,Z
001348 30a1      	CPI  R26,LOW(0x1)
001349 f411      	BRNE _0x2A1
                 ; 0000 05A3             {
                 ; 0000 05A4                 set_bucket_data |=0x1000;
00134a 6150      	ORI  R21,HIGH(4096)
                 ; 0000 05A5             }
                 ; 0000 05A6             else if(GRADE_INFO[grade_result].prttype==PRT_TYPE_B)
00134b c006      	RJMP _0x2A2
                 _0x2A1:
00134c 940e 27ce 	CALL SUBOPT_0x1
00134e 81a0      	LD   R26,Z
00134f 30a2      	CPI  R26,LOW(0x2)
001350 f409      	BRNE _0x2A3
                 ; 0000 05A7             {
                 ; 0000 05A8                 set_bucket_data |= 0x2000;
001351 6250      	ORI  R21,HIGH(8192)
                 ; 0000 05A9             }
                 ; 0000 05AA         }
                 _0x2A3:
                 _0x2A2:
                 ; 0000 05AB 
                 ; 0000 05AC 
                 ; 0000 05AD         BucketData[MAX_LDCELL-ch-1] = set_bucket_data;
                 _0x2A0:
                 _0x29F:
001352 8ded      	LDD  R30,Y+29
001353 e0f0      	LDI  R31,0
001354 e0a6      	LDI  R26,LOW(6)
001355 e0b0      	LDI  R27,HIGH(6)
001356 1bae      	SUB  R26,R30
001357 0bbf      	SBC  R27,R31
001358 e0e1      	LDI  R30,LOW(1)
001359 e0f0      	LDI  R31,HIGH(1)
00135a 940e 315e 	CALL __SWAPW12
00135c 1bea      	SUB  R30,R26
00135d 0bfb      	SBC  R31,R27
00135e e0a0      	LDI  R26,LOW(_BucketData)
00135f e0b6      	LDI  R27,HIGH(_BucketData)
001360 940e 2c00 	CALL SUBOPT_0x90
001362 8340      	ST   Z,R20
001363 8351      	STD  Z+1,R21
                 ; 0000 05AE 
                 ; 0000 05AF 
                 ; 0000 05B0         if(debugMode==3){
001364 91a0 1faa 	LDS  R26,_debugMode
001366 30a3      	CPI  R26,LOW(0x3)
001367 f4a1      	BRNE _0x2A4
                 ; 0000 05B1             UDR1 =set_bucket_data>>8;            while(!(UCSR1A & 0x20));
001368 01fa      	MOVW R30,R20
001369 940e 2b5d 	CALL SUBOPT_0x79
                 _0x2A5:
00136b 91e0 00c8 	LDS  R30,200
00136d 72e0      	ANDI R30,LOW(0x20)
00136e f3e1      	BREQ _0x2A5
                 ; 0000 05B2             UDR1 =set_bucket_data;            while(!(UCSR1A & 0x20));
00136f 9340 00ce 	STS  206,R20
                 _0x2A8:
001371 91e0 00c8 	LDS  R30,200
001373 72e0      	ANDI R30,LOW(0x20)
001374 f3e1      	BREQ _0x2A8
                 ; 0000 05B3             UDR1 =0xDB;            while(!(UCSR1A & 0x20));
001375 edeb      	LDI  R30,LOW(219)
001376 93e0 00ce 	STS  206,R30
                 _0x2AB:
001378 91e0 00c8 	LDS  R30,200
00137a 72e0      	ANDI R30,LOW(0x20)
00137b f3e1      	BREQ _0x2AB
                 ; 0000 05B4         }
                 ; 0000 05B5     }
                 _0x2A4:
                 ; 0000 05B6 }
                 _0x27A:
00137c 940e 317f 	CALL __LOADLOCR6
00137e 966e      	ADIW R28,30
00137f 9508      	RET
                 ; .FEND
                 ;
                 ;//      
                 ;void COMM_TX_SET(void){
                 ; 0000 05B9 void COMM_TX_SET(void){
                 _COMM_TX_SET:
                 ; .FSTART _COMM_TX_SET
                 ; 0000 05BA     unsigned int datalen;
                 ; 0000 05BB 
                 ; 0000 05BC     GRADE_DATA.gSpeed = tmrSPEEDCNT;
001380 931a      	ST   -Y,R17
001381 930a      	ST   -Y,R16
                 ;	datalen -> R16,R17
                +
001382 eea6     +LDI R26 , LOW ( _GRADE_DATA + ( 184 ) )
001383 e0bd     +LDI R27 , HIGH ( _GRADE_DATA + ( 184 ) )
                 	__POINTW2MN _GRADE_DATA,184
001384 91e0 1c15 	LDS  R30,_tmrSPEEDCNT
001386 91f0 1c16 	LDS  R31,_tmrSPEEDCNT+1
001388 2766      	CLR  R22
001389 2777      	CLR  R23
00138a 940e 314e 	CALL __PUTDP1
                 ; 0000 05BD     GRADE_DATA.gZCount  = phase_z_cnt;
00138c 940e 28e5 	CALL SUBOPT_0x2A
00138e 940e 2c05 	CALL SUBOPT_0x91
                 ; 0000 05BE 
                 ; 0000 05BF     tmrSPEEDCNT = 0;
001390 940e 2c0f 	CALL SUBOPT_0x92
                 ; 0000 05C0     datalen = sizeof(GRADE_DATA);
                +
001392 ec04     +LDI R16 , LOW ( 196 )
001393 e010     +LDI R17 , HIGH ( 196 )
                 	__GETWRN 16,17,196
                 ; 0000 05C1     TxBuffer[0] = 0x02;
001394 e0e2      	LDI  R30,LOW(2)
001395 93e0 1620 	STS  _TxBuffer,R30
                 ; 0000 05C2     TxBuffer[1] = (datalen + 2)>>8;
001397 01f8      	MOVW R30,R16
001398 9632      	ADIW R30,2
001399 940e 2a65 	CALL SUBOPT_0x5A
                 ; 0000 05C3     TxBuffer[2] = (datalen + 2)&0xFF;
00139b 2fe0      	MOV  R30,R16
00139c 5fee      	SUBI R30,-LOW(2)
                +
00139d 93e0 1622+STS _TxBuffer + ( 2 ) , R30
                 	__PUTB1MN _TxBuffer,2
                 ; 0000 05C4     TxBuffer[3] = CMD_GRADEDATA;
00139f eae0      	LDI  R30,LOW(160)
                +
0013a0 93e0 1623+STS _TxBuffer + ( 3 ) , R30
                 	__PUTB1MN _TxBuffer,3
                 ; 0000 05C5     TxBuffer[4] = 0x00;
0013a2 e0e0      	LDI  R30,LOW(0)
0013a3 940e 2a70 	CALL SUBOPT_0x5C
                 ; 0000 05C6     memcpy(&(TxBuffer[5]), &GRADE_DATA, datalen);
0013a5 e2ee      	LDI  R30,LOW(_GRADE_DATA)
0013a6 e0fd      	LDI  R31,HIGH(_GRADE_DATA)
0013a7 93fa      	ST   -Y,R31
0013a8 93ea      	ST   -Y,R30
0013a9 01d8      	MOVW R26,R16
0013aa 940e 27af 	CALL _memcpy
                 ; 0000 05C7     TxBuffer[5+datalen] = 0x03;
0013ac 01f8      	MOVW R30,R16
0013ad 940e 2a77 	CALL SUBOPT_0x5D
                 ; 0000 05C8     TxEnable = 1;   txcnt = 1;  TxLength = datalen+6;   UDR1 = TxBuffer[0];
0013af 01f8      	MOVW R30,R16
0013b0 9636      	ADIW R30,6
0013b1 940e 2c14 	CALL SUBOPT_0x93
                 ; 0000 05C9 }
0013b3 c1a6      	RJMP _0x2060002
                 ; .FEND
                 ;
                 ;// 
                 ;void SolenoidRunning(void){
                 ; 0000 05CC void SolenoidRunning(void){
                 _SolenoidRunning:
                 ; .FSTART _SolenoidRunning
                 ; 0000 05CD     unsigned char icnt, jcnt;
                 ; 0000 05CE     unsigned char offtime;
                 ; 0000 05CF 
                 ; 0000 05D0     /*********************************************************************/
                 ; 0000 05D1     /* New Method                                                        */
                 ; 0000 05D2     /* pocketState = SET  on                     */
                 ; 0000 05D3     /*                        on    ON   */
                 ; 0000 05D4     /*                          off   ON */
                 ; 0000 05D5     /* off  on off                             */
                 ; 0000 05D6     /*                         off     off   */
                 ; 0000 05D7     /*********************************************************************/
                 ; 0000 05D8 
                 ; 0000 05D9     for(icnt=0;icnt<MAX_PACKER;icnt++){
0013b4 940e 317a 	CALL __SAVELOCR4
                 ;	icnt -> R17
                 ;	jcnt -> R16
                 ;	offtime -> R19
0013b6 e010      	LDI  R17,LOW(0)
                 _0x2AF:
0013b7 3019      	CPI  R17,9
0013b8 f008      	BRLO PC+2
0013b9 c0e5      	RJMP _0x2B0
                 ; 0000 05DA         for(jcnt=0;jcnt<MAX_SOLENOID;jcnt++){
0013ba e000      	LDI  R16,LOW(0)
                 _0x2B2:
0013bb 3006      	CPI  R16,6
0013bc f008      	BRLO PC+2
0013bd c0c4      	RJMP _0x2B3
                 ; 0000 05DB         //for(jcnt=0;jcnt<PACKER_INFO[icnt].solcount;jcnt++){
                 ; 0000 05DC             if(pocketSTATE[icnt][jcnt]==SET){
0013be 940e 2c1d 	CALL SUBOPT_0x94
0013c0 91ac      	LD   R26,X
0013c1 3aa0      	CPI  R26,LOW(0xA0)
0013c2 f009      	BREQ PC+2
0013c3 c076      	RJMP _0x2B4
                 ; 0000 05DD                 sol_outcnt[icnt][jcnt]++;
0013c4 940e 2c23 	CALL SUBOPT_0x95
0013c6 91ec      	LD   R30,X
0013c7 5fef      	SUBI R30,-LOW(1)
0013c8 93ec      	ST   X,R30
                 ; 0000 05DE                 if(SpeedAdjEnable==1){
0013c9 91a0 1fa9 	LDS  R26,_SpeedAdjEnable
0013cb 30a1      	CPI  R26,LOW(0x1)
0013cc f009      	BREQ PC+2
0013cd c041      	RJMP _0x2B5
                 ; 0000 05DF                     if(sol_outcnt[icnt][jcnt]>=(SOL_INFO[icnt].ontime[jcnt]+Sol_Correction_Count)){
0013ce 940e 2c23 	CALL SUBOPT_0x95
0013d0 912c      	LD   R18,X
0013d1 940e 27ef 	CALL SUBOPT_0x7
0013d3 940e 2c29 	CALL SUBOPT_0x96
0013d5 01df      	MOVW R26,R30
0013d6 91e0 1c5f 	LDS  R30,_Sol_Correction_Count
0013d8 e0f0      	LDI  R31,0
0013d9 0fea      	ADD  R30,R26
0013da 1ffb      	ADC  R31,R27
0013db 940e 2c2e 	CALL SUBOPT_0x97
0013dd f184      	BRLT _0x2B6
                 ; 0000 05E0                     //if(sol_outcnt[icnt][jcnt]>=(SOL_INFO[icnt].ontime[jcnt])){
                 ; 0000 05E1                         if(debugMode==1){
0013de 91a0 1faa 	LDS  R26,_debugMode
0013e0 30a1      	CPI  R26,LOW(0x1)
0013e1 f479      	BRNE _0x2B7
                 ; 0000 05E2                             UDR1 =Sol_Correction_Count;            while(!(UCSR1A & 0x20));
0013e2 91e0 1c5f 	LDS  R30,_Sol_Correction_Count
0013e4 93e0 00ce 	STS  206,R30
                 _0x2B8:
0013e6 91e0 00c8 	LDS  R30,200
0013e8 72e0      	ANDI R30,LOW(0x20)
0013e9 f3e1      	BREQ _0x2B8
                 ; 0000 05E3                             UDR1 =0xEE;            while(!(UCSR1A & 0x20));
0013ea eeee      	LDI  R30,LOW(238)
0013eb 93e0 00ce 	STS  206,R30
                 _0x2BB:
0013ed 91e0 00c8 	LDS  R30,200
0013ef 72e0      	ANDI R30,LOW(0x20)
0013f0 f3e1      	BREQ _0x2BB
                 ; 0000 05E4                         }
                 ; 0000 05E5                         sol_outcnt[icnt][jcnt] = 0;
                 _0x2B7:
0013f1 940e 2c23 	CALL SUBOPT_0x95
0013f3 940e 2c33 	CALL SUBOPT_0x98
                 ; 0000 05E6                         sol_offcnt_on[icnt][jcnt] = 1;
0013f5 e0e1      	LDI  R30,LOW(1)
0013f6 93ec      	ST   X,R30
                 ; 0000 05E7                         pocketSTATE[icnt][jcnt] = CLEAR;
0013f7 940e 2c1d 	CALL SUBOPT_0x94
0013f9 e0ea      	LDI  R30,LOW(10)
0013fa 93ec      	ST   X,R30
                 ; 0000 05E8 
                 ; 0000 05E9                         //
                 ; 0000 05EA                         //if(jcnt==GRADE_INFO[icnt].solenoidnumber-1){
                 ; 0000 05EB                         if(jcnt==PACKER_INFO[icnt].solcount-1){
0013fb 940e 281a 	CALL SUBOPT_0xC
0013fd 940e 2c3a 	CALL SUBOPT_0x99
0013ff f431      	BRNE _0x2BE
                 ; 0000 05EC                             HolderState[icnt] = HolderRDY;
001400 940e 2c45 	CALL SUBOPT_0x9A
001402 e0e1      	LDI  R30,LOW(1)
001403 e0f0      	LDI  R31,HIGH(1)
001404 93ed      	ST   X+,R30
001405 93fc      	ST   X,R31
                 ; 0000 05ED                         }
                 ; 0000 05EE                         do_value[icnt] |= SOL_INFO[icnt].outsignal[jcnt];
                 _0x2BE:
001406 940e 2c4a 	CALL SUBOPT_0x9B
001408 940e 27d9 	CALL SUBOPT_0x3
00140a 91ec      	LD   R30,X
00140b 2be2      	OR   R30,R18
00140c 01db      	MOVW R26,R22
00140d 93ec      	ST   X,R30
                 ; 0000 05EF                     }
                 ; 0000 05F0                 }
                 _0x2B6:
                 ; 0000 05F1                 else if(SpeedAdjEnable==0){
00140e c02b      	RJMP _0x2BF
                 _0x2B5:
00140f 91e0 1fa9 	LDS  R30,_SpeedAdjEnable
001411 30e0      	CPI  R30,0
001412 f539      	BRNE _0x2C0
                 ; 0000 05F2                     //if(sol_outcnt[icnt][jcnt]>=(SOL_INFO[icnt].ontime[jcnt]+Sol_Correction_Count)){
                 ; 0000 05F3 
                 ; 0000 05F4                     if(sol_outcnt[icnt][jcnt]>=(SOL_INFO[icnt].ontime[jcnt])){
001413 940e 2c23 	CALL SUBOPT_0x95
001415 912c      	LD   R18,X
001416 940e 27ef 	CALL SUBOPT_0x7
001418 940e 2c29 	CALL SUBOPT_0x96
00141a 940e 2c2e 	CALL SUBOPT_0x97
00141c f0ec      	BRLT _0x2C1
                 ; 0000 05F5                         sol_outcnt[icnt][jcnt] = 0;
00141d 940e 2c23 	CALL SUBOPT_0x95
00141f 940e 2c33 	CALL SUBOPT_0x98
                 ; 0000 05F6                         sol_offcnt_on[icnt][jcnt] = 1;
001421 e0e1      	LDI  R30,LOW(1)
001422 93ec      	ST   X,R30
                 ; 0000 05F7                         pocketSTATE[icnt][jcnt] = CLEAR;
001423 940e 2c1d 	CALL SUBOPT_0x94
001425 e0ea      	LDI  R30,LOW(10)
001426 93ec      	ST   X,R30
                 ; 0000 05F8                         if(debugMode==1){
                 ; 0000 05F9                             //UDR1 =Sol_Correction_Count;            while(!(UCSR1A & 0x20));
                 ; 0000 05FA                             //UDR1 =0xDD;                            while(!(UCSR1A & 0x20));
                 ; 0000 05FB                         }
                 ; 0000 05FC                         //
                 ; 0000 05FD                         //if(jcnt==GRADE_INFO[icnt].solenoidnumber-1){
                 ; 0000 05FE                         if(jcnt==PACKER_INFO[icnt].solcount-1){
001427 940e 281a 	CALL SUBOPT_0xC
001429 940e 2c3a 	CALL SUBOPT_0x99
00142b f431      	BRNE _0x2C3
                 ; 0000 05FF                             HolderState[icnt] = HolderRDY;
00142c 940e 2c45 	CALL SUBOPT_0x9A
00142e e0e1      	LDI  R30,LOW(1)
00142f e0f0      	LDI  R31,HIGH(1)
001430 93ed      	ST   X+,R30
001431 93fc      	ST   X,R31
                 ; 0000 0600                         }
                 ; 0000 0601                         do_value[icnt] |= SOL_INFO[icnt].outsignal[jcnt];
                 _0x2C3:
001432 940e 2c4a 	CALL SUBOPT_0x9B
001434 940e 27d9 	CALL SUBOPT_0x3
001436 91ec      	LD   R30,X
001437 2be2      	OR   R30,R18
001438 01db      	MOVW R26,R22
001439 93ec      	ST   X,R30
                 ; 0000 0602                     }
                 ; 0000 0603                 }
                 _0x2C1:
                 ; 0000 0604             }
                 _0x2C0:
                 _0x2BF:
                 ; 0000 0605             if(sol_offcnt_on[icnt][jcnt]){
                 _0x2B4:
00143a e0a6      	LDI  R26,LOW(6)
00143b 9f1a      	MUL  R17,R26
00143c 01f0      	MOVW R30,R0
00143d 55ee      	SUBI R30,LOW(-_sol_offcnt_on)
00143e 4ff1      	SBCI R31,HIGH(-_sol_offcnt_on)
00143f 940e 27d9 	CALL SUBOPT_0x3
001441 91ec      	LD   R30,X
001442 30e0      	CPI  R30,0
001443 f1e1      	BREQ _0x2C4
                 ; 0000 0606                 sol_offcnt[icnt][jcnt]++;
001444 940e 2c51 	CALL SUBOPT_0x9C
001446 91ec      	LD   R30,X
001447 5fef      	SUBI R30,-LOW(1)
001448 93ec      	ST   X,R30
                 ; 0000 0607 
                 ; 0000 0608                 if(sol_offcnt[icnt][jcnt]>=(SOL_INFO[icnt].offtime[jcnt])){
001449 940e 2c51 	CALL SUBOPT_0x9C
00144b 912c      	LD   R18,X
00144c e3a0      	LDI  R26,LOW(48)
00144d 9f1a      	MUL  R17,R26
00144e 01f0      	MOVW R30,R0
00144f 940e 2807 	CALL SUBOPT_0x9
001451 940e 2c29 	CALL SUBOPT_0x96
001453 940e 2c2e 	CALL SUBOPT_0x97
001455 f154      	BRLT _0x2C5
                 ; 0000 0609                     do_value[icnt] &= ~SOL_INFO[icnt].outsignal[jcnt];
001456 940e 2c4a 	CALL SUBOPT_0x9B
001458 940e 27d9 	CALL SUBOPT_0x3
00145a 91ec      	LD   R30,X
00145b 95e0      	COM  R30
00145c 23e2      	AND  R30,R18
00145d 01db      	MOVW R26,R22
00145e 93ec      	ST   X,R30
                 ; 0000 060A                     sol_offcnt[icnt][jcnt] = 0;
00145f 940e 2c51 	CALL SUBOPT_0x9C
001461 940e 2c33 	CALL SUBOPT_0x98
                 ; 0000 060B                     sol_offcnt_on[icnt][jcnt]=0;
001463 93ec      	ST   X,R30
                 ; 0000 060C 
                 ; 0000 060D                     //  ON
                 ; 0000 060E                     if(jcnt==(PACKER_INFO[icnt].solcount-1)){
001464 940e 281a 	CALL SUBOPT_0xC
001466 940e 2c3a 	CALL SUBOPT_0x99
001468 f4b9      	BRNE _0x2C6
                 ; 0000 060F                         if(HolderState[icnt] == HolderRDY){
001469 940e 2c45 	CALL SUBOPT_0x9A
00146b 940e 313f 	CALL __GETW1P
00146d 30e1      	CPI  R30,LOW(0x1)
00146e e0a0      	LDI  R26,HIGH(0x1)
00146f 07fa      	CPC  R31,R26
001470 f479      	BRNE _0x2C7
                 ; 0000 0610                             HolderOnTime[icnt] = 0;
001471 940e 2c57 	CALL SUBOPT_0x9D
001473 940e 29c0 	CALL SUBOPT_0x42
                 ; 0000 0611                             HolderState[icnt] = HolderON;
001475 940e 2c45 	CALL SUBOPT_0x9A
001477 e0e2      	LDI  R30,LOW(2)
001478 e0f0      	LDI  R31,HIGH(2)
001479 93ed      	ST   X+,R30
00147a 93fc      	ST   X,R31
                 ; 0000 0612                             do_value[icnt] |= HOLDER_ON_SNG;
00147b 2fa1      	MOV  R26,R17
00147c 940e 2c5c 	CALL SUBOPT_0x9E
00147e 68e0      	ORI  R30,0x80
00147f 93ec      	ST   X,R30
                 ; 0000 0613                         }
                 ; 0000 0614                     }
                 _0x2C7:
                 ; 0000 0615                 }
                 _0x2C6:
                 ; 0000 0616             }
                 _0x2C5:
                 ; 0000 0617         }
                 _0x2C4:
001480 5f0f      	SUBI R16,-1
001481 cf39      	RJMP _0x2B2
                 _0x2B3:
                 ; 0000 0618 
                 ; 0000 0619         //   off
                 ; 0000 061A         if(HolderState[icnt]==HolderON){
001482 940e 2c45 	CALL SUBOPT_0x9A
001484 940e 313f 	CALL __GETW1P
001486 30e2      	CPI  R30,LOW(0x2)
001487 e0a0      	LDI  R26,HIGH(0x2)
001488 07fa      	CPC  R31,R26
001489 f499      	BRNE _0x2C8
                 ; 0000 061B             HolderOnTime[icnt]++;
00148a 940e 2c57 	CALL SUBOPT_0x9D
00148c 940e 2a4c 	CALL SUBOPT_0x57
                 ; 0000 061C             if(HolderOnTime[icnt] > 10){
00148e 940e 2c57 	CALL SUBOPT_0x9D
001490 940e 313f 	CALL __GETW1P
001492 973b      	SBIW R30,11
001493 f048      	BRLO _0x2C9
                 ; 0000 061D                 do_value[icnt] &= ~HOLDER_ON_SNG;
001494 2fa1      	MOV  R26,R17
001495 940e 2c5c 	CALL SUBOPT_0x9E
001497 77ef      	ANDI R30,0x7F
001498 93ec      	ST   X,R30
                 ; 0000 061E                 HolderState[icnt] = HolderOFF;
001499 940e 2c45 	CALL SUBOPT_0x9A
00149b 940e 29c0 	CALL SUBOPT_0x42
                 ; 0000 061F             }
                 ; 0000 0620         }
                 _0x2C9:
                 ; 0000 0621     }
                 _0x2C8:
00149d 5f1f      	SUBI R17,-1
00149e cf18      	RJMP _0x2AF
                 _0x2B0:
                 ; 0000 0622 
                 ; 0000 0623 
                 ; 0000 0624     // 7   
                 ; 0000 0625     if(Marking_Version == 1)
00149f 91a0 1c6b 	LDS  R26,_Marking_Version
0014a1 30a1      	CPI  R26,LOW(0x1)
0014a2 f519      	BRNE _0x2CA
                 ; 0000 0626     {
                 ; 0000 0627             if(PRT_A_OUT==SET)
0014a3 91a0 0dfe 	LDS  R26,_PRT_A_OUT
0014a5 3aa0      	CPI  R26,LOW(0xA0)
0014a6 f461      	BRNE _0x2CB
                 ; 0000 0628             {
                 ; 0000 0629                 prt_a_outcnt++;
0014a7 940e 2c61 	CALL SUBOPT_0x9F
                 ; 0000 062A                 if(prt_a_outcnt>=PRT_INFO[1].ontime)
0014a9 f04c      	BRLT _0x2CC
                 ; 0000 062B                 {
                 ; 0000 062C                     prt_a_outcnt = 0;
0014aa 940e 2c70 	CALL SUBOPT_0xA0
                 ; 0000 062D                     PRT_A_OUT=CLEAR;
                 ; 0000 062E                     prt_a_off_enable =1;
                 ; 0000 062F                     plc_prt_value |= PRT_A_ON;
                 ; 0000 0630                     //2019.08.13 update
                 ; 0000 0631                     //  
                 ; 0000 0632                     plc_prt_value |= Marking_MOUT;
0014ac 91e0 2045 	LDS  R30,_Marking_MOUT
0014ae 91a0 0ee1 	LDS  R26,_plc_prt_value
0014b0 2bea      	OR   R30,R26
0014b1 93e0 0ee1 	STS  _plc_prt_value,R30
                 ; 0000 0633                 }
                 ; 0000 0634             }
                 _0x2CC:
                 ; 0000 0635         if(prt_a_off_enable==1)
                 _0x2CB:
0014b3 91a0 1c54 	LDS  R26,_prt_a_off_enable
0014b5 30a1      	CPI  R26,LOW(0x1)
0014b6 f471      	BRNE _0x2CD
                 ; 0000 0636         {
                 ; 0000 0637             prt_a_offcnt++;
0014b7 940e 2c7f 	CALL SUBOPT_0xA1
                 ; 0000 0638             if(prt_a_offcnt>=PRT_INFO[1].offtime)
0014b9 f05c      	BRLT _0x2CE
                 ; 0000 0639             {
                 ; 0000 063A                 prt_a_offcnt = 0;
0014ba 940e 2c8e 	CALL SUBOPT_0xA2
                 ; 0000 063B                 plc_prt_value &= ~PRT_A_ON;
                 ; 0000 063C                 plc_prt_value &= ~Marking_MOUT;
0014bc 91e0 2045 	LDS  R30,_Marking_MOUT
0014be 940e 2c97 	CALL SUBOPT_0xA3
0014c0 93e0 0ee1 	STS  _plc_prt_value,R30
                 ; 0000 063D                 prt_a_off_enable = 0;
0014c2 e0e0      	LDI  R30,LOW(0)
0014c3 93e0 1c54 	STS  _prt_a_off_enable,R30
                 ; 0000 063E             }
                 ; 0000 063F         }
                 _0x2CE:
                 ; 0000 0640     }
                 _0x2CD:
                 ; 0000 0641     else if(Marking_Version == 0)
0014c5 c059      	RJMP _0x2CF
                 _0x2CA:
0014c6 91e0 1c6b 	LDS  R30,_Marking_Version
0014c8 30e0      	CPI  R30,0
0014c9 f009      	BREQ PC+2
0014ca c054      	RJMP _0x2D0
                 ; 0000 0642     {
                 ; 0000 0643         if(PRT_A_OUT==SET) // A  
0014cb 91a0 0dfe 	LDS  R26,_PRT_A_OUT
0014cd 3aa0      	CPI  R26,LOW(0xA0)
0014ce f429      	BRNE _0x2D1
                 ; 0000 0644         {
                 ; 0000 0645             prt_a_outcnt++;
0014cf 940e 2c61 	CALL SUBOPT_0x9F
                 ; 0000 0646             if(prt_a_outcnt>=PRT_INFO[1].ontime)
0014d1 f014      	BRLT _0x2D2
                 ; 0000 0647             {
                 ; 0000 0648                 prt_a_outcnt = 0;
0014d2 940e 2c70 	CALL SUBOPT_0xA0
                 ; 0000 0649                 PRT_A_OUT=CLEAR;
                 ; 0000 064A                 prt_a_off_enable =1;
                 ; 0000 064B                 plc_prt_value |= PRT_A_ON;
                 ; 0000 064C 
                 ; 0000 064D             }
                 ; 0000 064E         }
                 _0x2D2:
                 ; 0000 064F 
                 ; 0000 0650         if(prt_a_off_enable==1)
                 _0x2D1:
0014d4 91a0 1c54 	LDS  R26,_prt_a_off_enable
0014d6 30a1      	CPI  R26,LOW(0x1)
0014d7 f441      	BRNE _0x2D3
                 ; 0000 0651         {
                 ; 0000 0652             prt_a_offcnt++;
0014d8 940e 2c7f 	CALL SUBOPT_0xA1
                 ; 0000 0653             if(prt_a_offcnt>=PRT_INFO[1].offtime)
0014da f02c      	BRLT _0x2D4
                 ; 0000 0654             {
                 ; 0000 0655                 prt_a_offcnt = 0;
0014db 940e 2c8e 	CALL SUBOPT_0xA2
                 ; 0000 0656                 plc_prt_value &= ~PRT_A_ON;
                 ; 0000 0657                 prt_a_off_enable = 0;
0014dd e0e0      	LDI  R30,LOW(0)
0014de 93e0 1c54 	STS  _prt_a_off_enable,R30
                 ; 0000 0658             }
                 ; 0000 0659         }
                 _0x2D4:
                 ; 0000 065A         if(PRT_B_OUT==SET)// B  
                 _0x2D3:
0014e0 91a0 0dff 	LDS  R26,_PRT_B_OUT
0014e2 3aa0      	CPI  R26,LOW(0xA0)
0014e3 f4e9      	BRNE _0x2D5
                 ; 0000 065B         {
                 ; 0000 065C             prt_b_outcnt++;
0014e4 91e0 1c56 	LDS  R30,_prt_b_outcnt
0014e6 5fef      	SUBI R30,-LOW(1)
0014e7 93e0 1c56 	STS  _prt_b_outcnt,R30
                 ; 0000 065D             if(prt_b_outcnt>=PRT_INFO[2].ontime)
                +
0014e9 91e0 0d14+LDS R30 , _PRT_INFO + ( 12 )
0014eb 91f0 0d15+LDS R31 , _PRT_INFO + ( 12 ) + 1
                 	__GETW1MN _PRT_INFO,12
0014ed 91a0 1c56 	LDS  R26,_prt_b_outcnt
0014ef e0b0      	LDI  R27,0
0014f0 17ae      	CP   R26,R30
0014f1 07bf      	CPC  R27,R31
0014f2 f074      	BRLT _0x2D6
                 ; 0000 065E             {
                 ; 0000 065F                 prt_b_outcnt = 0;
0014f3 e0e0      	LDI  R30,LOW(0)
0014f4 93e0 1c56 	STS  _prt_b_outcnt,R30
                 ; 0000 0660                 PRT_B_OUT=CLEAR;
0014f6 e0ea      	LDI  R30,LOW(10)
0014f7 93e0 0dff 	STS  _PRT_B_OUT,R30
                 ; 0000 0661                 prt_b_off_enable =1;
0014f9 e0e1      	LDI  R30,LOW(1)
0014fa 93e0 1c57 	STS  _prt_b_off_enable,R30
                 ; 0000 0662                 plc_prt_value |= PRT_B_ON;
0014fc 91e0 0ee1 	LDS  R30,_plc_prt_value
0014fe 62e0      	ORI  R30,0x20
0014ff 93e0 0ee1 	STS  _plc_prt_value,R30
                 ; 0000 0663             }
                 ; 0000 0664         }
                 _0x2D6:
                 ; 0000 0665 
                 ; 0000 0666         if(prt_b_off_enable==1)
                 _0x2D5:
001501 91a0 1c57 	LDS  R26,_prt_b_off_enable
001503 30a1      	CPI  R26,LOW(0x1)
001504 f4d1      	BRNE _0x2D7
                 ; 0000 0667         {
                 ; 0000 0668             prt_b_offcnt++;
001505 91e0 1c58 	LDS  R30,_prt_b_offcnt
001507 5fef      	SUBI R30,-LOW(1)
001508 93e0 1c58 	STS  _prt_b_offcnt,R30
                 ; 0000 0669             if(prt_b_offcnt>=PRT_INFO[2].offtime)
                +
00150a 91e0 0d16+LDS R30 , _PRT_INFO + ( 14 )
00150c 91f0 0d17+LDS R31 , _PRT_INFO + ( 14 ) + 1
                 	__GETW1MN _PRT_INFO,14
00150e 91a0 1c58 	LDS  R26,_prt_b_offcnt
001510 e0b0      	LDI  R27,0
001511 17ae      	CP   R26,R30
001512 07bf      	CPC  R27,R31
001513 f05c      	BRLT _0x2D8
                 ; 0000 066A             {
                 ; 0000 066B                 prt_b_offcnt = 0;
001514 e0e0      	LDI  R30,LOW(0)
001515 93e0 1c58 	STS  _prt_b_offcnt,R30
                 ; 0000 066C                 plc_prt_value &= ~PRT_B_ON;
001517 91e0 0ee1 	LDS  R30,_plc_prt_value
001519 7def      	ANDI R30,0xDF
00151a 93e0 0ee1 	STS  _plc_prt_value,R30
                 ; 0000 066D                 prt_b_off_enable = 0;
00151c e0e0      	LDI  R30,LOW(0)
00151d 93e0 1c57 	STS  _prt_b_off_enable,R30
                 ; 0000 066E             }
                 ; 0000 066F         }
                 _0x2D8:
                 ; 0000 0670     }
                 _0x2D7:
                 ; 0000 0671 
                 ; 0000 0672     SOL_CH1 = do_value[0];
                 _0x2D0:
                 _0x2CF:
00151f 940e 2c9c 	CALL SUBOPT_0xA4
                 ; 0000 0673     SOL_CH2 = do_value[1];
001521 940e 2ca1 	CALL SUBOPT_0xA5
                 ; 0000 0674     SOL_CH3 = do_value[2];
001523 940e 2ca6 	CALL SUBOPT_0xA6
                 ; 0000 0675     SOL_CH4 = do_value[3];
001525 940e 2cab 	CALL SUBOPT_0xA7
                 ; 0000 0676     SOL_CH5 = do_value[4];
001527 940e 2cb0 	CALL SUBOPT_0xA8
                 ; 0000 0677     SOL_CH6 = do_value[5];
001529 940e 2cb5 	CALL SUBOPT_0xA9
                 ; 0000 0678     SOL_CH7 = do_value[6];
00152b 940e 2cba 	CALL SUBOPT_0xAA
                 ; 0000 0679     PLC_CON = plc_prt_value;
00152d 940e 2cbf 	CALL SUBOPT_0xAB
                 ; 0000 067A }
00152f c108      	RJMP _0x2060001
                 ; .FEND
                 ;
                 ;//  
                 ;void MovingBucket(void){
                 ; 0000 067D void MovingBucket(void){
                 _MovingBucket:
                 ; .FSTART _MovingBucket
                 ; 0000 067E     int lcnt;
                 ; 0000 067F 
                 ; 0000 0680     for(lcnt=MAX_BUCKET;lcnt>=0;lcnt--){
001530 931a      	ST   -Y,R17
001531 930a      	ST   -Y,R16
                 ;	lcnt -> R16,R17
                +
001532 e20c     +LDI R16 , LOW ( 300 )
001533 e011     +LDI R17 , HIGH ( 300 )
                 	__GETWRN 16,17,300
                 _0x2DA:
001534 2311      	TST  R17
001535 f122      	BRMI _0x2DB
                 ; 0000 0681         if(lcnt != 0 )  {    BucketData[lcnt] = BucketData[lcnt-1];  BucketData_Wight[lcnt] = BucketData_Wight[lcnt-1];  ...
001536 2e00      	MOV  R0,R16
001537 2a01      	OR   R0,R17
001538 f099      	BREQ _0x2DC
001539 940e 29b8 	CALL SUBOPT_0x41
00153b 010f      	MOVW R0,R30
00153c 01f8      	MOVW R30,R16
00153d 940e 2cc4 	CALL SUBOPT_0xAC
00153f 940e 2b4f 	CALL SUBOPT_0x77
001541 940e 2bd9 	CALL SUBOPT_0x8A
001543 010f      	MOVW R0,R30
001544 01f8      	MOVW R30,R16
001545 9731      	SBIW R30,1
001546 940e 2cc8 	CALL SUBOPT_0xAD
001548 940e 313f 	CALL __GETW1P
00154a 01d0      	MOVW R26,R0
00154b c009      	RJMP _0x4C5
                 ; 0000 0682         else            {    BucketData[lcnt] = BucketInitValue; BucketData_Wight[lcnt] = BucketInitValue;        }
                 _0x2DC:
00154c 940e 29b4 	CALL SUBOPT_0x40
00154e 940e 29c0 	CALL SUBOPT_0x42
001550 01f8      	MOVW R30,R16
001551 940e 2cc8 	CALL SUBOPT_0xAD
001553 e0e0      	LDI  R30,LOW(0)
001554 e0f0      	LDI  R31,HIGH(0)
                 _0x4C5:
001555 93ed      	ST   X+,R30
001556 93fc      	ST   X,R31
                 ; 0000 0683     }
                +
001557 5001     +SUBI R16 , LOW ( 1 )
001558 4010     +SBCI R17 , HIGH ( 1 )
                 	__SUBWRN 16,17,1
001559 cfda      	RJMP _0x2DA
                 _0x2DB:
                 ; 0000 0684 }
                 _0x2060002:
00155a 9109      	LD   R16,Y+
00155b 9119      	LD   R17,Y+
00155c 9508      	RET
                 ; .FEND
                 ;
                 ;//   
                 ;void MaskingBucket(void){
                 ; 0000 0687 void MaskingBucket(void){
                 _MaskingBucket:
                 ; .FSTART _MaskingBucket
                 ; 0000 0688 
                 ; 0000 0689     unsigned char icnt;
                 ; 0000 068A     unsigned int prtchk;
                 ; 0000 068B     unsigned char tmpgrade;
                 ; 0000 068C 
                 ; 0000 068D     //2014.11.24 ::   .
                 ; 0000 068E     //PRT Type A Setting
                 ; 0000 068F     //2019.08.13  ::   8 .
                 ; 0000 0690     //   ==   +    
                 ; 0000 0691     //-----------------------------------------------------
                 ; 0000 0692     // Grading Value Bit Table
                 ; 0000 0693     // 0000 | 0000 | 0000 | 0000
                 ; 0000 0694     //--------------------------
                 ; 0000 0695     //   |      |     |       |-> Solenoid Position || Low Nibble
                 ; 0000 0696     //   |      |     |---------> Solenoid Position || High Nibble
                 ; 0000 0697     //   |      |---------------> Grade Position
                 ; 0000 0698     //   |----------------------> Crack/DOT Info, PRT TYPE || 00:CLean, 01:CRACK(0x8000), 02:DOT(0x4000), 00:NONE, 01:PR ...
                 ; 0000 0699 
                 ; 0000 069A     //UDR1 = tmpgrade;            while(!(UCSR1A & 0x20));
                 ; 0000 069B 
                 ; 0000 069C     if(Marking_Version == 1)
00155d 940e 317a 	CALL __SAVELOCR4
                 ;	icnt -> R17
                 ;	prtchk -> R18,R19
                 ;	tmpgrade -> R16
00155f 91a0 1c6b 	LDS  R26,_Marking_Version
001561 30a1      	CPI  R26,LOW(0x1)
001562 f539      	BRNE _0x2DE
                 ; 0000 069D     {   //NEW_MARKING_VERSION
                 ; 0000 069E         prtchk = (BucketData[ PRT_INFO[PRT_TYPE_A].startpocketnumber ]>>12)&0x0003;
001563 940e 2ccb 	CALL SUBOPT_0xAE
001565 940e 2cd2 	CALL SUBOPT_0xAF
                 ; 0000 069F         tmpgrade = (BucketData[ PRT_INFO[PRT_TYPE_A].startpocketnumber ] >> 8) & 0x000F;
001567 940e 2ccb 	CALL SUBOPT_0xAE
001569 940e 2cdb 	CALL SUBOPT_0xB0
00156b 70ef      	ANDI R30,LOW(0xF)
00156c 2f0e      	MOV  R16,R30
                 ; 0000 06A0         if(prtchk == 0x0001)
00156d e0e1      	LDI  R30,LOW(1)
00156e e0f0      	LDI  R31,HIGH(1)
00156f 17e2      	CP   R30,R18
001570 07f3      	CPC  R31,R19
001571 f4b9      	BRNE _0x2DF
                 ; 0000 06A1         {
                 ; 0000 06A2            PRT_A_OUT = SET;
001572 eae0      	LDI  R30,LOW(160)
001573 93e0 0dfe 	STS  _PRT_A_OUT,R30
                 ; 0000 06A3            Marking_MOUT = Marking_MOUT_SNG[GRADE_INFO[tmpgrade-1].prttype];
001575 2fe0      	MOV  R30,R16
001576 e0f0      	LDI  R31,0
001577 9731      	SBIW R30,1
001578 e0aa      	LDI  R26,LOW(10)
001579 e0b0      	LDI  R27,HIGH(10)
00157a 940e 307c 	CALL __MULW12U
                +
00157c 54eb     +SUBI R30 , LOW ( - _GRADE_INFO - ( 5 ) )
00157d 4ff5     +SBCI R31 , HIGH ( - _GRADE_INFO - ( 5 ) )
                 	__ADDW1MN _GRADE_INFO,5
00157e 81e0      	LD   R30,Z
00157f e0f0      	LDI  R31,0
001580 5bea      	SUBI R30,LOW(-_Marking_MOUT_SNG)
001581 4dff      	SBCI R31,HIGH(-_Marking_MOUT_SNG)
001582 81e0      	LD   R30,Z
001583 93e0 2045 	STS  _Marking_MOUT,R30
                 ; 0000 06A4            BucketData[ PRT_INFO[PRT_TYPE_A].startpocketnumber ] &= 0x0FFF;
001585 940e 2ccb 	CALL SUBOPT_0xAE
001587 940e 2ce0 	CALL SUBOPT_0xB1
                 ; 0000 06A5         }
                 ; 0000 06A6     }
                 _0x2DF:
                 ; 0000 06A7     else if(Marking_Version == 0)
001589 c024      	RJMP _0x2E0
                 _0x2DE:
00158a 91e0 1c6b 	LDS  R30,_Marking_Version
00158c 30e0      	CPI  R30,0
00158d f501      	BRNE _0x2E1
                 ; 0000 06A8     {
                 ; 0000 06A9     //2014.11.24 ::   . OLD_MARKING_VERSION
                 ; 0000 06AA     //PRT Type A Setting
                 ; 0000 06AB         prtchk = (BucketData[ PRT_INFO[PRT_TYPE_A].startpocketnumber ]>>12)&0x0003;
00158e 940e 2ccb 	CALL SUBOPT_0xAE
001590 940e 2cd2 	CALL SUBOPT_0xAF
                 ; 0000 06AC         if(prtchk == 0x0001)
001592 e0e1      	LDI  R30,LOW(1)
001593 e0f0      	LDI  R31,HIGH(1)
001594 17e2      	CP   R30,R18
001595 07f3      	CPC  R31,R19
001596 f439      	BRNE _0x2E2
                 ; 0000 06AD         {
                 ; 0000 06AE             PRT_A_OUT = SET;
001597 eae0      	LDI  R30,LOW(160)
001598 93e0 0dfe 	STS  _PRT_A_OUT,R30
                 ; 0000 06AF             BucketData[PRT_INFO[PRT_TYPE_A].startpocketnumber ] &= 0x0FFF;
00159a 940e 2ccb 	CALL SUBOPT_0xAE
00159c 940e 2ce0 	CALL SUBOPT_0xB1
                 ; 0000 06B0         }
                 ; 0000 06B1 
                 ; 0000 06B2     //PRT Type B Setting
                 ; 0000 06B3         prtchk = (BucketData[PRT_INFO[PRT_TYPE_B].startpocketnumber ]>>12)&0x0003;
                 _0x2E2:
00159e 940e 2ce6 	CALL SUBOPT_0xB2
0015a0 940e 2cd2 	CALL SUBOPT_0xAF
                 ; 0000 06B4         if(prtchk == 0x0002)
0015a2 e0e2      	LDI  R30,LOW(2)
0015a3 e0f0      	LDI  R31,HIGH(2)
0015a4 17e2      	CP   R30,R18
0015a5 07f3      	CPC  R31,R19
0015a6 f439      	BRNE _0x2E3
                 ; 0000 06B5         {
                 ; 0000 06B6             PRT_B_OUT = SET;
0015a7 eae0      	LDI  R30,LOW(160)
0015a8 93e0 0dff 	STS  _PRT_B_OUT,R30
                 ; 0000 06B7             BucketData[ PRT_INFO[PRT_TYPE_B].startpocketnumber ] &= 0x0FFF;
0015aa 940e 2ce6 	CALL SUBOPT_0xB2
0015ac 940e 2ce0 	CALL SUBOPT_0xB1
                 ; 0000 06B8         }
                 ; 0000 06B9     }
                 _0x2E3:
                 ; 0000 06BA 
                 ; 0000 06BB     //   ID ,    
                 ; 0000 06BC     for(icnt = 0; icnt <MAX_PACKER;icnt++){
                 _0x2E1:
                 _0x2E0:
0015ae e010      	LDI  R17,LOW(0)
                 _0x2E5:
0015af 3019      	CPI  R17,9
0015b0 f008      	BRLO PC+2
0015b1 c086      	RJMP _0x2E6
                 ; 0000 06BD         if((BucketData[ PACKER_INFO[icnt].startpocketnumber-5 ] & 0x0FFF) == SOL_INFO[icnt].sol_id[5] ){ pocketSTATE[icn ...
0015b2 940e 281a 	CALL SUBOPT_0xC
0015b4 940e 2ced 	CALL SUBOPT_0xB3
0015b6 940e 2cf6 	CALL SUBOPT_0xB4
                +
0015b8 5ce8     +SUBI R30 , LOW ( - _SOL_INFO - ( 46 ) )
0015b9 4ff4     +SBCI R31 , HIGH ( - _SOL_INFO - ( 46 ) )
                 	__ADDW1MN _SOL_INFO,46
0015ba 940e 2cfe 	CALL SUBOPT_0xB5
0015bc f459      	BRNE _0x2E7
0015bd e0a6      	LDI  R26,LOW(6)
0015be 9f1a      	MUL  R17,R26
0015bf 01f0      	MOVW R30,R0
                +
0015c0 5feb     +SUBI R30 , LOW ( - _pocketSTATE - ( 5 ) )
0015c1 4ff1     +SBCI R31 , HIGH ( - _pocketSTATE - ( 5 ) )
                 	__ADDW1MN _pocketSTATE,5
0015c2 940e 2d04 	CALL SUBOPT_0xB6
0015c4 940e 2ced 	CALL SUBOPT_0xB3
0015c6 940e 29c0 	CALL SUBOPT_0x42
                 ; 0000 06BE         if((BucketData[ PACKER_INFO[icnt].startpocketnumber-4 ] & 0x0FFF) == SOL_INFO[icnt].sol_id[4] ){ pocketSTATE[icn ...
                 _0x2E7:
0015c8 940e 281a 	CALL SUBOPT_0xC
0015ca 940e 2d07 	CALL SUBOPT_0xB7
0015cc 940e 2cf6 	CALL SUBOPT_0xB4
                +
0015ce 5cea     +SUBI R30 , LOW ( - _SOL_INFO - ( 44 ) )
0015cf 4ff4     +SBCI R31 , HIGH ( - _SOL_INFO - ( 44 ) )
                 	__ADDW1MN _SOL_INFO,44
0015d0 940e 2cfe 	CALL SUBOPT_0xB5
0015d2 f459      	BRNE _0x2E8
0015d3 e0a6      	LDI  R26,LOW(6)
0015d4 9f1a      	MUL  R17,R26
0015d5 01f0      	MOVW R30,R0
                +
0015d6 5fec     +SUBI R30 , LOW ( - _pocketSTATE - ( 4 ) )
0015d7 4ff1     +SBCI R31 , HIGH ( - _pocketSTATE - ( 4 ) )
                 	__ADDW1MN _pocketSTATE,4
0015d8 940e 2d04 	CALL SUBOPT_0xB6
0015da 940e 2d07 	CALL SUBOPT_0xB7
0015dc 940e 29c0 	CALL SUBOPT_0x42
                 ; 0000 06BF         if((BucketData[ PACKER_INFO[icnt].startpocketnumber-3 ] & 0x0FFF) == SOL_INFO[icnt].sol_id[3] ){ pocketSTATE[icn ...
                 _0x2E8:
0015de 940e 281a 	CALL SUBOPT_0xC
0015e0 940e 2d10 	CALL SUBOPT_0xB8
0015e2 940e 2cf6 	CALL SUBOPT_0xB4
                +
0015e4 5cec     +SUBI R30 , LOW ( - _SOL_INFO - ( 42 ) )
0015e5 4ff4     +SBCI R31 , HIGH ( - _SOL_INFO - ( 42 ) )
                 	__ADDW1MN _SOL_INFO,42
0015e6 940e 2cfe 	CALL SUBOPT_0xB5
0015e8 f459      	BRNE _0x2E9
0015e9 e0a6      	LDI  R26,LOW(6)
0015ea 9f1a      	MUL  R17,R26
0015eb 01f0      	MOVW R30,R0
                +
0015ec 5fed     +SUBI R30 , LOW ( - _pocketSTATE - ( 3 ) )
0015ed 4ff1     +SBCI R31 , HIGH ( - _pocketSTATE - ( 3 ) )
                 	__ADDW1MN _pocketSTATE,3
0015ee 940e 2d04 	CALL SUBOPT_0xB6
0015f0 940e 2d10 	CALL SUBOPT_0xB8
0015f2 940e 29c0 	CALL SUBOPT_0x42
                 ; 0000 06C0         if((BucketData[ PACKER_INFO[icnt].startpocketnumber-2 ] & 0x0FFF) == SOL_INFO[icnt].sol_id[2] ){ pocketSTATE[icn ...
                 _0x2E9:
0015f4 940e 281a 	CALL SUBOPT_0xC
0015f6 940e 2d19 	CALL SUBOPT_0xB9
0015f8 940e 2cf6 	CALL SUBOPT_0xB4
                +
0015fa 5cee     +SUBI R30 , LOW ( - _SOL_INFO - ( 40 ) )
0015fb 4ff4     +SBCI R31 , HIGH ( - _SOL_INFO - ( 40 ) )
                 	__ADDW1MN _SOL_INFO,40
0015fc 940e 2cfe 	CALL SUBOPT_0xB5
0015fe f459      	BRNE _0x2EA
0015ff e0a6      	LDI  R26,LOW(6)
001600 9f1a      	MUL  R17,R26
001601 01f0      	MOVW R30,R0
                +
001602 5fee     +SUBI R30 , LOW ( - _pocketSTATE - ( 2 ) )
001603 4ff1     +SBCI R31 , HIGH ( - _pocketSTATE - ( 2 ) )
                 	__ADDW1MN _pocketSTATE,2
001604 940e 2d04 	CALL SUBOPT_0xB6
001606 940e 2d19 	CALL SUBOPT_0xB9
001608 940e 29c0 	CALL SUBOPT_0x42
                 ; 0000 06C1         if((BucketData[ PACKER_INFO[icnt].startpocketnumber-1 ] & 0x0FFF) == SOL_INFO[icnt].sol_id[1] ){ pocketSTATE[icn ...
                 _0x2EA:
00160a 940e 281a 	CALL SUBOPT_0xC
00160c 940e 2d22 	CALL SUBOPT_0xBA
00160e 940e 2cf6 	CALL SUBOPT_0xB4
                +
001610 5de0     +SUBI R30 , LOW ( - _SOL_INFO - ( 38 ) )
001611 4ff4     +SBCI R31 , HIGH ( - _SOL_INFO - ( 38 ) )
                 	__ADDW1MN _SOL_INFO,38
001612 940e 2cfe 	CALL SUBOPT_0xB5
001614 f459      	BRNE _0x2EB
001615 e0a6      	LDI  R26,LOW(6)
001616 9f1a      	MUL  R17,R26
001617 01f0      	MOVW R30,R0
                +
001618 5fef     +SUBI R30 , LOW ( - _pocketSTATE - ( 1 ) )
001619 4ff1     +SBCI R31 , HIGH ( - _pocketSTATE - ( 1 ) )
                 	__ADDW1MN _pocketSTATE,1
00161a 940e 2d04 	CALL SUBOPT_0xB6
00161c 940e 2d22 	CALL SUBOPT_0xBA
00161e 940e 29c0 	CALL SUBOPT_0x42
                 ; 0000 06C2         if((BucketData[ PACKER_INFO[icnt].startpocketnumber-0 ] & 0x0FFF) == SOL_INFO[icnt].sol_id[0] ){ pocketSTATE[icn ...
                 _0x2EB:
001620 940e 281a 	CALL SUBOPT_0xC
001622 940e 2d28 	CALL SUBOPT_0xBB
001624 940e 2cf6 	CALL SUBOPT_0xB4
                +
001626 5de2     +SUBI R30 , LOW ( - _SOL_INFO - ( 36 ) )
001627 4ff4     +SBCI R31 , HIGH ( - _SOL_INFO - ( 36 ) )
                 	__ADDW1MN _SOL_INFO,36
001628 940e 2cfe 	CALL SUBOPT_0xB5
00162a f459      	BRNE _0x2EC
00162b e0a6      	LDI  R26,LOW(6)
00162c 9f1a      	MUL  R17,R26
00162d 01f0      	MOVW R30,R0
00162e 50e0      	SUBI R30,LOW(-_pocketSTATE)
00162f 4ff2      	SBCI R31,HIGH(-_pocketSTATE)
001630 940e 2d04 	CALL SUBOPT_0xB6
001632 940e 2d28 	CALL SUBOPT_0xBB
001634 940e 29c0 	CALL SUBOPT_0x42
                 ; 0000 06C3     }
                 _0x2EC:
001636 5f1f      	SUBI R17,-1
001637 cf77      	RJMP _0x2E5
                 _0x2E6:
                 ; 0000 06C4 }
                 _0x2060001:
001638 940e 3181 	CALL __LOADLOCR4
00163a 9624      	ADIW R28,4
00163b 9508      	RET
                 ; .FEND
                 ;
                 ;void LoadParameter(void)
                 ; 0000 06C7 {
                 _LoadParameter:
                 ; .FSTART _LoadParameter
                 ; 0000 06C8     unsigned char icnt;
                 ; 0000 06C9 
                 ; 0000 06CA     //unsigned int  sol_id[MAX_SOLENOID] = {0x0000,0x0001,0x0002,0x0003,0x0004,0x0005};
                 ; 0000 06CB     //unsigned int  sol_packer[MAX_PACKER] = {0x0400,0x0100,0x0600,0x0200,0x0500,0x0300,0x0700};
                 ; 0000 06CC     //unsigned int  sol_ontime[MAX_SOLENOID] = {24,32,38,44,50,56};
                 ; 0000 06CD     //unsigned int  sol_offtime[MAX_SOLENOID] = {10,16,22,28,34,40};
                 ; 0000 06CE     //unsigned int  sol_ontime[MAX_SOLENOID] = {7,11,15,19,23,27};
                 ; 0000 06CF     //unsigned int  sol_offtime[MAX_SOLENOID] = {50,50,50,50,50,50};
                 ; 0000 06D0     //unsigned int  startpocketnumber[MAX_PACKER] = {19,29,47,56,69,78,95,104};
                 ; 0000 06D1     unsigned int  iconstvalue[MAX_LDCELL]={294,294,294,294,294,294};
                 ; 0000 06D2     //unsigned int grade_hilimit[MAX_GRADE]={850,679,599,519,479,419,0,0,851};
                 ; 0000 06D3     //unsigned int grade_lolimit[MAX_GRADE]={680,600,520,480,420,320,0,0,321};
                 ; 0000 06D4 
                 ; 0000 06D5     GET_USR_INFO_DATA(GRADE_INFO_DATA);
00163c 972c      	SBIW R28,12
00163d e08c      	LDI  R24,12
00163e e0a0      	LDI  R26,LOW(0)
00163f e0b0      	LDI  R27,HIGH(0)
001640 ece8      	LDI  R30,LOW(_0x2ED*2)
001641 e0f2      	LDI  R31,HIGH(_0x2ED*2)
001642 940e 3186 	CALL __INITLOCB
001644 931a      	ST   -Y,R17
                 ;	icnt -> R17
                 ;	iconstvalue -> Y+1
001645 e0ab      	LDI  R26,LOW(11)
001646 e0b0      	LDI  R27,0
001647 940e 0468 	CALL _GET_USR_INFO_DATA
                 ; 0000 06D6     GET_USR_INFO_DATA(SOL_INFO_DATA);
001649 e0ac      	LDI  R26,LOW(12)
00164a e0b0      	LDI  R27,0
00164b 940e 0468 	CALL _GET_USR_INFO_DATA
                 ; 0000 06D7     GET_USR_INFO_DATA(PACKER_INFO_DATA);
00164d e0ad      	LDI  R26,LOW(13)
00164e e0b0      	LDI  R27,0
00164f 940e 0468 	CALL _GET_USR_INFO_DATA
                 ; 0000 06D8     GET_USR_INFO_DATA(LDCELL_INFO_DATA);
001651 e0ae      	LDI  R26,LOW(14)
001652 e0b0      	LDI  R27,0
001653 940e 0468 	CALL _GET_USR_INFO_DATA
                 ; 0000 06D9     GET_USR_INFO_DATA(MEASURE_INFO_DATA);
001655 e0af      	LDI  R26,LOW(15)
001656 e0b0      	LDI  R27,0
001657 940e 0468 	CALL _GET_USR_INFO_DATA
                 ; 0000 06DA     GET_USR_INFO_DATA(PRT_INFO_DATA);
001659 e1a0      	LDI  R26,LOW(16)
00165a e0b0      	LDI  R27,0
00165b 940e 0468 	CALL _GET_USR_INFO_DATA
                 ; 0000 06DB     GET_USR_INFO_DATA(SYS_INFO_DATA);
00165d e1a1      	LDI  R26,LOW(17)
00165e e0b0      	LDI  R27,0
00165f 940e 0468 	CALL _GET_USR_INFO_DATA
                 ; 0000 06DC     GET_USR_INFO_DATA(ABN_INFO_DATA);
001661 e1a3      	LDI  R26,LOW(19)
001662 e0b0      	LDI  R27,0
001663 940e 0468 	CALL _GET_USR_INFO_DATA
                 ; 0000 06DD 
                 ; 0000 06DE     for(icnt=0;icnt<MAX_LDCELL;icnt++){
001665 e010      	LDI  R17,LOW(0)
                 _0x2EF:
001666 3016      	CPI  R17,6
001667 f5b0      	BRSH _0x2F0
                 ; 0000 06DF         if(LDCELL_INFO[icnt].span==0 || LDCELL_INFO[icnt].span==0xFF){
001668 940e 2821 	CALL SUBOPT_0xD
00166a 01df      	MOVW R26,R30
00166b 940e 313f 	CALL __GETW1P
00166d 9730      	SBIW R30,0
00166e f021      	BREQ _0x2F2
00166f 3fef      	CPI  R30,LOW(0xFF)
001670 e0a0      	LDI  R26,HIGH(0xFF)
001671 07fa      	CPC  R31,R26
001672 f4d9      	BRNE _0x2F1
                 _0x2F2:
                 ; 0000 06E0             ConstWeight[icnt] = iconstvalue[icnt];
001673 2fe1      	MOV  R30,R17
001674 e4a8      	LDI  R26,LOW(_ConstWeight)
001675 e0bf      	LDI  R27,HIGH(_ConstWeight)
001676 940e 280f 	CALL SUBOPT_0xA
001678 010f      	MOVW R0,R30
001679 2fe1      	MOV  R30,R17
00167a e0f0      	LDI  R31,0
00167b 01de      	MOVW R26,R28
00167c 9611      	ADIW R26,1
00167d 940e 2815 	CALL SUBOPT_0xB
00167f 940e 2d31 	CALL SUBOPT_0xBC
                 ; 0000 06E1             LDCELL_INFO[icnt].span = ConstWeight[icnt];
001681 940e 2821 	CALL SUBOPT_0xD
001683 010f      	MOVW R0,R30
001684 2fe1      	MOV  R30,R17
001685 e4a8      	LDI  R26,LOW(_ConstWeight)
001686 e0bf      	LDI  R27,HIGH(_ConstWeight)
001687 e0f0      	LDI  R31,0
001688 940e 2815 	CALL SUBOPT_0xB
00168a 940e 313f 	CALL __GETW1P
00168c 01d0      	MOVW R26,R0
00168d c00c      	RJMP _0x4C6
                 ; 0000 06E2         }
                 ; 0000 06E3         else{
                 _0x2F1:
                 ; 0000 06E4             ConstWeight[icnt] = LDCELL_INFO[icnt].span;
00168e 2fe1      	MOV  R30,R17
00168f e4a8      	LDI  R26,LOW(_ConstWeight)
001690 e0bf      	LDI  R27,HIGH(_ConstWeight)
001691 940e 280f 	CALL SUBOPT_0xA
001693 01bf      	MOVW R22,R30
001694 940e 2821 	CALL SUBOPT_0xD
001696 01df      	MOVW R26,R30
001697 940e 313f 	CALL __GETW1P
001699 01db      	MOVW R26,R22
                 _0x4C6:
00169a 93ed      	ST   X+,R30
00169b 93fc      	ST   X,R31
                 ; 0000 06E5         }
                 ; 0000 06E6         //    .
                 ; 0000 06E7         //      0  -31g 1 .
                 ; 0000 06E8         //zero_value[icnt]=1400;
                 ; 0000 06E9     }
00169c 5f1f      	SUBI R17,-1
00169d cfc8      	RJMP _0x2EF
                 _0x2F0:
                 ; 0000 06EA 
                 ; 0000 06EB     if(SYS_INFO.z_encoder_interval!=360 || SYS_INFO.z_encoder_interval!=600){
00169e 940e 2d37 	CALL SUBOPT_0xBD
0016a0 36a8      	CPI  R26,LOW(0x168)
0016a1 e0e1      	LDI  R30,HIGH(0x168)
0016a2 07be      	CPC  R27,R30
0016a3 f431      	BRNE _0x2F6
0016a4 940e 2d37 	CALL SUBOPT_0xBD
0016a6 35a8      	CPI  R26,LOW(0x258)
0016a7 e0e2      	LDI  R30,HIGH(0x258)
0016a8 07be      	CPC  R27,R30
0016a9 f059      	BREQ _0x2F5
                 _0x2F6:
                 ; 0000 06EC         SYS_INFO.bucket_ref_pulse_cnt = 60;
0016aa e3ec      	LDI  R30,LOW(60)
                +
0016ab 93e0 0d25+STS _SYS_INFO + ( 11 ) , R30
                 	__PUTB1MN _SYS_INFO,11
                 ; 0000 06ED         SYS_INFO.z_encoder_min_interval= 60;
0016ad e3ec      	LDI  R30,LOW(60)
0016ae e0f0      	LDI  R31,HIGH(60)
                +
0016af 93e0 0d23+STS _SYS_INFO + ( 9 ) , R30
0016b1 93f0 0d24+STS _SYS_INFO + ( 9 ) + 1 , R31
                 	__PUTW1MN _SYS_INFO,9
                 ; 0000 06EE         SYS_INFO.z_encoder_interval = 360;
0016b3 940e 2854 	CALL SUBOPT_0x17
                 ; 0000 06EF     }
                 ; 0000 06F0 
                 ; 0000 06F1     //   55g    0.1g  .
                 ; 0000 06F2     if(GRADE_INFO[0].hiLimit<550){
                 _0x2F5:
0016b5 91a0 0ab0 	LDS  R26,_GRADE_INFO
0016b7 91b0 0ab1 	LDS  R27,_GRADE_INFO+1
0016b9 32a6      	CPI  R26,LOW(0x226)
0016ba e0e2      	LDI  R30,HIGH(0x226)
0016bb 07be      	CPC  R27,R30
0016bc f414      	BRGE _0x2F8
                 ; 0000 06F3         GRADE_INFO[0].hiLimit = GRADE_INFO[g_ETC].hiLimit -1;
0016bd 940e 2d3c 	CALL SUBOPT_0xBE
                 ; 0000 06F4     }
                 ; 0000 06F5 
                 ; 0000 06F6 
                 ; 0000 06F7 }
                 _0x2F8:
0016bf 8118      	LDD  R17,Y+0
0016c0 962d      	ADIW R28,13
0016c1 9508      	RET
                 ; .FEND
                 ;
                 ;void SaveParameter(void){
                 ; 0000 06F9 void SaveParameter(void){
                 ; 0000 06FA     //  
                 ; 0000 06FB     PUT_USR_INFO_DATA(GRADE_INFO_DATA);
                 ; 0000 06FC     PUT_USR_INFO_DATA(SOL_INFO_DATA);
                 ; 0000 06FD     PUT_USR_INFO_DATA(PACKER_INFO_DATA);
                 ; 0000 06FE     PUT_USR_INFO_DATA(LDCELL_INFO_DATA);
                 ; 0000 06FF     PUT_USR_INFO_DATA(MEASURE_INFO_DATA);
                 ; 0000 0700     PUT_USR_INFO_DATA(PRT_INFO_DATA);
                 ; 0000 0701     PUT_USR_INFO_DATA(SYS_INFO_DATA);
                 ; 0000 0702 }
                 ;
                 ;void ETC_PARAMETER_SETTING(void){
                 ; 0000 0704 void ETC_PARAMETER_SETTING(void){
                 _ETC_PARAMETER_SETTING:
                 ; .FSTART _ETC_PARAMETER_SETTING
                 ; 0000 0705     //ETC Parameter Initialize
                 ; 0000 0706     weight_ad_end_pulse = MEASURE_INFO.ad_start_pulse  + MEASURE_INFO.duringcount;
                +
0016c2 91e0 0cfe+LDS R30 , _MEASURE_INFO + ( 2 )
0016c4 91f0 0cff+LDS R31 , _MEASURE_INFO + ( 2 ) + 1
                 	__GETW1MN _MEASURE_INFO,2
0016c6 940e 29c5 	CALL SUBOPT_0x43
0016c8 0fea      	ADD  R30,R26
0016c9 1ffb      	ADC  R31,R27
0016ca 93e0 0f0e 	STS  _weight_ad_end_pulse,R30
0016cc 93f0 0f0f 	STS  _weight_ad_end_pulse+1,R31
                 ; 0000 0707     weight_cal_end_pulse = weight_ad_end_pulse + MAX_LDCELL;
0016ce 9636      	ADIW R30,6
0016cf 93e0 0f10 	STS  _weight_cal_end_pulse,R30
0016d1 93f0 0f11 	STS  _weight_cal_end_pulse+1,R31
                 ; 0000 0708 
                 ; 0000 0709     zero_ad_end_pulse = MEASURE_INFO.zeroposition + ZeroMeasurePulse;
                +
0016d3 91e0 0d00+LDS R30 , _MEASURE_INFO + ( 4 )
0016d5 91f0 0d01+LDS R31 , _MEASURE_INFO + ( 4 ) + 1
                 	__GETW1MN _MEASURE_INFO,4
0016d7 963a      	ADIW R30,10
0016d8 93e0 0f12 	STS  _zero_ad_end_pulse,R30
0016da 93f0 0f13 	STS  _zero_ad_end_pulse+1,R31
                 ; 0000 070A     zero_cal_end_pulse = zero_ad_end_pulse + MAX_LDCELL;
0016dc 9636      	ADIW R30,6
0016dd 93e0 0f14 	STS  _zero_cal_end_pulse,R30
0016df 93f0 0f15 	STS  _zero_cal_end_pulse+1,R31
                 ; 0000 070B 
                 ; 0000 070C     correct_data_end_pulse = weight_cal_end_pulse + MAX_LDCELL;
0016e1 91e0 0f10 	LDS  R30,_weight_cal_end_pulse
0016e3 91f0 0f11 	LDS  R31,_weight_cal_end_pulse+1
0016e5 9636      	ADIW R30,6
0016e6 93e0 1ea8 	STS  _correct_data_end_pulse,R30
0016e8 93f0 1ea9 	STS  _correct_data_end_pulse+1,R31
                 ; 0000 070D 
                 ; 0000 070E     ConvertPosition = correct_data_end_pulse + 2;                                 // 
0016ea 9632      	ADIW R30,2
0016eb 93e0 0f16 	STS  _ConvertPosition,R30
0016ed 93f0 0f17 	STS  _ConvertPosition+1,R31
                 ; 0000 070F     convert_end_pulse = ConvertPosition + MAX_LDCELL;
0016ef 9636      	ADIW R30,6
0016f0 93e0 0f18 	STS  _convert_end_pulse,R30
0016f2 93f0 0f19 	STS  _convert_end_pulse+1,R31
                 ; 0000 0710     GradingPosition =  340;                                     //Fixed Value- 330 
0016f4 e5e4      	LDI  R30,LOW(340)
0016f5 e0f1      	LDI  R31,HIGH(340)
0016f6 93e0 0f20 	STS  _GradingPosition,R30
0016f8 93f0 0f21 	STS  _GradingPosition+1,R31
                 ; 0000 0711     grading_end_pulse = GradingPosition+MAX_LDCELL;
0016fa 9636      	ADIW R30,6
0016fb 93e0 0f1a 	STS  _grading_end_pulse,R30
0016fd 93f0 0f1b 	STS  _grading_end_pulse+1,R31
                 ; 0000 0712 
                 ; 0000 0713     crackchk_end_pulse = MEASURE_INFO.crackchecktime + 30;
0016ff 940e 2d46 	CALL SUBOPT_0xBF
001701 967e      	ADIW R30,30
001702 93e0 0f1c 	STS  _crackchk_end_pulse,R30
001704 93f0 0f1d 	STS  _crackchk_end_pulse+1,R31
                 ; 0000 0714 
                 ; 0000 0715     //2014.03.10 :: 
                 ; 0000 0716     //   :: 50 50
                 ; 0000 0717     //  : 50
                 ; 0000 0718     unit_correct = SYS_INFO.correction / SYS_INFO.correction;
                +
001706 91a0 0d1e+LDS R26 , _SYS_INFO + ( 4 )
                 	__GETB2MN _SYS_INFO,4
                +
001708 91e0 0d1e+LDS R30 , _SYS_INFO + ( 4 )
                 	__GETB1MN _SYS_INFO,4
00170a 940e 30b4 	CALL __DIVB21U
00170c 93e0 1c67 	STS  _unit_correct,R30
                 ; 0000 0719     unit_rising = (SYS_INFO.risingTime / SYS_INFO.correction)/timer_period;
                +
00170e 91e0 0d1e+LDS R30 , _SYS_INFO + ( 4 )
                 	__GETB1MN _SYS_INFO,4
001710 e0f0      	LDI  R31,0
001711 91a0 0d1a 	LDS  R26,_SYS_INFO
001713 91b0 0d1b 	LDS  R27,_SYS_INFO+1
001715 940e 2d4b 	CALL SUBOPT_0xC0
001717 93e0 1c68 	STS  _unit_rising,R30
                 ; 0000 071A     unit_falling = (SYS_INFO.fallingTime / SYS_INFO.correction)/timer_period;
                +
001719 91a0 0d1c+LDS R26 , _SYS_INFO + ( 2 )
00171b 91b0 0d1d+LDS R27 , _SYS_INFO + ( 2 ) + 1
                 	__GETW2MN _SYS_INFO,2
                +
00171d 91e0 0d1e+LDS R30 , _SYS_INFO + ( 4 )
                 	__GETB1MN _SYS_INFO,4
00171f e0f0      	LDI  R31,0
001720 940e 2d4b 	CALL SUBOPT_0xC0
001722 93e0 1c69 	STS  _unit_falling,R30
                 ; 0000 071B 
                 ; 0000 071C     // 
                 ; 0000 071D     DelayTimeCount = SYS_INFO.DeAccelDelayTime / 5;
                +
001724 91a0 0d29+LDS R26 , _SYS_INFO + ( 15 )
001726 91b0 0d2a+LDS R27 , _SYS_INFO + ( 15 ) + 1
                 	__GETW2MN _SYS_INFO,15
001728 e0e5      	LDI  R30,LOW(5)
001729 e0f0      	LDI  R31,HIGH(5)
00172a 940e 30d5 	CALL __DIVW21
00172c 93e0 1fa4 	STS  _DelayTimeCount,R30
00172e 93f0 1fa5 	STS  _DelayTimeCount+1,R31
                 ; 0000 071E     deAccelStartCount = SYS_INFO.DeAccelDelayCount;
                +
001730 91e0 0d27+LDS R30 , _SYS_INFO + ( 13 )
001732 91f0 0d28+LDS R31 , _SYS_INFO + ( 13 ) + 1
                 	__GETW1MN _SYS_INFO,13
001734 93e0 1f9e 	STS  _deAccelStartCount,R30
001736 93f0 1f9f 	STS  _deAccelStartCount+1,R31
                 ; 0000 071F 
                 ; 0000 0720     //   0 ,  .
                 ; 0000 0721     if(MEASURE_INFO.crackchecktime == 0){
001738 940e 2d46 	CALL SUBOPT_0xBF
00173a 9730      	SBIW R30,0
00173b f419      	BRNE _0x2F9
                 ; 0000 0722         Crack_Dot_Chk_Enable = 0;
00173c e0e0      	LDI  R30,LOW(0)
00173d 93e0 1e99 	STS  _Crack_Dot_Chk_Enable,R30
                 ; 0000 0723     }
                 ; 0000 0724 }
                 _0x2F9:
00173f 9508      	RET
                 ; .FEND
                 ;
                 ;void Initialize_SYSTEM(void){
                 ; 0000 0726 void Initialize_SYSTEM(void){
                 _Initialize_SYSTEM:
                 ; .FSTART _Initialize_SYSTEM
                 ; 0000 0727     unsigned char icnt, rtn, id_value, direction_chk, jcnt;
                 ; 0000 0728     unsigned int lcnt;
                 ; 0000 0729 
                 ; 0000 072A     //Load Parameter
                 ; 0000 072B 
                 ; 0000 072C     //Bucket Clear
                 ; 0000 072D     for(lcnt = 0;lcnt<MAX_BUCKET;lcnt++){
001740 9722      	SBIW R28,2
001741 940e 3178 	CALL __SAVELOCR6
                 ;	icnt -> R17
                 ;	rtn -> R16
                 ;	id_value -> R19
                 ;	direction_chk -> R18
                 ;	jcnt -> R21
                 ;	lcnt -> Y+6
001743 e0e0      	LDI  R30,LOW(0)
001744 83ee      	STD  Y+6,R30
001745 83ef      	STD  Y+6+1,R30
                 _0x2FB:
001746 81ae      	LDD  R26,Y+6
001747 81bf      	LDD  R27,Y+6+1
001748 32ac      	CPI  R26,LOW(0x12C)
001749 e0e1      	LDI  R30,HIGH(0x12C)
00174a 07be      	CPC  R27,R30
00174b f498      	BRSH _0x2FC
                 ; 0000 072E         BucketData[lcnt] = BucketInitValue;
00174c 81ee      	LDD  R30,Y+6
00174d 81ff      	LDD  R31,Y+6+1
00174e e0a0      	LDI  R26,LOW(_BucketData)
00174f e0b6      	LDI  R27,HIGH(_BucketData)
001750 940e 2815 	CALL SUBOPT_0xB
001752 940e 29c0 	CALL SUBOPT_0x42
                 ; 0000 072F         BucketData_Wight[icnt] = BucketInitValue;
001754 2fe1      	MOV  R30,R17
001755 e5a8      	LDI  R26,LOW(_BucketData_Wight)
001756 e0b8      	LDI  R27,HIGH(_BucketData_Wight)
001757 e0f0      	LDI  R31,0
001758 940e 2815 	CALL SUBOPT_0xB
00175a 940e 29c0 	CALL SUBOPT_0x42
                 ; 0000 0730     }
00175c 940e 2d54 	CALL SUBOPT_0xC1
00175e cfe7      	RJMP _0x2FB
                 _0x2FC:
                 ; 0000 0731 
                 ; 0000 0732     //Flash memory check
                 ; 0000 0733     SPI_Init();
00175f 940e 039f 	CALL _SPI_Init
                 ; 0000 0734     rtn = GetDeviceID();        //Memory Device ID Check
001761 940e 03b8 	CALL _GetDeviceID
001763 2f0e      	MOV  R16,R30
                 ; 0000 0735     if(rtn){    //Device ID Check OK :: Load Data
001764 3000      	CPI  R16,0
001765 f041      	BREQ _0x2FD
                 ; 0000 0736         LoadParameter();
001766 ded5      	RCALL _LoadParameter
                 ; 0000 0737         //Initailize_PARAMETER();
                 ; 0000 0738         //SaveParameter();
                 ; 0000 0739 
                 ; 0000 073A         if(SYS_INFO.chkCODE!=MEM_CHK_CODE){
                +
001767 91a0 0d26+LDS R26 , _SYS_INFO + ( 12 )
                 	__GETB2MN _SYS_INFO,12
001769 31a3      	CPI  R26,LOW(0x13)
00176a f011      	BREQ _0x2FE
                 ; 0000 073B             Initailize_PARAMETER();
00176b 940e 01d6 	CALL _Initailize_PARAMETER
                 ; 0000 073C         }
                 ; 0000 073D     }
                 _0x2FE:
                 ; 0000 073E     else{       //Device ID Check Fail ::    
00176d c002      	RJMP _0x2FF
                 _0x2FD:
                 ; 0000 073F         Initailize_PARAMETER();
00176e 940e 01d6 	CALL _Initailize_PARAMETER
                 ; 0000 0740     }
                 _0x2FF:
                 ; 0000 0741 
                 ; 0000 0742     //, ,   
                 ; 0000 0743     ETC_PARAMETER_SETTING();
001770 df51      	RCALL _ETC_PARAMETER_SETTING
                 ; 0000 0744 
                 ; 0000 0745     //Controller ID Setting
                 ; 0000 0746     //ID Value 0 then CONTROLLER #1 and REMOTE CONTROLL
                 ; 0000 0747     //ID Value 1 then CONTROLLER #2 and REMOTE CONTROLL
                 ; 0000 0748     //ID Value 2 then CONTROLLER #1 and AUTO RUN
                 ; 0000 0749     //ID Value 3 then CONTROLLER #2 and AUTO RUN
                 ; 0000 074A     id_value = (~MACHINE_ID1 <<1) | ~MACHINE_ID0;
001771 e0a0      	LDI  R26,0
001772 9b4f      	SBIS 0x9,7
001773 e0a1      	LDI  R26,1
001774 2fea      	MOV  R30,R26
001775 0fee      	LSL  R30
001776 2fae      	MOV  R26,R30
001777 e0e0      	LDI  R30,0
001778 9b4e      	SBIS 0x9,6
001779 e0e1      	LDI  R30,1
00177a 2bea      	OR   R30,R26
00177b 2f3e      	MOV  R19,R30
                 ; 0000 074B 
                 ; 0000 074C     if(id_value == 0 || id_value == 2){
00177c 3030      	CPI  R19,0
00177d f011      	BREQ _0x301
00177e 3032      	CPI  R19,2
00177f f411      	BRNE _0x300
                 _0x301:
                 ; 0000 074D         CONTROLLER_ID =  0x01;
001780 e0e1      	LDI  R30,LOW(1)
001781 c001      	RJMP _0x4C7
                 ; 0000 074E     }
                 ; 0000 074F     else{
                 _0x300:
                 ; 0000 0750         CONTROLLER_ID =  0x02;
001782 e0e2      	LDI  R30,LOW(2)
                 _0x4C7:
001783 93e0 1c59 	STS  _CONTROLLER_ID,R30
                 ; 0000 0751     }
                 ; 0000 0752 
                 ; 0000 0753     if(id_value == 2 || id_value ==3){
001785 3032      	CPI  R19,2
001786 f011      	BREQ _0x305
001787 3033      	CPI  R19,3
001788 f419      	BRNE _0x304
                 _0x305:
                 ; 0000 0754         ControllerRunMethod = AUTO_RUN_MODE;
001789 e0e1      	LDI  R30,LOW(1)
00178a 2e4e      	MOV  R4,R30
                 ; 0000 0755     }
                 ; 0000 0756     else{
00178b c001      	RJMP _0x307
                 _0x304:
                 ; 0000 0757         ControllerRunMethod = MANUAL_RUN_MODE;
00178c 2444      	CLR  R4
                 ; 0000 0758     }
                 _0x307:
                 ; 0000 0759 
                 ; 0000 075A     //#######################################################
                 ; 0000 075B     //### 2014.11.28 ::       ###
                 ; 0000 075C     //#######################################################
                 ; 0000 075D     PackerSharedEnable = PACKER_INFO[8].gradetype;
                +
00178d 91e0 0cda+LDS R30 , _PACKER_INFO + ( 32 )
                 	__GETB1MN _PACKER_INFO,32
00178f 93e0 2044 	STS  _PackerSharedEnable,R30
                 ; 0000 075E 
                 ; 0000 075F     //#######################################################
                 ; 0000 0760 
                 ; 0000 0761     //   ::   ()  B Low
                 ; 0000 0762     //                      (, )  B High
                 ; 0000 0763     //    (D7) '1'   (D7  GND) ==>B High
                 ; 0000 0764     //    (D7) '0'   (D7  V24) ==>B Low
                 ; 0000 0765     direction_chk = EDI_CH0 & 0x80;
001791 91e0 a000 	LDS  R30,40960
001793 78e0      	ANDI R30,LOW(0x80)
001794 2f2e      	MOV  R18,R30
                 ; 0000 0766     if(direction_chk == 0x00){
001795 3020      	CPI  R18,0
001796 f411      	BRNE _0x308
                 ; 0000 0767         CW_DIR = 0;
001797 2455      	CLR  R5
                 ; 0000 0768     }
                 ; 0000 0769     else if(direction_chk==0x80){
001798 c004      	RJMP _0x309
                 _0x308:
001799 3820      	CPI  R18,128
00179a f411      	BRNE _0x30A
                 ; 0000 076A         CW_DIR = 1;
00179b e0e1      	LDI  R30,LOW(1)
00179c 2e5e      	MOV  R5,R30
                 ; 0000 076B     }
                 ; 0000 076C 
                 ; 0000 076D 
                 ; 0000 076E 
                 ; 0000 076F     //   
                 ; 0000 0770     for(jcnt=0;jcnt<MAX_LDCELL;jcnt++){
                 _0x30A:
                 _0x309:
00179d e050      	LDI  R21,LOW(0)
                 _0x30C:
00179e 3056      	CPI  R21,6
00179f f008      	BRLO PC+2
0017a0 c05f      	RJMP _0x30D
                 ; 0000 0771         reformTotal = 0;    reformVoltage = 0;  adcnt = 0;
0017a1 940e 2d5a 	CALL SUBOPT_0xC2
                 ; 0000 0772         for(icnt = 0;icnt<240;icnt++){
0017a3 e010      	LDI  R17,LOW(0)
                 _0x30F:
0017a4 3f10      	CPI  R17,240
0017a5 f5f0      	BRSH _0x310
                 ; 0000 0773             if(icnt>=avr_loop_cnt){
0017a6 91e0 1c01 	LDS  R30,_avr_loop_cnt
0017a8 171e      	CP   R17,R30
0017a9 f088      	BRLO _0x311
                 ; 0000 0774                 reformTotal -= reform_ADC[adcnt];
0017aa 940e 2ac1 	CALL SUBOPT_0x65
0017ac e0f0      	LDI  R31,0
0017ad 940e 2815 	CALL SUBOPT_0xB
0017af 940e 2d6a 	CALL SUBOPT_0xC3
0017b1 940e 3035 	CALL __SUBD21
0017b3 93a0 1c17 	STS  _reformTotal,R26
0017b5 93b0 1c18 	STS  _reformTotal+1,R27
0017b7 9380 1c19 	STS  _reformTotal+2,R24
0017b9 9390 1c1a 	STS  _reformTotal+3,R25
                 ; 0000 0775             }
                 ; 0000 0776             reform_ADC[adcnt] = RD_ADC(jcnt);
                 _0x311:
0017bb 940e 2ac1 	CALL SUBOPT_0x65
0017bd 940e 280f 	CALL SUBOPT_0xA
0017bf 93ff      	PUSH R31
0017c0 93ef      	PUSH R30
0017c1 2fa5      	MOV  R26,R21
0017c2 940e 0365 	CALL _RD_ADC
0017c4 91af      	POP  R26
0017c5 91bf      	POP  R27
0017c6 93ed      	ST   X+,R30
0017c7 93fc      	ST   X,R31
                 ; 0000 0777             reformTotal += (long)reform_ADC[adcnt++];
0017c8 940e 2ad2 	CALL SUBOPT_0x67
0017ca 940e 2a40 	CALL SUBOPT_0x55
0017cc 940e 2adc 	CALL SUBOPT_0x68
                 ; 0000 0778             adcnt %= avr_loop_cnt;
                 ; 0000 0779             ref_zero_value[jcnt]=(reformTotal / avr_loop_cnt)*763/10000;
0017ce 2fe5      	MOV  R30,R21
0017cf e3ac      	LDI  R26,LOW(_ref_zero_value)
0017d0 e0bf      	LDI  R27,HIGH(_ref_zero_value)
0017d1 940e 280f 	CALL SUBOPT_0xA
0017d3 93ff      	PUSH R31
0017d4 93ef      	PUSH R30
0017d5 91e0 1c01 	LDS  R30,_avr_loop_cnt
0017d7 e0f0      	LDI  R31,0
0017d8 940e 2ab8 	CALL SUBOPT_0x64
0017da 940e 29ef 	CALL SUBOPT_0x49
0017dc 940e 29fa 	CALL SUBOPT_0x4C
0017de 91af      	POP  R26
0017df 91bf      	POP  R27
0017e0 93ed      	ST   X+,R30
0017e1 93fc      	ST   X,R31
                 ; 0000 077A         }
0017e2 5f1f      	SUBI R17,-1
0017e3 cfc0      	RJMP _0x30F
                 _0x310:
                 ; 0000 077B         zero_value[jcnt] = ref_zero_value[jcnt];
0017e4 2fe5      	MOV  R30,R21
0017e5 940e 29f4 	CALL SUBOPT_0x4A
0017e7 010f      	MOVW R0,R30
0017e8 2fe5      	MOV  R30,R21
0017e9 e3ac      	LDI  R26,LOW(_ref_zero_value)
0017ea e0bf      	LDI  R27,HIGH(_ref_zero_value)
0017eb e0f0      	LDI  R31,0
0017ec 940e 2815 	CALL SUBOPT_0xB
0017ee 940e 2d31 	CALL SUBOPT_0xBC
                 ; 0000 077C         old_Zero[jcnt] = zero_value[jcnt];
0017f0 2fe5      	MOV  R30,R21
0017f1 e9ac      	LDI  R26,LOW(_old_Zero)
0017f2 e1be      	LDI  R27,HIGH(_old_Zero)
0017f3 940e 280f 	CALL SUBOPT_0xA
0017f5 010f      	MOVW R0,R30
0017f6 2fe5      	MOV  R30,R21
0017f7 e3a0      	LDI  R26,LOW(_zero_value)
0017f8 e0bf      	LDI  R27,HIGH(_zero_value)
0017f9 e0f0      	LDI  R31,0
0017fa 940e 2815 	CALL SUBOPT_0xB
0017fc 940e 2d31 	CALL SUBOPT_0xBC
                 ; 0000 077D 
                 ; 0000 077E     }
0017fe 5f5f      	SUBI R21,-1
0017ff cf9e      	RJMP _0x30C
                 _0x30D:
                 ; 0000 077F 
                 ; 0000 0780 
                 ; 0000 0781 
                 ; 0000 0782     //  
                 ; 0000 0783     led_buz_value |= BUZZER_ON;     LED_BUZ = led_buz_value;     delay_ms(150);
001800 940e 2d70 	CALL SUBOPT_0xC4
001802 e9a6      	LDI  R26,LOW(150)
001803 e0b0      	LDI  R27,0
001804 940e 3021 	CALL _delay_ms
                 ; 0000 0784     led_buz_value &= ~BUZZER_ON;    LED_BUZ = led_buz_value;     delay_ms(80);
001806 940e 2b1e 	CALL SUBOPT_0x6E
001808 e5a0      	LDI  R26,LOW(80)
001809 e0b0      	LDI  R27,0
00180a 940e 3021 	CALL _delay_ms
                 ; 0000 0785     for(icnt=0;icnt<1;icnt++){
00180c e010      	LDI  R17,LOW(0)
                 _0x313:
00180d 3011      	CPI  R17,1
00180e f460      	BRSH _0x314
                 ; 0000 0786         led_buz_value |= BUZZER_ON;     LED_BUZ = led_buz_value;     delay_ms(50);
00180f 940e 2d70 	CALL SUBOPT_0xC4
001811 940e 2d74 	CALL SUBOPT_0xC5
                 ; 0000 0787         led_buz_value &= ~BUZZER_ON;    LED_BUZ = led_buz_value;     delay_ms(80);
001813 940e 2b1e 	CALL SUBOPT_0x6E
001815 e5a0      	LDI  R26,LOW(80)
001816 e0b0      	LDI  R27,0
001817 940e 3021 	CALL _delay_ms
                 ; 0000 0788     }
001819 5f1f      	SUBI R17,-1
00181a cff2      	RJMP _0x313
                 _0x314:
                 ; 0000 0789 
                 ; 0000 078A     //  SYSTEM  LED 
                 ; 0000 078B     led_buz_value |= LED_INIT_OK;
00181b 91e0 1c5a 	LDS  R30,_led_buz_value
00181d 64e0      	ORI  R30,0x40
00181e 940e 297c 	CALL SUBOPT_0x38
                 ; 0000 078C     LED_BUZ = led_buz_value;
                 ; 0000 078D 
                 ; 0000 078E     // PLC OFF  
                 ; 0000 078F     plc_prt_value |= EVENT_STOP;
001820 91e0 0ee1 	LDS  R30,_plc_prt_value
001822 60e2      	ORI  R30,2
001823 940e 28d2 	CALL SUBOPT_0x28
                 ; 0000 0790     PLC_CON = plc_prt_value;
                 ; 0000 0791 
                 ; 0000 0792     #asm("sei");
001825 9478      	sei
                 ; 0000 0793 }
001826 940e 317f 	CALL __LOADLOCR6
001828 9628      	ADIW R28,8
001829 9508      	RET
                 ; .FEND
                 ;
                 ;void BuzzerOn(void){
                 ; 0000 0795 void BuzzerOn(void){
                 _BuzzerOn:
                 ; .FSTART _BuzzerOn
                 ; 0000 0796     led_buz_value |= BUZZER_ON;
00182a 940e 2d70 	CALL SUBOPT_0xC4
                 ; 0000 0797     LED_BUZ = led_buz_value;
                 ; 0000 0798     TimerMode = tmrBUZ;
00182c e0e3      	LDI  R30,LOW(3)
00182d 940e 2d78 	CALL SUBOPT_0xC6
                 ; 0000 0799     TCNT1H=0x00;        TCNT1L=0x00;
                 ; 0000 079A     OCR1AH=0x0C;        OCR1AL=0x35;
00182f e0ec      	LDI  R30,LOW(12)
001830 93e0 0089 	STS  137,R30
001832 e3e5      	LDI  R30,LOW(53)
001833 940e 2d7c 	CALL SUBOPT_0xC7
                 ; 0000 079B     TCCR1B = 0x05;
                 ; 0000 079C }
001835 9508      	RET
                 ; .FEND
                 ;
                 ;void Reform_Weight(void)
                 ; 0000 079F {
                 _Reform_Weight:
                 ; .FSTART _Reform_Weight
                 ; 0000 07A0     unsigned char done=1;
                 ; 0000 07A1     unsigned int icnt, jcnt, kcnt;
                 ; 0000 07A2     unsigned int readvalue;
                 ; 0000 07A3     long avrtotal;
                 ; 0000 07A4 
                 ; 0000 07A5     TxBuffer[0] = 0x02;
001836 9728      	SBIW R28,8
001837 940e 3178 	CALL __SAVELOCR6
                 ;	done -> R17
                 ;	icnt -> R18,R19
                 ;	jcnt -> R20,R21
                 ;	kcnt -> Y+12
                 ;	readvalue -> Y+10
                 ;	avrtotal -> Y+6
001839 e011      	LDI  R17,1
00183a 940e 2a90 	CALL SUBOPT_0x5F
                 ; 0000 07A6     TxBuffer[1] = 0x00;
                 ; 0000 07A7     TxBuffer[2] = 0x02;
                +
00183c 93e0 1622+STS _TxBuffer + ( 2 ) , R30
                 	__PUTB1MN _TxBuffer,2
                 ; 0000 07A8     TxBuffer[3] = CMD_REFORM_WEIGHT;
00183e efe0      	LDI  R30,LOW(240)
00183f 940e 2d82 	CALL SUBOPT_0xC8
                 ; 0000 07A9     TxBuffer[4] = 0x01;
                 ; 0000 07AA     TxBuffer[5] = 0x03;
                 ; 0000 07AB     TxEnable = 1;   txcnt = 1;  TxLength = 6;   UDR1 = TxBuffer[0];
001841 940e 2d86 	CALL SUBOPT_0xC9
                 ; 0000 07AC     COM_REV_ENABLE = 0;
001843 e0e0      	LDI  R30,LOW(0)
001844 93e0 1bfc 	STS  _COM_REV_ENABLE,R30
                 ; 0000 07AD 
                 ; 0000 07AE 
                 ; 0000 07AF     for(jcnt=0;jcnt<MAX_LDCELL;jcnt++){
                +
001846 e040     +LDI R20 , LOW ( 0 )
001847 e050     +LDI R21 , HIGH ( 0 )
                 	__GETWRN 20,21,0
                 _0x316:
                +
001848 3046     +CPI R20 , LOW ( 6 )
001849 e0e0     +LDI R30 , HIGH ( 6 )
00184a 075e     +CPC R21 , R30
                 	__CPWRN 20,21,6
00184b f008      	BRLO PC+2
00184c c072      	RJMP _0x317
                 ; 0000 07B0         reformTotal = 0;    reformVoltage = 0;  adcnt = 0;
00184d 940e 2d5a 	CALL SUBOPT_0xC2
                 ; 0000 07B1         for(icnt = 0;icnt<240;icnt++){
                +
00184f e020     +LDI R18 , LOW ( 0 )
001850 e030     +LDI R19 , HIGH ( 0 )
                 	__GETWRN 18,19,0
                 _0x319:
                +
001851 3f20     +CPI R18 , LOW ( 240 )
001852 e0e0     +LDI R30 , HIGH ( 240 )
001853 073e     +CPC R19 , R30
                 	__CPWRN 18,19,240
001854 f008      	BRLO PC+2
001855 c066      	RJMP _0x31A
                 ; 0000 07B2             /*if(icnt>=avr_loop_cnt){
                 ; 0000 07B3                 reformTotal -= reform_ADC[adcnt];
                 ; 0000 07B4             }
                 ; 0000 07B5             reform_ADC[adcnt] = RD_ADC(jcnt);
                 ; 0000 07B6             reformTotal += (long)reform_ADC[adcnt++];
                 ; 0000 07B7             adcnt %= avr_loop_cnt;
                 ; 0000 07B8             zero_value[jcnt]=(reformTotal / avr_loop_cnt)*763/10000;
                 ; 0000 07B9             */
                 ; 0000 07BA 
                 ; 0000 07BB             readvalue = RD_ADC(jcnt);
001856 2fa4      	MOV  R26,R20
001857 940e 0365 	CALL _RD_ADC
001859 87ea      	STD  Y+10,R30
00185a 87fb      	STD  Y+10+1,R31
                 ; 0000 07BC 
                 ; 0000 07BD             if(icnt ==0){                                       //   
00185b 2e02      	MOV  R0,R18
00185c 2a03      	OR   R0,R19
00185d f4b1      	BRNE _0x31B
                 ; 0000 07BE                 for(kcnt = 0 ;kcnt<avr_loop_cnt;kcnt++){
00185e e0e0      	LDI  R30,LOW(0)
00185f 87ec      	STD  Y+12,R30
001860 87ed      	STD  Y+12+1,R30
                 _0x31D:
001861 940e 2d89 	CALL SUBOPT_0xCA
001863 f480      	BRSH _0x31E
                 ; 0000 07BF                     reform_ADC[kcnt] = readvalue;
001864 940e 2d91 	CALL SUBOPT_0xCB
001866 85aa      	LDD  R26,Y+10
001867 85bb      	LDD  R27,Y+10+1
001868 83a0      	STD  Z+0,R26
001869 83b1      	STD  Z+1,R27
                 ; 0000 07C0                     reformTotal += (long)readvalue;
00186a 940e 2d96 	CALL SUBOPT_0xCC
00186c 940e 2d9e 	CALL SUBOPT_0xCD
                 ; 0000 07C1                 }
00186e 85ec      	LDD  R30,Y+12
00186f 85fd      	LDD  R31,Y+12+1
001870 9631      	ADIW R30,1
001871 87ec      	STD  Y+12,R30
001872 87fd      	STD  Y+12+1,R31
001873 cfed      	RJMP _0x31D
                 _0x31E:
                 ; 0000 07C2             }
                 ; 0000 07C3 
                 ; 0000 07C4             avrtotal = reformTotal + (long)readvalue;                     //(reformTotal)  
                 _0x31B:
001874 940e 2d96 	CALL SUBOPT_0xCC
                +
001876 83ee     +STD Y + 6 , R30
001877 83ff     +STD Y + 6 + 1 , R31
001878 8768     +STD Y + 6 + 2 , R22
001879 8779     +STD Y + 6 + 3 , R23
                 	__PUTD1S 6
                 ; 0000 07C5             reformTotal -= (long)reform_ADC[adcnt];                       //   .
00187a 940e 2ac1 	CALL SUBOPT_0x65
00187c e0f0      	LDI  R31,0
00187d 940e 2815 	CALL SUBOPT_0xB
00187f 940e 2a40 	CALL SUBOPT_0x55
001881 940e 2ac6 	CALL SUBOPT_0x66
                 ; 0000 07C6             reform_ADC[adcnt] = (unsigned int)(avrtotal / (avr_loop_cnt+1));        //
001883 940e 280f 	CALL SUBOPT_0xA
001885 93ff      	PUSH R31
001886 93ef      	PUSH R30
001887 91e0 1c01 	LDS  R30,_avr_loop_cnt
001889 e0f0      	LDI  R31,0
00188a 9631      	ADIW R30,1
                +
00188b 81ae     +LDD R26 , Y + 6
00188c 81bf     +LDD R27 , Y + 6 + 1
00188d 8588     +LDD R24 , Y + 6 + 2
00188e 8599     +LDD R25 , Y + 6 + 3
                 	__GETD2S 6
00188f 940e 29ef 	CALL SUBOPT_0x49
001891 91af      	POP  R26
001892 91bf      	POP  R27
001893 93ed      	ST   X+,R30
001894 93fc      	ST   X,R31
                 ; 0000 07C7 
                 ; 0000 07C8             zero_value[jcnt] = ((long)reform_ADC[adcnt] * 763) / 10000;
001895 01fa      	MOVW R30,R20
001896 e3a0      	LDI  R26,LOW(_zero_value)
001897 e0bf      	LDI  R27,HIGH(_zero_value)
001898 940e 2c00 	CALL SUBOPT_0x90
00189a 93ff      	PUSH R31
00189b 93ef      	PUSH R30
00189c 940e 2ac1 	CALL SUBOPT_0x65
00189e e0f0      	LDI  R31,0
00189f 940e 2815 	CALL SUBOPT_0xB
0018a1 940e 2a40 	CALL SUBOPT_0x55
0018a3 940e 29fa 	CALL SUBOPT_0x4C
0018a5 91af      	POP  R26
0018a6 91bf      	POP  R27
0018a7 93ed      	ST   X+,R30
0018a8 93fc      	ST   X,R31
                 ; 0000 07C9             reformTotal += reform_ADC[adcnt++];
0018a9 940e 2ad2 	CALL SUBOPT_0x67
0018ab 940e 2d6a 	CALL SUBOPT_0xC3
0018ad 940e 302b 	CALL __ADDD12
0018af 940e 2d9e 	CALL SUBOPT_0xCD
                 ; 0000 07CA 
                 ; 0000 07CB             adcnt %= avr_loop_cnt;
0018b1 91e0 1c01 	LDS  R30,_avr_loop_cnt
0018b3 91a0 1c00 	LDS  R26,_adcnt
0018b5 940e 3104 	CALL __MODB21U
0018b7 93e0 1c00 	STS  _adcnt,R30
                 ; 0000 07CC         }
                +
0018b9 5f2f     +SUBI R18 , LOW ( - 1 )
0018ba 4f3f     +SBCI R19 , HIGH ( - 1 )
                 	__ADDWRN 18,19,1
0018bb cf95      	RJMP _0x319
                 _0x31A:
                 ; 0000 07CD     }
                +
0018bc 5f4f     +SUBI R20 , LOW ( - 1 )
0018bd 4f5f     +SBCI R21 , HIGH ( - 1 )
                 	__ADDWRN 20,21,1
0018be cf89      	RJMP _0x316
                 _0x317:
                 ; 0000 07CE 
                 ; 0000 07CF     BuzzerOn();
0018bf 940e 2da7 	CALL SUBOPT_0xCE
                 ; 0000 07D0     delay_ms(200);
                 ; 0000 07D1 
                 ; 0000 07D2     while(done){
                 _0x31F:
0018c1 3010      	CPI  R17,0
0018c2 f409      	BRNE PC+2
0018c3 c14c      	RJMP _0x321
                 ; 0000 07D3         if(COM_REV_ENABLE){
0018c4 91e0 1bfc 	LDS  R30,_COM_REV_ENABLE
0018c6 30e0      	CPI  R30,0
0018c7 f409      	BRNE PC+2
0018c8 c146      	RJMP _0x322
                 ; 0000 07D4             switch(RxBuffer[0]){
0018c9 91e0 142c 	LDS  R30,_RxBuffer
0018cb e0f0      	LDI  R31,0
                 ; 0000 07D5                 case CMD_REFORM_START :
0018cc 3fe1      	CPI  R30,LOW(0xF1)
0018cd e0a0      	LDI  R26,HIGH(0xF1)
0018ce 07fa      	CPC  R31,R26
0018cf f009      	BREQ PC+2
0018d0 c050      	RJMP _0x326
                 ; 0000 07D6                     TCCR1B = 0x00;
0018d1 e0e0      	LDI  R30,LOW(0)
0018d2 93e0 0081 	STS  129,R30
                 ; 0000 07D7                     TxBuffer[0] = 0x02;
0018d4 940e 2a90 	CALL SUBOPT_0x5F
                 ; 0000 07D8                     TxBuffer[1] = 0x00;
                 ; 0000 07D9                     TxBuffer[2] = 0x02;
                +
0018d6 93e0 1622+STS _TxBuffer + ( 2 ) , R30
                 	__PUTB1MN _TxBuffer,2
                 ; 0000 07DA                     TxBuffer[3] = CMD_REFORM_START;
0018d8 efe1      	LDI  R30,LOW(241)
0018d9 940e 2d82 	CALL SUBOPT_0xC8
                 ; 0000 07DB                     TxBuffer[4] = 0x01;
                 ; 0000 07DC                     TxBuffer[5] = 0x03;
                 ; 0000 07DD                     TxEnable = 1;   txcnt = 1;  TxLength = 6;   UDR1 = TxBuffer[0];
0018db 940e 2d86 	CALL SUBOPT_0xC9
                 ; 0000 07DE 
                 ; 0000 07DF                     while(TxEnable){
                 _0x327:
0018dd 91e0 1bfe 	LDS  R30,_TxEnable
0018df 30e0      	CPI  R30,0
0018e0 f7e1      	BRNE _0x327
                 ; 0000 07E0                     }
                 ; 0000 07E1 
                 ; 0000 07E2                     BuzzerOn();
0018e1 940e 2da7 	CALL SUBOPT_0xCE
                 ; 0000 07E3                     delay_ms(200);
                 ; 0000 07E4 
                 ; 0000 07E5                     led_buz_value |= LED_RUN_STOP;
0018e3 940e 28ca 	CALL SUBOPT_0x27
                 ; 0000 07E6                     LED_BUZ = led_buz_value;
                 ; 0000 07E7                     TCCR1B = 0x00;
0018e5 940e 285b 	CALL SUBOPT_0x18
                 ; 0000 07E8 
                 ; 0000 07E9                     reformTotal=0; adcnt=0;
0018e7 93e0 1c17 	STS  _reformTotal,R30
0018e9 93e0 1c18 	STS  _reformTotal+1,R30
0018eb 93e0 1c19 	STS  _reformTotal+2,R30
0018ed 93e0 1c1a 	STS  _reformTotal+3,R30
0018ef e0e0      	LDI  R30,LOW(0)
0018f0 93e0 1c00 	STS  _adcnt,R30
                 ; 0000 07EA                     reformCH = RxBuffer[1];
                +
0018f2 91e0 142d+LDS R30 , _RxBuffer + ( 1 )
                 	__GETB1MN _RxBuffer,1
0018f4 93e0 1c02 	STS  _reformCH,R30
                 ; 0000 07EB 
                 ; 0000 07EC                     for(kcnt = 0 ;kcnt<avr_loop_cnt;kcnt++){
0018f6 e0e0      	LDI  R30,LOW(0)
0018f7 87ec      	STD  Y+12,R30
0018f8 87ed      	STD  Y+12+1,R30
                 _0x32B:
0018f9 940e 2d89 	CALL SUBOPT_0xCA
0018fb f4d8      	BRSH _0x32C
                 ; 0000 07ED                         reform_ADC[kcnt] = zero_value[reformCH];
0018fc 940e 2d91 	CALL SUBOPT_0xCB
0018fe 010f      	MOVW R0,R30
0018ff 940e 2af0 	CALL SUBOPT_0x69
001901 940e 2d31 	CALL SUBOPT_0xBC
                 ; 0000 07EE                         reformTotal += (long)reform_ADC[kcnt];
001903 85ec      	LDD  R30,Y+12
001904 85fd      	LDD  R31,Y+12+1
001905 e1ab      	LDI  R26,LOW(_reform_ADC)
001906 e1bc      	LDI  R27,HIGH(_reform_ADC)
001907 940e 2815 	CALL SUBOPT_0xB
001909 940e 2a40 	CALL SUBOPT_0x55
00190b 940e 2ab8 	CALL SUBOPT_0x64
00190d 940e 302b 	CALL __ADDD12
00190f 940e 2d9e 	CALL SUBOPT_0xCD
                 ; 0000 07EF                     }
001911 85ec      	LDD  R30,Y+12
001912 85fd      	LDD  R31,Y+12+1
001913 9631      	ADIW R30,1
001914 87ec      	STD  Y+12,R30
001915 87fd      	STD  Y+12+1,R31
001916 cfe2      	RJMP _0x32B
                 _0x32C:
                 ; 0000 07F0 
                 ; 0000 07F1 
                 ; 0000 07F2                     /*for(icnt=0;icnt<24;icnt++){
                 ; 0000 07F3                         reform_ADC[icnt] = 0;
                 ; 0000 07F4                     }
                 ; 0000 07F5                     reformCH = RxBuffer[1];
                 ; 0000 07F6                     */
                 ; 0000 07F7                     TimerMode =  tmrADC;
001917 e0e1      	LDI  R30,LOW(1)
001918 940e 2d78 	CALL SUBOPT_0xC6
                 ; 0000 07F8                     TCNT1H = 0x00;      TCNT1L = 0x00;
                 ; 0000 07F9                     OCR1AH=0x01;        OCR1AL=0x38;        //20msec /1024 prescaler
00191a e0e1      	LDI  R30,LOW(1)
00191b 93e0 0089 	STS  137,R30
00191d e3e8      	LDI  R30,LOW(56)
00191e 940e 2d7c 	CALL SUBOPT_0xC7
                 ; 0000 07FA                     TCCR1B = 0x05;
                 ; 0000 07FB                     break;
001920 c0eb      	RJMP _0x325
                 ; 0000 07FC                 case CMD_REFORM_STOP :
                 _0x326:
001921 3fe3      	CPI  R30,LOW(0xF3)
001922 e0a0      	LDI  R26,HIGH(0xF3)
001923 07fa      	CPC  R31,R26
001924 f4a9      	BRNE _0x32D
                 ; 0000 07FD                     TCNT1H = 0x00;      TCNT1L = 0x00;
001925 e0e0      	LDI  R30,LOW(0)
001926 940e 285f 	CALL SUBOPT_0x19
                 ; 0000 07FE                     TCCR1B = 0x00;
001928 e0e0      	LDI  R30,LOW(0)
001929 93e0 0081 	STS  129,R30
                 ; 0000 07FF 
                 ; 0000 0800                     BuzzerOn();
00192b defe      	RCALL _BuzzerOn
                 ; 0000 0801                     led_buz_value &= ~LED_RUN_STOP;
00192c 940e 2926 	CALL SUBOPT_0x32
                 ; 0000 0802                     LED_BUZ = led_buz_value;
                 ; 0000 0803                     delay_ms(100);
00192e 940e 2dad 	CALL SUBOPT_0xCF
                 ; 0000 0804                     TxBuffer[0] = 0x02;
001930 940e 2a90 	CALL SUBOPT_0x5F
                 ; 0000 0805                     TxBuffer[1] = 0x00;
                 ; 0000 0806                     TxBuffer[2] = 0x02;
                +
001932 93e0 1622+STS _TxBuffer + ( 2 ) , R30
                 	__PUTB1MN _TxBuffer,2
                 ; 0000 0807                     TxBuffer[3] = CMD_REFORM_STOP;
001934 efe3      	LDI  R30,LOW(243)
001935 940e 2d82 	CALL SUBOPT_0xC8
                 ; 0000 0808                     TxBuffer[4] = 0x01;
                 ; 0000 0809                     TxBuffer[5] = 0x03;
                 ; 0000 080A                     TxEnable = 1;   txcnt = 1;  TxLength = 6;   UDR1 = TxBuffer[0];
001937 940e 2d86 	CALL SUBOPT_0xC9
                 ; 0000 080B 
                 ; 0000 080C                     break;
001939 c0d2      	RJMP _0x325
                 ; 0000 080D                 case CMD_REFORM_SET : //0xF2
                 _0x32D:
00193a 3fe2      	CPI  R30,LOW(0xF2)
00193b e0a0      	LDI  R26,HIGH(0xF2)
00193c 07fa      	CPC  R31,R26
00193d f009      	BREQ PC+2
00193e c03f      	RJMP _0x32E
                 ; 0000 080E                 //case CMD_LDCELLINFO : //0x80
                 ; 0000 080F                     TCCR1B = 0x00;
00193f e0e0      	LDI  R30,LOW(0)
001940 93e0 0081 	STS  129,R30
                 ; 0000 0810 
                 ; 0000 0811                     switch(RxBuffer[1]){
001942 940e 2db1 	CALL SUBOPT_0xD0
                 ; 0000 0812                         case 0x01 :     //SAVE DATA
001944 f489      	BRNE _0x332
                 ; 0000 0813                             //LDCELL_INFO[RxBuffer[2]].span = (RxBuffer[3] * 256) + RxBuffer[4];
                 ; 0000 0814                             ConstWeight[reformCH] = (RxBuffer[3] * 256) + RxBuffer[4];
001945 940e 2afd 	CALL SUBOPT_0x6B
001947 940e 280f 	CALL SUBOPT_0xA
001949 01bf      	MOVW R22,R30
                +
00194a 91a0 142f+LDS R26 , _RxBuffer + ( 3 )
                 	__GETB2MN _RxBuffer,3
00194c 940e 2db4 	CALL SUBOPT_0xD1
00194e 01df      	MOVW R26,R30
                +
00194f 91e0 1430+LDS R30 , _RxBuffer + ( 4 )
                 	__GETB1MN _RxBuffer,4
001951 e0f0      	LDI  R31,0
001952 0fea      	ADD  R30,R26
001953 1ffb      	ADC  R31,R27
001954 01db      	MOVW R26,R22
001955 c00b      	RJMP _0x4C8
                 ; 0000 0815                             LDCELL_INFO[reformCH].span = ConstWeight[reformCH];
                 ; 0000 0816                             PUT_USR_INFO_DATA(LDCELL_INFO_DATA);
                 ; 0000 0817                             break;
                 ; 0000 0818                         case 0x02 :     //INIT DATA
                 _0x332:
001956 30e2      	CPI  R30,LOW(0x2)
001957 e0a0      	LDI  R26,HIGH(0x2)
001958 07fa      	CPC  R31,R26
001959 f4e1      	BRNE _0x331
                 ; 0000 0819                             //LDCELL_INFO[RxBuffer[2]].span = 1000;
                 ; 0000 081A                             //ConstWeight[reformCH] = 286;
                 ; 0000 081B                             ConstWeight[reformCH] = 1000;
00195a 940e 2afd 	CALL SUBOPT_0x6B
00195c e0f0      	LDI  R31,0
00195d 940e 2815 	CALL SUBOPT_0xB
00195f eee8      	LDI  R30,LOW(1000)
001960 e0f3      	LDI  R31,HIGH(1000)
                 _0x4C8:
001961 93ed      	ST   X+,R30
001962 93fc      	ST   X,R31
                 ; 0000 081C                             LDCELL_INFO[reformCH].span = ConstWeight[reformCH];
001963 91e0 1c02 	LDS  R30,_reformCH
001965 e0a5      	LDI  R26,LOW(5)
001966 9fea      	MUL  R30,R26
001967 01f0      	MOVW R30,R0
                +
001968 52e1     +SUBI R30 , LOW ( - _LDCELL_INFO - ( 1 ) )
001969 4ff3     +SBCI R31 , HIGH ( - _LDCELL_INFO - ( 1 ) )
                 	__ADDW1MN _LDCELL_INFO,1
00196a 010f      	MOVW R0,R30
00196b 940e 2afd 	CALL SUBOPT_0x6B
00196d e0f0      	LDI  R31,0
00196e 940e 2815 	CALL SUBOPT_0xB
001970 940e 2d31 	CALL SUBOPT_0xBC
                 ; 0000 081D                             PUT_USR_INFO_DATA(LDCELL_INFO_DATA);
001972 e0ae      	LDI  R26,LOW(14)
001973 e0b0      	LDI  R27,0
001974 940e 04d4 	CALL _PUT_USR_INFO_DATA
                 ; 0000 081E                             break;
                 ; 0000 081F                     }
                 _0x331:
                 ; 0000 0820 
                 ; 0000 0821                     BuzzerOn();
001976 940e 2da7 	CALL SUBOPT_0xCE
                 ; 0000 0822                     delay_ms(200);
                 ; 0000 0823 
                 ; 0000 0824                     TimerMode =  tmrADC;
001978 e0e1      	LDI  R30,LOW(1)
001979 940e 2d78 	CALL SUBOPT_0xC6
                 ; 0000 0825                     TCNT1H = 0x00;      TCNT1L = 0x00;
                 ; 0000 0826                     OCR1AH=0x00;        OCR1AL=0x1F;        //2msec /1024 prescaler
00197b 940e 2dba 	CALL SUBOPT_0xD2
                 ; 0000 0827                     TCCR1B = 0x05;
                 ; 0000 0828 
                 ; 0000 0829                     break;
00197d c08e      	RJMP _0x325
                 ; 0000 082A                 case CMD_REFORM_DATA :
                 _0x32E:
00197e 3fed      	CPI  R30,LOW(0xFD)
00197f e0a0      	LDI  R26,HIGH(0xFD)
001980 07fa      	CPC  R31,R26
001981 f009      	BREQ PC+2
001982 c04f      	RJMP _0x334
                 ; 0000 082B                     TxBuffer[0] = 0x02;     TxBuffer[1] = 0x00;     TxBuffer[2]= 11;      TxBuffer[3] = CMD_REFORM_DATA; ...
001983 940e 2dbf 	CALL SUBOPT_0xD3
001985 e0eb      	LDI  R30,LOW(11)
                +
001986 93e0 1622+STS _TxBuffer + ( 2 ) , R30
                 	__PUTB1MN _TxBuffer,2
001988 efed      	LDI  R30,LOW(253)
                +
001989 93e0 1623+STS _TxBuffer + ( 3 ) , R30
                 	__PUTB1MN _TxBuffer,3
00198b 91e0 1c02 	LDS  R30,_reformCH
                +
00198d 93e0 1624+STS _TxBuffer + ( 4 ) , R30
                 	__PUTB1MN _TxBuffer,4
                 ; 0000 082C                     TxBuffer[5] = reformSigned;
00198f 91e0 1c4f 	LDS  R30,_reformSigned
                +
001991 93e0 1625+STS _TxBuffer + ( 5 ) , R30
                 	__PUTB1MN _TxBuffer,5
                 ; 0000 082D                     TxBuffer[6] = reformVoltage >> 8;       TxBuffer[7] = reformVoltage;
001993 91e0 1c4c 	LDS  R30,_reformVoltage+1
                +
001995 93e0 1626+STS _TxBuffer + ( 6 ) , R30
                 	__PUTB1MN _TxBuffer,6
001997 91e0 1c4b 	LDS  R30,_reformVoltage
                +
001999 93e0 1627+STS _TxBuffer + ( 7 ) , R30
                 	__PUTB1MN _TxBuffer,7
                 ; 0000 082E                     TxBuffer[8] = reformWeight >> 8;                TxBuffer[9] = reformWeight;
00199b 91e0 1c4e 	LDS  R30,_reformWeight+1
                +
00199d 93e0 1628+STS _TxBuffer + ( 8 ) , R30
                 	__PUTB1MN _TxBuffer,8
00199f 91e0 1c4d 	LDS  R30,_reformWeight
                +
0019a1 93e0 1629+STS _TxBuffer + ( 9 ) , R30
                 	__PUTB1MN _TxBuffer,9
                 ; 0000 082F                     TxBuffer[10] = zero_value[reformCH] >> 8;        TxBuffer[11] = zero_value[reformCH];
0019a3 940e 2af0 	CALL SUBOPT_0x69
0019a5 940e 2cdb 	CALL SUBOPT_0xB0
                +
0019a7 93e0 162a+STS _TxBuffer + ( 10 ) , R30
                 	__PUTB1MN _TxBuffer,10
0019a9 940e 2af0 	CALL SUBOPT_0x69
0019ab 91ec      	LD   R30,X
                +
0019ac 93e0 162b+STS _TxBuffer + ( 11 ) , R30
                 	__PUTB1MN _TxBuffer,11
                 ; 0000 0830                     TxBuffer[12] = ConstWeight[reformCH] >> 8;        TxBuffer[13] = ConstWeight[reformCH];
0019ae 940e 2afd 	CALL SUBOPT_0x6B
0019b0 e0f0      	LDI  R31,0
0019b1 940e 2815 	CALL SUBOPT_0xB
0019b3 940e 2cdb 	CALL SUBOPT_0xB0
                +
0019b5 93e0 162c+STS _TxBuffer + ( 12 ) , R30
                 	__PUTB1MN _TxBuffer,12
0019b7 940e 2afd 	CALL SUBOPT_0x6B
0019b9 e0f0      	LDI  R31,0
0019ba 940e 2815 	CALL SUBOPT_0xB
0019bc 91ec      	LD   R30,X
                +
0019bd 93e0 162d+STS _TxBuffer + ( 13 ) , R30
                 	__PUTB1MN _TxBuffer,13
                 ; 0000 0831                     TxBuffer[14] = 0x03;
0019bf e0e3      	LDI  R30,LOW(3)
                +
0019c0 93e0 162e+STS _TxBuffer + ( 14 ) , R30
                 	__PUTB1MN _TxBuffer,14
                 ; 0000 0832 
                 ; 0000 0833                     TxEnable = 1;   TxLength = 15;   txcnt = 1;      UDR1 = TxBuffer[0];
0019c2 e0e1      	LDI  R30,LOW(1)
0019c3 93e0 1bfe 	STS  _TxEnable,R30
0019c5 e0ef      	LDI  R30,LOW(15)
0019c6 e0f0      	LDI  R31,HIGH(15)
0019c7 93e0 1c0d 	STS  _TxLength,R30
0019c9 93f0 1c0e 	STS  _TxLength+1,R31
0019cb 940e 2dc6 	CALL SUBOPT_0xD4
0019cd 91e0 1620 	LDS  R30,_TxBuffer
0019cf 93e0 00ce 	STS  206,R30
                 ; 0000 0834                     break;
0019d1 c03a      	RJMP _0x325
                 ; 0000 0835                 case CMD_REFORM_ZERO :
                 _0x334:
0019d2 3fee      	CPI  R30,LOW(0xFE)
0019d3 e0a0      	LDI  R26,HIGH(0xFE)
0019d4 07fa      	CPC  R31,R26
0019d5 f511      	BRNE _0x335
                 ; 0000 0836                     zero_value[RxBuffer[1]] = reformVoltage;
                +
0019d6 91e0 142d+LDS R30 , _RxBuffer + ( 1 )
                 	__GETB1MN _RxBuffer,1
0019d8 940e 29f4 	CALL SUBOPT_0x4A
0019da 91a0 1c4b 	LDS  R26,_reformVoltage
0019dc 91b0 1c4c 	LDS  R27,_reformVoltage+1
0019de 83a0      	STD  Z+0,R26
0019df 83b1      	STD  Z+1,R27
                 ; 0000 0837                     ref_zero_value[RxBuffer[1]] = zero_value[RxBuffer[1]];
                +
0019e0 91e0 142d+LDS R30 , _RxBuffer + ( 1 )
                 	__GETB1MN _RxBuffer,1
0019e2 e3ac      	LDI  R26,LOW(_ref_zero_value)
0019e3 e0bf      	LDI  R27,HIGH(_ref_zero_value)
0019e4 940e 280f 	CALL SUBOPT_0xA
0019e6 010f      	MOVW R0,R30
                +
0019e7 91e0 142d+LDS R30 , _RxBuffer + ( 1 )
                 	__GETB1MN _RxBuffer,1
0019e9 e3a0      	LDI  R26,LOW(_zero_value)
0019ea e0bf      	LDI  R27,HIGH(_zero_value)
0019eb e0f0      	LDI  R31,0
0019ec 940e 2815 	CALL SUBOPT_0xB
0019ee 940e 2d31 	CALL SUBOPT_0xBC
                 ; 0000 0838                     BuzzerOn();
0019f0 940e 2da7 	CALL SUBOPT_0xCE
                 ; 0000 0839 
                 ; 0000 083A                     delay_ms(200);
                 ; 0000 083B 
                 ; 0000 083C                     TimerMode =  tmrADC;
0019f2 e0e1      	LDI  R30,LOW(1)
0019f3 940e 2d78 	CALL SUBOPT_0xC6
                 ; 0000 083D                     TCNT1H = 0x00;      TCNT1L = 0x00;
                 ; 0000 083E                     OCR1AH=0x00;        OCR1AL=0x1F;        //2msec /1024 prescaler
0019f5 940e 2dba 	CALL SUBOPT_0xD2
                 ; 0000 083F                     TCCR1B = 0x05;
                 ; 0000 0840                     break;
0019f7 c014      	RJMP _0x325
                 ; 0000 0841                 case CMD_REFORM_EXIT :
                 _0x335:
0019f8 3fe4      	CPI  R30,LOW(0xF4)
0019f9 e0a0      	LDI  R26,HIGH(0xF4)
0019fa 07fa      	CPC  R31,R26
0019fb f481      	BRNE _0x325
                 ; 0000 0842                     TxBuffer[0] = 0x02;
0019fc 940e 2a90 	CALL SUBOPT_0x5F
                 ; 0000 0843                     TxBuffer[1] = 0x00;
                 ; 0000 0844                     TxBuffer[2] = 0x02;
                +
0019fe 93e0 1622+STS _TxBuffer + ( 2 ) , R30
                 	__PUTB1MN _TxBuffer,2
                 ; 0000 0845                     TxBuffer[3] = CMD_REFORM_EXIT;
001a00 efe4      	LDI  R30,LOW(244)
001a01 940e 2d82 	CALL SUBOPT_0xC8
                 ; 0000 0846                     TxBuffer[4] = 0x01;
                 ; 0000 0847                     TxBuffer[5] = 0x03;
                 ; 0000 0848                     TxEnable = 1;   txcnt = 1;  TxLength = 6;   UDR1 = TxBuffer[0];
001a03 940e 2d86 	CALL SUBOPT_0xC9
                 ; 0000 0849                     TCCR1B = 0x00;
001a05 940e 285b 	CALL SUBOPT_0x18
                 ; 0000 084A                     TimerMode = tmrNONE;
001a07 93e0 1bff 	STS  _TimerMode,R30
                 ; 0000 084B 
                 ; 0000 084C                     BuzzerOn();
001a09 940e 2da7 	CALL SUBOPT_0xCE
                 ; 0000 084D                     delay_ms(200);
                 ; 0000 084E 
                 ; 0000 084F                     done = 0;
001a0b e010      	LDI  R17,LOW(0)
                 ; 0000 0850                     break;
                 ; 0000 0851             }
                 _0x325:
                 ; 0000 0852             COM_REV_ENABLE = 0;
001a0c e0e0      	LDI  R30,LOW(0)
001a0d 93e0 1bfc 	STS  _COM_REV_ENABLE,R30
                 ; 0000 0853         }
                 ; 0000 0854     }
                 _0x322:
001a0f ceb1      	RJMP _0x31F
                 _0x321:
                 ; 0000 0855 
                 ; 0000 0856     BuzzerOn();
001a10 de19      	RCALL _BuzzerOn
                 ; 0000 0857 }
001a11 940e 317f 	CALL __LOADLOCR6
001a13 962e      	ADIW R28,14
001a14 9508      	RET
                 ; .FEND
                 ;
                 ;void ExtPort_TEST(unsigned char port, unsigned char pindata, unsigned char outtype, unsigned char packerpos){
                 ; 0000 0859 void ExtPort_TEST(unsigned char port, unsigned char pindata, unsigned char outtype, unsigned char packerpos){
                 _ExtPort_TEST:
                 ; .FSTART _ExtPort_TEST
                 ; 0000 085A     unsigned char outdata, lcnt;
                 ; 0000 085B 
                 ; 0000 085C     if(port == 0xFF){
001a15 93aa      	ST   -Y,R26
001a16 931a      	ST   -Y,R17
001a17 930a      	ST   -Y,R16
                 ;	port -> Y+5
                 ;	pindata -> Y+4
                 ;	outtype -> Y+3
                 ;	packerpos -> Y+2
                 ;	outdata -> R17
                 ;	lcnt -> R16
001a18 81ad      	LDD  R26,Y+5
001a19 3faf      	CPI  R26,LOW(0xFF)
001a1a f009      	BREQ PC+2
001a1b c12d      	RJMP _0x337
                 ; 0000 085D         if(pindata == 0x0a){
001a1c 81ac      	LDD  R26,Y+4
001a1d 30aa      	CPI  R26,LOW(0xA)
001a1e f009      	BREQ PC+2
001a1f c0dd      	RJMP _0x338
                 ; 0000 085E             // 
                 ; 0000 085F             for(lcnt=0;lcnt<6;lcnt++){
001a20 e000      	LDI  R16,LOW(0)
                 _0x33A:
001a21 3006      	CPI  R16,6
001a22 f008      	BRLO PC+2
001a23 c071      	RJMP _0x33B
                 ; 0000 0860                 outdata = 0x01 << lcnt;
001a24 2fe0      	MOV  R30,R16
001a25 e0a1      	LDI  R26,LOW(1)
001a26 940e 3046 	CALL __LSLB12
001a28 2f1e      	MOV  R17,R30
                 ; 0000 0861                 do_value[packerpos] |= outdata;
001a29 81aa      	LDD  R26,Y+2
001a2a 940e 2c5c 	CALL SUBOPT_0x9E
001a2c 2be1      	OR   R30,R17
001a2d 940e 2dcd 	CALL SUBOPT_0xD5
                 ; 0000 0862                 switch(packerpos){
                 ; 0000 0863                     case 0: SOL_CH1 = do_value[0];  break;
001a2f f419      	BRNE _0x33F
001a30 940e 2c9c 	CALL SUBOPT_0xA4
001a32 c029      	RJMP _0x33E
                 ; 0000 0864                     case 1: SOL_CH2 = do_value[1];  break;
                 _0x33F:
001a33 30e1      	CPI  R30,LOW(0x1)
001a34 e0a0      	LDI  R26,HIGH(0x1)
001a35 07fa      	CPC  R31,R26
001a36 f419      	BRNE _0x340
001a37 940e 2ca1 	CALL SUBOPT_0xA5
001a39 c022      	RJMP _0x33E
                 ; 0000 0865                     case 2: SOL_CH3 = do_value[2];  break;
                 _0x340:
001a3a 30e2      	CPI  R30,LOW(0x2)
001a3b e0a0      	LDI  R26,HIGH(0x2)
001a3c 07fa      	CPC  R31,R26
001a3d f419      	BRNE _0x341
001a3e 940e 2ca6 	CALL SUBOPT_0xA6
001a40 c01b      	RJMP _0x33E
                 ; 0000 0866                     case 3: SOL_CH4 = do_value[3];  break;
                 _0x341:
001a41 30e3      	CPI  R30,LOW(0x3)
001a42 e0a0      	LDI  R26,HIGH(0x3)
001a43 07fa      	CPC  R31,R26
001a44 f419      	BRNE _0x342
001a45 940e 2cab 	CALL SUBOPT_0xA7
001a47 c014      	RJMP _0x33E
                 ; 0000 0867                     case 4: SOL_CH5 = do_value[4];  break;
                 _0x342:
001a48 30e4      	CPI  R30,LOW(0x4)
001a49 e0a0      	LDI  R26,HIGH(0x4)
001a4a 07fa      	CPC  R31,R26
001a4b f419      	BRNE _0x343
001a4c 940e 2cb0 	CALL SUBOPT_0xA8
001a4e c00d      	RJMP _0x33E
                 ; 0000 0868                     case 5: SOL_CH6 = do_value[5];  break;
                 _0x343:
001a4f 30e5      	CPI  R30,LOW(0x5)
001a50 e0a0      	LDI  R26,HIGH(0x5)
001a51 07fa      	CPC  R31,R26
001a52 f419      	BRNE _0x344
001a53 940e 2cb5 	CALL SUBOPT_0xA9
001a55 c006      	RJMP _0x33E
                 ; 0000 0869                     case 6: SOL_CH7 = do_value[6];  break;
                 _0x344:
001a56 30e6      	CPI  R30,LOW(0x6)
001a57 e0a0      	LDI  R26,HIGH(0x6)
001a58 07fa      	CPC  R31,R26
001a59 f411      	BRNE _0x33E
001a5a 940e 2cba 	CALL SUBOPT_0xAA
                 ; 0000 086A                 }
                 _0x33E:
                 ; 0000 086B                 led_buz_value |= BUZZER_ON;
001a5c 940e 2d70 	CALL SUBOPT_0xC4
                 ; 0000 086C                 LED_BUZ = led_buz_value;
                 ; 0000 086D                 delay_ms(100);
001a5e 940e 2dad 	CALL SUBOPT_0xCF
                 ; 0000 086E 
                 ; 0000 086F                 do_value[packerpos] &= ~outdata;
001a60 940e 2dd2 	CALL SUBOPT_0xD6
                 ; 0000 0870                 switch(packerpos){
                 ; 0000 0871                     case 0: SOL_CH1 = do_value[0];  break;
001a62 f419      	BRNE _0x349
001a63 940e 2c9c 	CALL SUBOPT_0xA4
001a65 c029      	RJMP _0x348
                 ; 0000 0872                     case 1: SOL_CH2 = do_value[1];  break;
                 _0x349:
001a66 30e1      	CPI  R30,LOW(0x1)
001a67 e0a0      	LDI  R26,HIGH(0x1)
001a68 07fa      	CPC  R31,R26
001a69 f419      	BRNE _0x34A
001a6a 940e 2ca1 	CALL SUBOPT_0xA5
001a6c c022      	RJMP _0x348
                 ; 0000 0873                     case 2: SOL_CH3 = do_value[2];  break;
                 _0x34A:
001a6d 30e2      	CPI  R30,LOW(0x2)
001a6e e0a0      	LDI  R26,HIGH(0x2)
001a6f 07fa      	CPC  R31,R26
001a70 f419      	BRNE _0x34B
001a71 940e 2ca6 	CALL SUBOPT_0xA6
001a73 c01b      	RJMP _0x348
                 ; 0000 0874                     case 3: SOL_CH4 = do_value[3];  break;
                 _0x34B:
001a74 30e3      	CPI  R30,LOW(0x3)
001a75 e0a0      	LDI  R26,HIGH(0x3)
001a76 07fa      	CPC  R31,R26
001a77 f419      	BRNE _0x34C
001a78 940e 2cab 	CALL SUBOPT_0xA7
001a7a c014      	RJMP _0x348
                 ; 0000 0875                     case 4: SOL_CH5 = do_value[4];  break;
                 _0x34C:
001a7b 30e4      	CPI  R30,LOW(0x4)
001a7c e0a0      	LDI  R26,HIGH(0x4)
001a7d 07fa      	CPC  R31,R26
001a7e f419      	BRNE _0x34D
001a7f 940e 2cb0 	CALL SUBOPT_0xA8
001a81 c00d      	RJMP _0x348
                 ; 0000 0876                     case 5: SOL_CH6 = do_value[5];  break;
                 _0x34D:
001a82 30e5      	CPI  R30,LOW(0x5)
001a83 e0a0      	LDI  R26,HIGH(0x5)
001a84 07fa      	CPC  R31,R26
001a85 f419      	BRNE _0x34E
001a86 940e 2cb5 	CALL SUBOPT_0xA9
001a88 c006      	RJMP _0x348
                 ; 0000 0877                     case 6: SOL_CH7 = do_value[6];  break;
                 _0x34E:
001a89 30e6      	CPI  R30,LOW(0x6)
001a8a e0a0      	LDI  R26,HIGH(0x6)
001a8b 07fa      	CPC  R31,R26
001a8c f411      	BRNE _0x348
001a8d 940e 2cba 	CALL SUBOPT_0xAA
                 ; 0000 0878                 }
                 _0x348:
                 ; 0000 0879                 led_buz_value &= ~BUZZER_ON;
001a8f 940e 2b1e 	CALL SUBOPT_0x6E
                 ; 0000 087A                 LED_BUZ = led_buz_value;
                 ; 0000 087B                 delay_ms(100);
001a91 940e 2dad 	CALL SUBOPT_0xCF
                 ; 0000 087C             }
001a93 5f0f      	SUBI R16,-1
001a94 cf8c      	RJMP _0x33A
                 _0x33B:
                 ; 0000 087D             // 
                 ; 0000 087E             outdata = 0x80;
001a95 e810      	LDI  R17,LOW(128)
                 ; 0000 087F             do_value[packerpos] |= outdata;
001a96 81aa      	LDD  R26,Y+2
001a97 940e 2c5c 	CALL SUBOPT_0x9E
001a99 2be1      	OR   R30,R17
001a9a 940e 2dcd 	CALL SUBOPT_0xD5
                 ; 0000 0880             switch(packerpos){
                 ; 0000 0881                 case 0: SOL_CH1 = do_value[0];  break;
001a9c f419      	BRNE _0x353
001a9d 940e 2c9c 	CALL SUBOPT_0xA4
001a9f c029      	RJMP _0x352
                 ; 0000 0882                 case 1: SOL_CH2 = do_value[1];  break;
                 _0x353:
001aa0 30e1      	CPI  R30,LOW(0x1)
001aa1 e0a0      	LDI  R26,HIGH(0x1)
001aa2 07fa      	CPC  R31,R26
001aa3 f419      	BRNE _0x354
001aa4 940e 2ca1 	CALL SUBOPT_0xA5
001aa6 c022      	RJMP _0x352
                 ; 0000 0883                 case 2: SOL_CH3 = do_value[2];  break;
                 _0x354:
001aa7 30e2      	CPI  R30,LOW(0x2)
001aa8 e0a0      	LDI  R26,HIGH(0x2)
001aa9 07fa      	CPC  R31,R26
001aaa f419      	BRNE _0x355
001aab 940e 2ca6 	CALL SUBOPT_0xA6
001aad c01b      	RJMP _0x352
                 ; 0000 0884                 case 3: SOL_CH4 = do_value[3];  break;
                 _0x355:
001aae 30e3      	CPI  R30,LOW(0x3)
001aaf e0a0      	LDI  R26,HIGH(0x3)
001ab0 07fa      	CPC  R31,R26
001ab1 f419      	BRNE _0x356
001ab2 940e 2cab 	CALL SUBOPT_0xA7
001ab4 c014      	RJMP _0x352
                 ; 0000 0885                 case 4: SOL_CH5 = do_value[4];  break;
                 _0x356:
001ab5 30e4      	CPI  R30,LOW(0x4)
001ab6 e0a0      	LDI  R26,HIGH(0x4)
001ab7 07fa      	CPC  R31,R26
001ab8 f419      	BRNE _0x357
001ab9 940e 2cb0 	CALL SUBOPT_0xA8
001abb c00d      	RJMP _0x352
                 ; 0000 0886                 case 5: SOL_CH6 = do_value[5];  break;
                 _0x357:
001abc 30e5      	CPI  R30,LOW(0x5)
001abd e0a0      	LDI  R26,HIGH(0x5)
001abe 07fa      	CPC  R31,R26
001abf f419      	BRNE _0x358
001ac0 940e 2cb5 	CALL SUBOPT_0xA9
001ac2 c006      	RJMP _0x352
                 ; 0000 0887                 case 6: SOL_CH7 = do_value[6];  break;
                 _0x358:
001ac3 30e6      	CPI  R30,LOW(0x6)
001ac4 e0a0      	LDI  R26,HIGH(0x6)
001ac5 07fa      	CPC  R31,R26
001ac6 f411      	BRNE _0x352
001ac7 940e 2cba 	CALL SUBOPT_0xAA
                 ; 0000 0888             }
                 _0x352:
                 ; 0000 0889             delay_ms(100);
001ac9 940e 2dad 	CALL SUBOPT_0xCF
                 ; 0000 088A 
                 ; 0000 088B             do_value[packerpos] &= ~outdata;
001acb 940e 2dd2 	CALL SUBOPT_0xD6
                 ; 0000 088C             switch(packerpos){
                 ; 0000 088D                 case 0: SOL_CH1 = do_value[0];  break;
001acd f419      	BRNE _0x35D
001ace 940e 2c9c 	CALL SUBOPT_0xA4
001ad0 c029      	RJMP _0x35C
                 ; 0000 088E                 case 1: SOL_CH2 = do_value[1];  break;
                 _0x35D:
001ad1 30e1      	CPI  R30,LOW(0x1)
001ad2 e0a0      	LDI  R26,HIGH(0x1)
001ad3 07fa      	CPC  R31,R26
001ad4 f419      	BRNE _0x35E
001ad5 940e 2ca1 	CALL SUBOPT_0xA5
001ad7 c022      	RJMP _0x35C
                 ; 0000 088F                 case 2: SOL_CH3 = do_value[2];  break;
                 _0x35E:
001ad8 30e2      	CPI  R30,LOW(0x2)
001ad9 e0a0      	LDI  R26,HIGH(0x2)
001ada 07fa      	CPC  R31,R26
001adb f419      	BRNE _0x35F
001adc 940e 2ca6 	CALL SUBOPT_0xA6
001ade c01b      	RJMP _0x35C
                 ; 0000 0890                 case 3: SOL_CH4 = do_value[3];  break;
                 _0x35F:
001adf 30e3      	CPI  R30,LOW(0x3)
001ae0 e0a0      	LDI  R26,HIGH(0x3)
001ae1 07fa      	CPC  R31,R26
001ae2 f419      	BRNE _0x360
001ae3 940e 2cab 	CALL SUBOPT_0xA7
001ae5 c014      	RJMP _0x35C
                 ; 0000 0891                 case 4: SOL_CH5 = do_value[4];  break;
                 _0x360:
001ae6 30e4      	CPI  R30,LOW(0x4)
001ae7 e0a0      	LDI  R26,HIGH(0x4)
001ae8 07fa      	CPC  R31,R26
001ae9 f419      	BRNE _0x361
001aea 940e 2cb0 	CALL SUBOPT_0xA8
001aec c00d      	RJMP _0x35C
                 ; 0000 0892                 case 5: SOL_CH6 = do_value[5];  break;
                 _0x361:
001aed 30e5      	CPI  R30,LOW(0x5)
001aee e0a0      	LDI  R26,HIGH(0x5)
001aef 07fa      	CPC  R31,R26
001af0 f419      	BRNE _0x362
001af1 940e 2cb5 	CALL SUBOPT_0xA9
001af3 c006      	RJMP _0x35C
                 ; 0000 0893                 case 6: SOL_CH7 = do_value[6];  break;
                 _0x362:
001af4 30e6      	CPI  R30,LOW(0x6)
001af5 e0a0      	LDI  R26,HIGH(0x6)
001af6 07fa      	CPC  R31,R26
001af7 f411      	BRNE _0x35C
001af8 940e 2cba 	CALL SUBOPT_0xAA
                 ; 0000 0894             }
                 _0x35C:
                 ; 0000 0895             delay_ms(100);
001afa 940e 2dad 	CALL SUBOPT_0xCF
                 ; 0000 0896         }
                 ; 0000 0897         else{
001afc c04b      	RJMP _0x364
                 _0x338:
                 ; 0000 0898             outdata = (0x01<<pindata);
001afd 81ec      	LDD  R30,Y+4
001afe e0a1      	LDI  R26,LOW(1)
001aff 940e 3046 	CALL __LSLB12
001b01 2f1e      	MOV  R17,R30
                 ; 0000 0899 
                 ; 0000 089A             if(outtype ==1){
001b02 81ab      	LDD  R26,Y+3
001b03 30a1      	CPI  R26,LOW(0x1)
001b04 f429      	BRNE _0x365
                 ; 0000 089B                 do_value[packerpos] |= outdata;
001b05 81aa      	LDD  R26,Y+2
001b06 940e 2c5c 	CALL SUBOPT_0x9E
001b08 2be1      	OR   R30,R17
001b09 c00d      	RJMP _0x4C9
                 ; 0000 089C             }
                 ; 0000 089D             else if(outtype==0){
                 _0x365:
001b0a 81eb      	LDD  R30,Y+3
001b0b 30e0      	CPI  R30,0
001b0c f459      	BRNE _0x367
                 ; 0000 089E                 do_value[packerpos] &= ~outdata;
001b0d 81ea      	LDD  R30,Y+2
001b0e e0f0      	LDI  R31,0
001b0f 52e8      	SUBI R30,LOW(-_do_value)
001b10 4ff1      	SBCI R31,HIGH(-_do_value)
001b11 010f      	MOVW R0,R30
001b12 81a0      	LD   R26,Z
001b13 2fe1      	MOV  R30,R17
001b14 95e0      	COM  R30
001b15 23ea      	AND  R30,R26
001b16 01d0      	MOVW R26,R0
                 _0x4C9:
001b17 93ec      	ST   X,R30
                 ; 0000 089F             }
                 ; 0000 08A0 
                 ; 0000 08A1             switch(packerpos){
                 _0x367:
001b18 81ea      	LDD  R30,Y+2
001b19 e0f0      	LDI  R31,0
                 ; 0000 08A2                 case 0 :
001b1a 9730      	SBIW R30,0
001b1b f419      	BRNE _0x36B
                 ; 0000 08A3                     SOL_CH1 = do_value[0];
001b1c 940e 2c9c 	CALL SUBOPT_0xA4
                 ; 0000 08A4                     break;
001b1e c029      	RJMP _0x36A
                 ; 0000 08A5                 case 1 :
                 _0x36B:
001b1f 30e1      	CPI  R30,LOW(0x1)
001b20 e0a0      	LDI  R26,HIGH(0x1)
001b21 07fa      	CPC  R31,R26
001b22 f419      	BRNE _0x36C
                 ; 0000 08A6                     SOL_CH2 = do_value[1];
001b23 940e 2ca1 	CALL SUBOPT_0xA5
                 ; 0000 08A7                     break;
001b25 c022      	RJMP _0x36A
                 ; 0000 08A8                 case 2 :
                 _0x36C:
001b26 30e2      	CPI  R30,LOW(0x2)
001b27 e0a0      	LDI  R26,HIGH(0x2)
001b28 07fa      	CPC  R31,R26
001b29 f419      	BRNE _0x36D
                 ; 0000 08A9                     SOL_CH3 = do_value[2];
001b2a 940e 2ca6 	CALL SUBOPT_0xA6
                 ; 0000 08AA                     break;
001b2c c01b      	RJMP _0x36A
                 ; 0000 08AB                 case 3 :
                 _0x36D:
001b2d 30e3      	CPI  R30,LOW(0x3)
001b2e e0a0      	LDI  R26,HIGH(0x3)
001b2f 07fa      	CPC  R31,R26
001b30 f419      	BRNE _0x36E
                 ; 0000 08AC                     SOL_CH4 = do_value[3];
001b31 940e 2cab 	CALL SUBOPT_0xA7
                 ; 0000 08AD                     break;
001b33 c014      	RJMP _0x36A
                 ; 0000 08AE                 case 4 :
                 _0x36E:
001b34 30e4      	CPI  R30,LOW(0x4)
001b35 e0a0      	LDI  R26,HIGH(0x4)
001b36 07fa      	CPC  R31,R26
001b37 f419      	BRNE _0x36F
                 ; 0000 08AF                     SOL_CH5 = do_value[4];
001b38 940e 2cb0 	CALL SUBOPT_0xA8
                 ; 0000 08B0                     break;
001b3a c00d      	RJMP _0x36A
                 ; 0000 08B1                 case 5 :
                 _0x36F:
001b3b 30e5      	CPI  R30,LOW(0x5)
001b3c e0a0      	LDI  R26,HIGH(0x5)
001b3d 07fa      	CPC  R31,R26
001b3e f419      	BRNE _0x370
                 ; 0000 08B2                     SOL_CH6 = do_value[5];
001b3f 940e 2cb5 	CALL SUBOPT_0xA9
                 ; 0000 08B3                     break;
001b41 c006      	RJMP _0x36A
                 ; 0000 08B4                 case 6 :
                 _0x370:
001b42 30e6      	CPI  R30,LOW(0x6)
001b43 e0a0      	LDI  R26,HIGH(0x6)
001b44 07fa      	CPC  R31,R26
001b45 f411      	BRNE _0x36A
                 ; 0000 08B5                     SOL_CH7 = do_value[6];
001b46 940e 2cba 	CALL SUBOPT_0xAA
                 ; 0000 08B6                     break;
                 ; 0000 08B7             }
                 _0x36A:
                 ; 0000 08B8         }
                 _0x364:
                 ; 0000 08B9     }
                 ; 0000 08BA     else if(port==0x02)
001b48 c0ed      	RJMP _0x372
                 _0x337:
001b49 81ad      	LDD  R26,Y+5
001b4a 30a2      	CPI  R26,LOW(0x2)
001b4b f491      	BRNE _0x373
                 ; 0000 08BB     {
                 ; 0000 08BC         if(outtype==1){
001b4c 81ab      	LDD  R26,Y+3
001b4d 30a1      	CPI  R26,LOW(0x1)
001b4e f421      	BRNE _0x374
                 ; 0000 08BD             plc_prt_value |= PRT_A_ON;
001b4f 91e0 0ee1 	LDS  R30,_plc_prt_value
001b51 61e0      	ORI  R30,0x10
001b52 c006      	RJMP _0x4CA
                 ; 0000 08BE             PLC_CON = plc_prt_value;
                 ; 0000 08BF         }
                 ; 0000 08C0         else if(outtype==0){
                 _0x374:
001b53 81eb      	LDD  R30,Y+3
001b54 30e0      	CPI  R30,0
001b55 f439      	BRNE _0x376
                 ; 0000 08C1             plc_prt_value &= ~PRT_A_ON;
001b56 91e0 0ee1 	LDS  R30,_plc_prt_value
001b58 7eef      	ANDI R30,0xEF
                 _0x4CA:
001b59 93e0 0ee1 	STS  _plc_prt_value,R30
                 ; 0000 08C2             PLC_CON = plc_prt_value;
001b5b 940e 2cbf 	CALL SUBOPT_0xAB
                 ; 0000 08C3         }
                 ; 0000 08C4     }
                 _0x376:
                 ; 0000 08C5     else if(port==0x03)
001b5d c0d8      	RJMP _0x377
                 _0x373:
001b5e 81ad      	LDD  R26,Y+5
001b5f 30a3      	CPI  R26,LOW(0x3)
001b60 f491      	BRNE _0x378
                 ; 0000 08C6     {
                 ; 0000 08C7         if(outtype==1){
001b61 81ab      	LDD  R26,Y+3
001b62 30a1      	CPI  R26,LOW(0x1)
001b63 f421      	BRNE _0x379
                 ; 0000 08C8             plc_prt_value |= PRT_B_ON;
001b64 91e0 0ee1 	LDS  R30,_plc_prt_value
001b66 62e0      	ORI  R30,0x20
001b67 c006      	RJMP _0x4CB
                 ; 0000 08C9             PLC_CON = plc_prt_value;
                 ; 0000 08CA         }
                 ; 0000 08CB         else if(outtype==0){
                 _0x379:
001b68 81eb      	LDD  R30,Y+3
001b69 30e0      	CPI  R30,0
001b6a f439      	BRNE _0x37B
                 ; 0000 08CC             plc_prt_value &= ~PRT_B_ON;
001b6b 91e0 0ee1 	LDS  R30,_plc_prt_value
001b6d 7def      	ANDI R30,0xDF
                 _0x4CB:
001b6e 93e0 0ee1 	STS  _plc_prt_value,R30
                 ; 0000 08CD             PLC_CON = plc_prt_value;
001b70 940e 2cbf 	CALL SUBOPT_0xAB
                 ; 0000 08CE         }
                 ; 0000 08CF     }
                 _0x37B:
                 ; 0000 08D0     else if(port==0x10)
001b72 c0c3      	RJMP _0x37C
                 _0x378:
001b73 81ad      	LDD  R26,Y+5
001b74 31a0      	CPI  R26,LOW(0x10)
001b75 f4c9      	BRNE _0x37D
                 ; 0000 08D1     {
                 ; 0000 08D2         if(outtype==1)
001b76 81ab      	LDD  R26,Y+3
001b77 30a1      	CPI  R26,LOW(0x1)
001b78 f441      	BRNE _0x37E
                 ; 0000 08D3         {
                 ; 0000 08D4             plc_prt_value |= PRT_A_ON;
001b79 940e 2ddd 	CALL SUBOPT_0xD7
                 ; 0000 08D5             plc_prt_value |= Marking_MOUT_SNG[1];
                +
001b7b 91e0 2047+LDS R30 , _Marking_MOUT_SNG + ( 1 )
                 	__GETB1MN _Marking_MOUT_SNG,1
001b7d 91a0 0ee1 	LDS  R26,_plc_prt_value
001b7f 2bea      	OR   R30,R26
001b80 c009      	RJMP _0x4CC
                 ; 0000 08D6             PLC_CON = plc_prt_value;
                 ; 0000 08D7         }
                 ; 0000 08D8         else if(outtype==0)
                 _0x37E:
001b81 81eb      	LDD  R30,Y+3
001b82 30e0      	CPI  R30,0
001b83 f451      	BRNE _0x380
                 ; 0000 08D9         {
                 ; 0000 08DA             plc_prt_value &= ~PRT_A_ON;
001b84 940e 2de3 	CALL SUBOPT_0xD8
                 ; 0000 08DB             plc_prt_value &= ~Marking_MOUT_SNG[1];
                +
001b86 91e0 2047+LDS R30 , _Marking_MOUT_SNG + ( 1 )
                 	__GETB1MN _Marking_MOUT_SNG,1
001b88 940e 2c97 	CALL SUBOPT_0xA3
                 _0x4CC:
001b8a 93e0 0ee1 	STS  _plc_prt_value,R30
                 ; 0000 08DC             PLC_CON = plc_prt_value;
001b8c 940e 2cbf 	CALL SUBOPT_0xAB
                 ; 0000 08DD         }
                 ; 0000 08DE     }
                 _0x380:
                 ; 0000 08DF     else if(port==0x20)
001b8e c0a7      	RJMP _0x381
                 _0x37D:
001b8f 81ad      	LDD  R26,Y+5
001b90 32a0      	CPI  R26,LOW(0x20)
001b91 f4c9      	BRNE _0x382
                 ; 0000 08E0     {
                 ; 0000 08E1         if(outtype==1)
001b92 81ab      	LDD  R26,Y+3
001b93 30a1      	CPI  R26,LOW(0x1)
001b94 f441      	BRNE _0x383
                 ; 0000 08E2         {
                 ; 0000 08E3             plc_prt_value |= PRT_A_ON;
001b95 940e 2ddd 	CALL SUBOPT_0xD7
                 ; 0000 08E4             plc_prt_value |= Marking_MOUT_SNG[2];
                +
001b97 91e0 2048+LDS R30 , _Marking_MOUT_SNG + ( 2 )
                 	__GETB1MN _Marking_MOUT_SNG,2
001b99 91a0 0ee1 	LDS  R26,_plc_prt_value
001b9b 2bea      	OR   R30,R26
001b9c c009      	RJMP _0x4CD
                 ; 0000 08E5             PLC_CON = plc_prt_value;
                 ; 0000 08E6         }
                 ; 0000 08E7         else if(outtype==0)
                 _0x383:
001b9d 81eb      	LDD  R30,Y+3
001b9e 30e0      	CPI  R30,0
001b9f f451      	BRNE _0x385
                 ; 0000 08E8         {
                 ; 0000 08E9             plc_prt_value &= ~PRT_A_ON;
001ba0 940e 2de3 	CALL SUBOPT_0xD8
                 ; 0000 08EA             plc_prt_value &= ~Marking_MOUT_SNG[2];
                +
001ba2 91e0 2048+LDS R30 , _Marking_MOUT_SNG + ( 2 )
                 	__GETB1MN _Marking_MOUT_SNG,2
001ba4 940e 2c97 	CALL SUBOPT_0xA3
                 _0x4CD:
001ba6 93e0 0ee1 	STS  _plc_prt_value,R30
                 ; 0000 08EB             PLC_CON = plc_prt_value;
001ba8 940e 2cbf 	CALL SUBOPT_0xAB
                 ; 0000 08EC         }
                 ; 0000 08ED     }
                 _0x385:
                 ; 0000 08EE     else if(port==0x30)
001baa c08b      	RJMP _0x386
                 _0x382:
001bab 81ad      	LDD  R26,Y+5
001bac 33a0      	CPI  R26,LOW(0x30)
001bad f4c9      	BRNE _0x387
                 ; 0000 08EF     {
                 ; 0000 08F0         if(outtype==1)
001bae 81ab      	LDD  R26,Y+3
001baf 30a1      	CPI  R26,LOW(0x1)
001bb0 f441      	BRNE _0x388
                 ; 0000 08F1         {
                 ; 0000 08F2             plc_prt_value |= PRT_A_ON;
001bb1 940e 2ddd 	CALL SUBOPT_0xD7
                 ; 0000 08F3             plc_prt_value |= Marking_MOUT_SNG[3];
                +
001bb3 91e0 2049+LDS R30 , _Marking_MOUT_SNG + ( 3 )
                 	__GETB1MN _Marking_MOUT_SNG,3
001bb5 91a0 0ee1 	LDS  R26,_plc_prt_value
001bb7 2bea      	OR   R30,R26
001bb8 c009      	RJMP _0x4CE
                 ; 0000 08F4             PLC_CON = plc_prt_value;
                 ; 0000 08F5         }
                 ; 0000 08F6         else if(outtype==0)
                 _0x388:
001bb9 81eb      	LDD  R30,Y+3
001bba 30e0      	CPI  R30,0
001bbb f451      	BRNE _0x38A
                 ; 0000 08F7         {
                 ; 0000 08F8             plc_prt_value &= ~PRT_A_ON;
001bbc 940e 2de3 	CALL SUBOPT_0xD8
                 ; 0000 08F9             plc_prt_value &= ~Marking_MOUT_SNG[3];
                +
001bbe 91e0 2049+LDS R30 , _Marking_MOUT_SNG + ( 3 )
                 	__GETB1MN _Marking_MOUT_SNG,3
001bc0 940e 2c97 	CALL SUBOPT_0xA3
                 _0x4CE:
001bc2 93e0 0ee1 	STS  _plc_prt_value,R30
                 ; 0000 08FA             PLC_CON = plc_prt_value;
001bc4 940e 2cbf 	CALL SUBOPT_0xAB
                 ; 0000 08FB         }
                 ; 0000 08FC     }
                 _0x38A:
                 ; 0000 08FD     else if(port==0x40)
001bc6 c06f      	RJMP _0x38B
                 _0x387:
001bc7 81ad      	LDD  R26,Y+5
001bc8 34a0      	CPI  R26,LOW(0x40)
001bc9 f4c9      	BRNE _0x38C
                 ; 0000 08FE     {
                 ; 0000 08FF         if(outtype==1)
001bca 81ab      	LDD  R26,Y+3
001bcb 30a1      	CPI  R26,LOW(0x1)
001bcc f441      	BRNE _0x38D
                 ; 0000 0900         {
                 ; 0000 0901             plc_prt_value |= PRT_A_ON;
001bcd 940e 2ddd 	CALL SUBOPT_0xD7
                 ; 0000 0902             plc_prt_value |= Marking_MOUT_SNG[4];
                +
001bcf 91e0 204a+LDS R30 , _Marking_MOUT_SNG + ( 4 )
                 	__GETB1MN _Marking_MOUT_SNG,4
001bd1 91a0 0ee1 	LDS  R26,_plc_prt_value
001bd3 2bea      	OR   R30,R26
001bd4 c009      	RJMP _0x4CF
                 ; 0000 0903             PLC_CON = plc_prt_value;
                 ; 0000 0904         }
                 ; 0000 0905         else if(outtype==0)
                 _0x38D:
001bd5 81eb      	LDD  R30,Y+3
001bd6 30e0      	CPI  R30,0
001bd7 f451      	BRNE _0x38F
                 ; 0000 0906         {
                 ; 0000 0907             plc_prt_value &= ~PRT_A_ON;
001bd8 940e 2de3 	CALL SUBOPT_0xD8
                 ; 0000 0908             plc_prt_value &= ~Marking_MOUT_SNG[4];
                +
001bda 91e0 204a+LDS R30 , _Marking_MOUT_SNG + ( 4 )
                 	__GETB1MN _Marking_MOUT_SNG,4
001bdc 940e 2c97 	CALL SUBOPT_0xA3
                 _0x4CF:
001bde 93e0 0ee1 	STS  _plc_prt_value,R30
                 ; 0000 0909             PLC_CON = plc_prt_value;
001be0 940e 2cbf 	CALL SUBOPT_0xAB
                 ; 0000 090A         }
                 ; 0000 090B     }
                 _0x38F:
                 ; 0000 090C     else if(port==0x50)
001be2 c053      	RJMP _0x390
                 _0x38C:
001be3 81ad      	LDD  R26,Y+5
001be4 35a0      	CPI  R26,LOW(0x50)
001be5 f4c9      	BRNE _0x391
                 ; 0000 090D     {
                 ; 0000 090E         if(outtype==1)
001be6 81ab      	LDD  R26,Y+3
001be7 30a1      	CPI  R26,LOW(0x1)
001be8 f441      	BRNE _0x392
                 ; 0000 090F         {
                 ; 0000 0910             plc_prt_value |= PRT_A_ON;
001be9 940e 2ddd 	CALL SUBOPT_0xD7
                 ; 0000 0911             plc_prt_value |= Marking_MOUT_SNG[5];
                +
001beb 91e0 204b+LDS R30 , _Marking_MOUT_SNG + ( 5 )
                 	__GETB1MN _Marking_MOUT_SNG,5
001bed 91a0 0ee1 	LDS  R26,_plc_prt_value
001bef 2bea      	OR   R30,R26
001bf0 c009      	RJMP _0x4D0
                 ; 0000 0912             PLC_CON = plc_prt_value;
                 ; 0000 0913         }
                 ; 0000 0914         else if(outtype==0)
                 _0x392:
001bf1 81eb      	LDD  R30,Y+3
001bf2 30e0      	CPI  R30,0
001bf3 f451      	BRNE _0x394
                 ; 0000 0915         {
                 ; 0000 0916             plc_prt_value &= ~PRT_A_ON;
001bf4 940e 2de3 	CALL SUBOPT_0xD8
                 ; 0000 0917             plc_prt_value &= ~Marking_MOUT_SNG[5];
                +
001bf6 91e0 204b+LDS R30 , _Marking_MOUT_SNG + ( 5 )
                 	__GETB1MN _Marking_MOUT_SNG,5
001bf8 940e 2c97 	CALL SUBOPT_0xA3
                 _0x4D0:
001bfa 93e0 0ee1 	STS  _plc_prt_value,R30
                 ; 0000 0918             PLC_CON = plc_prt_value;
001bfc 940e 2cbf 	CALL SUBOPT_0xAB
                 ; 0000 0919         }
                 ; 0000 091A     }
                 _0x394:
                 ; 0000 091B     else if(port==0x60)
001bfe c037      	RJMP _0x395
                 _0x391:
001bff 81ad      	LDD  R26,Y+5
001c00 36a0      	CPI  R26,LOW(0x60)
001c01 f4c9      	BRNE _0x396
                 ; 0000 091C     {
                 ; 0000 091D         if(outtype==1)
001c02 81ab      	LDD  R26,Y+3
001c03 30a1      	CPI  R26,LOW(0x1)
001c04 f441      	BRNE _0x397
                 ; 0000 091E         {
                 ; 0000 091F             plc_prt_value |= PRT_A_ON;
001c05 940e 2ddd 	CALL SUBOPT_0xD7
                 ; 0000 0920             plc_prt_value |= Marking_MOUT_SNG[6];
                +
001c07 91e0 204c+LDS R30 , _Marking_MOUT_SNG + ( 6 )
                 	__GETB1MN _Marking_MOUT_SNG,6
001c09 91a0 0ee1 	LDS  R26,_plc_prt_value
001c0b 2bea      	OR   R30,R26
001c0c c009      	RJMP _0x4D1
                 ; 0000 0921             PLC_CON = plc_prt_value;
                 ; 0000 0922         }
                 ; 0000 0923         else if(outtype==0)
                 _0x397:
001c0d 81eb      	LDD  R30,Y+3
001c0e 30e0      	CPI  R30,0
001c0f f451      	BRNE _0x399
                 ; 0000 0924         {
                 ; 0000 0925             plc_prt_value &= ~PRT_A_ON;
001c10 940e 2de3 	CALL SUBOPT_0xD8
                 ; 0000 0926             plc_prt_value &= ~Marking_MOUT_SNG[6];
                +
001c12 91e0 204c+LDS R30 , _Marking_MOUT_SNG + ( 6 )
                 	__GETB1MN _Marking_MOUT_SNG,6
001c14 940e 2c97 	CALL SUBOPT_0xA3
                 _0x4D1:
001c16 93e0 0ee1 	STS  _plc_prt_value,R30
                 ; 0000 0927             PLC_CON = plc_prt_value;
001c18 940e 2cbf 	CALL SUBOPT_0xAB
                 ; 0000 0928         }
                 ; 0000 0929     }
                 _0x399:
                 ; 0000 092A     else if(port==0x70)
001c1a c01b      	RJMP _0x39A
                 _0x396:
001c1b 81ad      	LDD  R26,Y+5
001c1c 37a0      	CPI  R26,LOW(0x70)
001c1d f4c1      	BRNE _0x39B
                 ; 0000 092B     {
                 ; 0000 092C         if(outtype==1)
001c1e 81ab      	LDD  R26,Y+3
001c1f 30a1      	CPI  R26,LOW(0x1)
001c20 f441      	BRNE _0x39C
                 ; 0000 092D         {
                 ; 0000 092E             plc_prt_value |= PRT_A_ON;
001c21 940e 2ddd 	CALL SUBOPT_0xD7
                 ; 0000 092F             plc_prt_value |= Marking_MOUT_SNG[7];
                +
001c23 91e0 204d+LDS R30 , _Marking_MOUT_SNG + ( 7 )
                 	__GETB1MN _Marking_MOUT_SNG,7
001c25 91a0 0ee1 	LDS  R26,_plc_prt_value
001c27 2bea      	OR   R30,R26
001c28 c009      	RJMP _0x4D2
                 ; 0000 0930             PLC_CON = plc_prt_value;
                 ; 0000 0931         }
                 ; 0000 0932         else if(outtype==0)
                 _0x39C:
001c29 81eb      	LDD  R30,Y+3
001c2a 30e0      	CPI  R30,0
001c2b f451      	BRNE _0x39E
                 ; 0000 0933         {
                 ; 0000 0934             plc_prt_value &= ~PRT_A_ON;
001c2c 940e 2de3 	CALL SUBOPT_0xD8
                 ; 0000 0935             plc_prt_value &= ~Marking_MOUT_SNG[7];
                +
001c2e 91e0 204d+LDS R30 , _Marking_MOUT_SNG + ( 7 )
                 	__GETB1MN _Marking_MOUT_SNG,7
001c30 940e 2c97 	CALL SUBOPT_0xA3
                 _0x4D2:
001c32 93e0 0ee1 	STS  _plc_prt_value,R30
                 ; 0000 0936             PLC_CON = plc_prt_value;
001c34 940e 2cbf 	CALL SUBOPT_0xAB
                 ; 0000 0937         }
                 ; 0000 0938     }
                 _0x39E:
                 ; 0000 0939 }
                 _0x39B:
                 _0x39A:
                 _0x395:
                 _0x390:
                 _0x38B:
                 _0x386:
                 _0x381:
                 _0x37C:
                 _0x377:
                 _0x372:
001c36 8119      	LDD  R17,Y+1
001c37 8108      	LDD  R16,Y+0
001c38 9626      	ADIW R28,6
001c39 9508      	RET
                 ; .FEND
                 ;
                 ;void MACHINE_DATA_CLEAR(void){
                 ; 0000 093B void MACHINE_DATA_CLEAR(void){
                 _MACHINE_DATA_CLEAR:
                 ; .FSTART _MACHINE_DATA_CLEAR
                 ; 0000 093C     unsigned int icnt;
                 ; 0000 093D 
                 ; 0000 093E     for(icnt=0;icnt<MAX_BUCKET;icnt++){
001c3a 931a      	ST   -Y,R17
001c3b 930a      	ST   -Y,R16
                 ;	icnt -> R16,R17
                +
001c3c e000     +LDI R16 , LOW ( 0 )
001c3d e010     +LDI R17 , HIGH ( 0 )
                 	__GETWRN 16,17,0
                 _0x3A0:
                +
001c3e 320c     +CPI R16 , LOW ( 300 )
001c3f e0e1     +LDI R30 , HIGH ( 300 )
001c40 071e     +CPC R17 , R30
                 	__CPWRN 16,17,300
001c41 f438      	BRSH _0x3A1
                 ; 0000 093F         BucketData[icnt] = BucketInitValue;
001c42 940e 29b4 	CALL SUBOPT_0x40
001c44 940e 29c0 	CALL SUBOPT_0x42
                 ; 0000 0940     }
                +
001c46 5f0f     +SUBI R16 , LOW ( - 1 )
001c47 4f1f     +SBCI R17 , HIGH ( - 1 )
                 	__ADDWRN 16,17,1
001c48 cff5      	RJMP _0x3A0
                 _0x3A1:
                 ; 0000 0941     for(icnt=0;icnt<MAX_BUCKET;icnt++)
                +
001c49 e000     +LDI R16 , LOW ( 0 )
001c4a e010     +LDI R17 , HIGH ( 0 )
                 	__GETWRN 16,17,0
                 _0x3A3:
                +
001c4b 320c     +CPI R16 , LOW ( 300 )
001c4c e0e1     +LDI R30 , HIGH ( 300 )
001c4d 071e     +CPC R17 , R30
                 	__CPWRN 16,17,300
001c4e f440      	BRSH _0x3A4
                 ; 0000 0942     {
                 ; 0000 0943         BucketData_Wight[icnt] = BucketInitValue;
001c4f 01f8      	MOVW R30,R16
001c50 940e 2cc8 	CALL SUBOPT_0xAD
001c52 940e 29c0 	CALL SUBOPT_0x42
                 ; 0000 0944     }
                +
001c54 5f0f     +SUBI R16 , LOW ( - 1 )
001c55 4f1f     +SBCI R17 , HIGH ( - 1 )
                 	__ADDWRN 16,17,1
001c56 cff4      	RJMP _0x3A3
                 _0x3A4:
                 ; 0000 0945 
                 ; 0000 0946     for(icnt=0;icnt<MAX_PACKER+1;icnt++)
                +
001c57 e000     +LDI R16 , LOW ( 0 )
001c58 e010     +LDI R17 , HIGH ( 0 )
                 	__GETWRN 16,17,0
                 _0x3A6:
                +
001c59 300a     +CPI R16 , LOW ( 10 )
001c5a e0e0     +LDI R30 , HIGH ( 10 )
001c5b 071e     +CPC R17 , R30
                 	__CPWRN 16,17,10
001c5c f490      	BRSH _0x3A7
                 ; 0000 0947     {
                 ; 0000 0948         GRADE_DATA.gNumber[icnt] = 0;
                +
001c5d e5ae     +LDI R26 , LOW ( _GRADE_DATA + ( 48 ) )
001c5e e0bd     +LDI R27 , HIGH ( _GRADE_DATA + ( 48 ) )
                 	__POINTW2MN _GRADE_DATA,48
001c5f 01f8      	MOVW R30,R16
001c60 940e 2a09 	CALL SUBOPT_0x4D
                 ; 0000 0949         GRADE_DATA.gWeight[icnt] = 0;
                +
001c62 e8a6     +LDI R26 , LOW ( _GRADE_DATA + ( 88 ) )
001c63 e0bd     +LDI R27 , HIGH ( _GRADE_DATA + ( 88 ) )
                 	__POINTW2MN _GRADE_DATA,88
001c64 01f8      	MOVW R30,R16
001c65 940e 2a09 	CALL SUBOPT_0x4D
                 ; 0000 094A         GRADE_DATA.pNumber[icnt] = 0;
                +
001c67 eaae     +LDI R26 , LOW ( _GRADE_DATA + ( 128 ) )
001c68 e0bd     +LDI R27 , HIGH ( _GRADE_DATA + ( 128 ) )
                 	__POINTW2MN _GRADE_DATA,128
001c69 01f8      	MOVW R30,R16
001c6a 940e 2a09 	CALL SUBOPT_0x4D
                 ; 0000 094B 
                 ; 0000 094C         //GRADE_INFO[icnt].prtOutCount=0;
                 ; 0000 094D     }
                +
001c6c 5f0f     +SUBI R16 , LOW ( - 1 )
001c6d 4f1f     +SBCI R17 , HIGH ( - 1 )
                 	__ADDWRN 16,17,1
001c6e cfea      	RJMP _0x3A6
                 _0x3A7:
                 ; 0000 094E     for(icnt=0;icnt<MAX_PACKER;icnt++)
                +
001c6f e000     +LDI R16 , LOW ( 0 )
001c70 e010     +LDI R17 , HIGH ( 0 )
                 	__GETWRN 16,17,0
                 _0x3A9:
                +
001c71 3009     +CPI R16 , LOW ( 9 )
001c72 e0e0     +LDI R30 , HIGH ( 9 )
001c73 071e     +CPC R17 , R30
                 	__CPWRN 16,17,9
001c74 f460      	BRSH _0x3AA
                 ; 0000 094F     {
                 ; 0000 0950          GRADE_INFO[icnt].prtOutCount=0;
                +
001c75 e0aa     +LDI R26 , 10
001c76 9fa0     +MUL R26 , R16
001c77 01f0     +MOVW R30 , R0
001c78 9fa1     +MUL R26 , R17
001c79 0df0     +ADD R31 , R0
                 	__MULBNWRU 16,17,10
                +
001c7a 54e8     +SUBI R30 , LOW ( - _GRADE_INFO - ( 8 ) )
001c7b 4ff5     +SBCI R31 , HIGH ( - _GRADE_INFO - ( 8 ) )
                 	__ADDW1MN _GRADE_INFO,8
001c7c 940e 27d4 	CALL SUBOPT_0x2
                 ; 0000 0951     }
                +
001c7e 5f0f     +SUBI R16 , LOW ( - 1 )
001c7f 4f1f     +SBCI R17 , HIGH ( - 1 )
                 	__ADDWRN 16,17,1
001c80 cff0      	RJMP _0x3A9
                 _0x3AA:
                 ; 0000 0952 
                 ; 0000 0953     GRADE_DATA.gTNumber = 0;
001c81 940e 2de9 	CALL SUBOPT_0xD9
                +
001c83 93e0 0dd6+STS _GRADE_DATA + ( 168 ) , R30
001c85 93f0 0dd7+STS _GRADE_DATA + ( 168 ) + 1 , R31
001c87 9360 0dd8+STS _GRADE_DATA + ( 168 ) + 2 , R22
001c89 9370 0dd9+STS _GRADE_DATA + ( 168 ) + 3 , R23
                 	__PUTD1MN _GRADE_DATA,168
                 ; 0000 0954     GRADE_DATA.gTWeight = 0;
001c8b 940e 2de9 	CALL SUBOPT_0xD9
001c8d 940e 2bd0 	CALL SUBOPT_0x89
                 ; 0000 0955     GRADE_DATA.gSpeed = 0;
001c8f 940e 2de9 	CALL SUBOPT_0xD9
                +
001c91 93e0 0de6+STS _GRADE_DATA + ( 184 ) , R30
001c93 93f0 0de7+STS _GRADE_DATA + ( 184 ) + 1 , R31
001c95 9360 0de8+STS _GRADE_DATA + ( 184 ) + 2 , R22
001c97 9370 0de9+STS _GRADE_DATA + ( 184 ) + 3 , R23
                 	__PUTD1MN _GRADE_DATA,184
                 ; 0000 0956     GRADE_DATA.gZCount = 0;
001c99 940e 2de9 	CALL SUBOPT_0xD9
001c9b 940e 2c05 	CALL SUBOPT_0x91
                 ; 0000 0957     phase_z_cnt = 0;
001c9d 940e 2dee 	CALL SUBOPT_0xDA
                 ; 0000 0958     abn_butket_num_temp = 0;
001c9f 93e0 1c70 	STS  _abn_butket_num_temp,R30
001ca1 93e0 1c71 	STS  _abn_butket_num_temp+1,R30
                 ; 0000 0959     tmrSPEEDCNT = 0;
001ca3 e0e0      	LDI  R30,LOW(0)
001ca4 940e 2c0f 	CALL SUBOPT_0x92
                 ; 0000 095A }
001ca6 9109      	LD   R16,Y+
001ca7 9119      	LD   R17,Y+
001ca8 9508      	RET
                 ; .FEND
                 ;
                 ;void main(void)
                 ; 0000 095D {
                 _main:
                 ; .FSTART _main
                 ; 0000 095E     unsigned char hi_cmd, lo_cmd, done = 1;
                 ; 0000 095F     unsigned int dbufstart, lcnt, jcnt, oddbuf, evenbuf, bufpos=0;
                 ; 0000 0960 
                 ; 0000 0961 
                 ; 0000 0962 
                 ; 0000 0963     //   
                 ; 0000 0964     Initialize_REG();
001ca9 972a      	SBIW R28,10
001caa e0e0      	LDI  R30,LOW(0)
001cab 83e8      	ST   Y,R30
001cac 83e9      	STD  Y+1,R30
                 ;	hi_cmd -> R17
                 ;	lo_cmd -> R16
                 ;	done -> R19
                 ;	dbufstart -> R20,R21
                 ;	lcnt -> Y+8
                 ;	jcnt -> Y+6
                 ;	oddbuf -> Y+4
                 ;	evenbuf -> Y+2
                 ;	bufpos -> Y+0
001cad e031      	LDI  R19,1
001cae 940e 031e 	CALL _Initialize_REG
                 ; 0000 0965     Initialize_GPIO();
001cb0 940e 0306 	CALL _Initialize_GPIO
                 ; 0000 0966 
                 ; 0000 0967     //Solenoid Port Initialize
                 ; 0000 0968     SOL_CH1 = 0;
001cb2 e0e0      	LDI  R30,LOW(0)
001cb3 93e0 8900 	STS  35072,R30
                 ; 0000 0969     SOL_CH2 = 0;
001cb5 93e0 8a00 	STS  35328,R30
                 ; 0000 096A     SOL_CH3 = 0;
001cb7 93e0 8b00 	STS  35584,R30
                 ; 0000 096B     SOL_CH4 = 0;
001cb9 93e0 8c00 	STS  35840,R30
                 ; 0000 096C     SOL_CH5 = 0;
001cbb 93e0 8d00 	STS  36096,R30
                 ; 0000 096D     SOL_CH6 = 0;
001cbd 93e0 8e00 	STS  36352,R30
                 ; 0000 096E     SOL_CH7 = 0;
001cbf 93e0 8f00 	STS  36608,R30
                 ; 0000 096F     PLC_CON = 0;
001cc1 93e0 8800 	STS  34816,R30
                 ; 0000 0970     LED_BUZ = 0;
001cc3 93e0 9000 	STS  36864,R30
                 ; 0000 0971     //led_buz_value &= ~BUZZER_ON;
                 ; 0000 0972     //LED_BUZ = led_buz_value;
                 ; 0000 0973     delay_ms(2000);
001cc5 eda0      	LDI  R26,LOW(2000)
001cc6 e0b7      	LDI  R27,HIGH(2000)
001cc7 940e 3021 	CALL _delay_ms
                 ; 0000 0974     //          1.4
                 ; 0000 0975     //   
                 ; 0000 0976     for(jcnt=0;jcnt<40;jcnt++){
001cc9 e0e0      	LDI  R30,LOW(0)
001cca 83ee      	STD  Y+6,R30
001ccb 83ef      	STD  Y+6+1,R30
                 _0x3AC:
001ccc 81ae      	LDD  R26,Y+6
001ccd 81bf      	LDD  R27,Y+6+1
001cce 9798      	SBIW R26,40
001ccf f590      	BRSH _0x3AD
                 ; 0000 0977         if((jcnt%2)==0){
001cd0 81ee      	LDD  R30,Y+6
001cd1 81ff      	LDD  R31,Y+6+1
001cd2 70e1      	ANDI R30,LOW(0x1)
001cd3 f4a1      	BRNE _0x3AE
                 ; 0000 0978             LED_BUZ = 0x40;          delay_ms(50);
001cd4 e4e0      	LDI  R30,LOW(64)
001cd5 940e 2df8 	CALL SUBOPT_0xDB
                 ; 0000 0979             LED_BUZ = 0x20;          delay_ms(50);
001cd7 e2e0      	LDI  R30,LOW(32)
001cd8 940e 2df8 	CALL SUBOPT_0xDB
                 ; 0000 097A             LED_BUZ = 0x10;          delay_ms(50);
001cda e1e0      	LDI  R30,LOW(16)
001cdb 940e 2df8 	CALL SUBOPT_0xDB
                 ; 0000 097B             LED_BUZ = 0x08;          delay_ms(50);
001cdd e0e8      	LDI  R30,LOW(8)
001cde 940e 2df8 	CALL SUBOPT_0xDB
                 ; 0000 097C             LED_BUZ = 0x04;          delay_ms(50);
001ce0 e0e4      	LDI  R30,LOW(4)
001ce1 940e 2df8 	CALL SUBOPT_0xDB
                 ; 0000 097D             LED_BUZ = 0x02;          delay_ms(50);
001ce3 e0e2      	LDI  R30,LOW(2)
001ce4 940e 2df8 	CALL SUBOPT_0xDB
                 ; 0000 097E             LED_BUZ = 0x01;          delay_ms(50);
001ce6 e0e1      	LDI  R30,LOW(1)
001ce7 c013      	RJMP _0x4D3
                 ; 0000 097F         }
                 ; 0000 0980         else{
                 _0x3AE:
                 ; 0000 0981             LED_BUZ = 0x01;          delay_ms(50);
001ce8 e0e1      	LDI  R30,LOW(1)
001ce9 940e 2df8 	CALL SUBOPT_0xDB
                 ; 0000 0982             LED_BUZ = 0x02;          delay_ms(50);
001ceb e0e2      	LDI  R30,LOW(2)
001cec 940e 2df8 	CALL SUBOPT_0xDB
                 ; 0000 0983             LED_BUZ = 0x04;          delay_ms(50);
001cee e0e4      	LDI  R30,LOW(4)
001cef 940e 2df8 	CALL SUBOPT_0xDB
                 ; 0000 0984             LED_BUZ = 0x08;          delay_ms(50);
001cf1 e0e8      	LDI  R30,LOW(8)
001cf2 940e 2df8 	CALL SUBOPT_0xDB
                 ; 0000 0985             LED_BUZ = 0x10;          delay_ms(50);
001cf4 e1e0      	LDI  R30,LOW(16)
001cf5 940e 2df8 	CALL SUBOPT_0xDB
                 ; 0000 0986             LED_BUZ = 0x20;          delay_ms(50);
001cf7 e2e0      	LDI  R30,LOW(32)
001cf8 940e 2df8 	CALL SUBOPT_0xDB
                 ; 0000 0987             LED_BUZ = 0x40;          delay_ms(50);
001cfa e4e0      	LDI  R30,LOW(64)
                 _0x4D3:
001cfb 93e0 9000 	STS  36864,R30
001cfd 940e 2d74 	CALL SUBOPT_0xC5
                 ; 0000 0988         }
                 ; 0000 0989     }
001cff 940e 2d54 	CALL SUBOPT_0xC1
001d01 cfca      	RJMP _0x3AC
                 _0x3AD:
                 ; 0000 098A 
                 ; 0000 098B     LED_BUZ = led_buz_value;
001d02 940e 2914 	CALL SUBOPT_0x2F
                 ; 0000 098C 
                 ; 0000 098D     Initialize_SYSTEM();
001d04 da3b      	RCALL _Initialize_SYSTEM
                 ; 0000 098E     GET_USR_INFO_DATA(MARKING_VERSION);
001d05 e1a2      	LDI  R26,LOW(18)
001d06 e0b0      	LDI  R27,0
001d07 940e 0468 	CALL _GET_USR_INFO_DATA
                 ; 0000 098F 
                 ; 0000 0990 
                 ; 0000 0991     //Auto Running Mode
                 ; 0000 0992     if(ControllerRunMethod == AUTO_RUN_MODE){
001d09 e0e1      	LDI  R30,LOW(1)
001d0a 15e4      	CP   R30,R4
001d0b f481      	BRNE _0x3B0
                 ; 0000 0993         tmrSPEEDCNT = 0;
001d0c e0e0      	LDI  R30,LOW(0)
001d0d 940e 2c0f 	CALL SUBOPT_0x92
                 ; 0000 0994         led_buz_value |= LED_RUN_STOP;
001d0f 940e 28ca 	CALL SUBOPT_0x27
                 ; 0000 0995         LED_BUZ = led_buz_value;
                 ; 0000 0996 
                 ; 0000 0997         BuzzerOn();
001d11 940e 2da7 	CALL SUBOPT_0xCE
                 ; 0000 0998         delay_ms(200);
                 ; 0000 0999 
                 ; 0000 099A         modRunning = NORMAL_RUN;
001d13 e0e1      	LDI  R30,LOW(1)
001d14 2eae      	MOV  R10,R30
                 ; 0000 099B         TimerMode = tmrSPEED;
001d15 e0e2      	LDI  R30,LOW(2)
001d16 940e 2dfb 	CALL SUBOPT_0xDC
                 ; 0000 099C         plc_prt_value |= MACHINE_START;
                 ; 0000 099D         PLC_CON = plc_prt_value;
                 ; 0000 099E         //Timer Start
                 ; 0000 099F         OCR1AH=0x00;        OCR1AL=0x4E;        //20msec /1024 prescaler
001d18 940e 2898 	CALL SUBOPT_0x21
                 ; 0000 09A0         TCCR1B = 0x05;
                 ; 0000 09A1 
                 ; 0000 09A2         while(done);
                 _0x3B1:
001d1a 3030      	CPI  R19,0
001d1b f7f1      	BRNE _0x3B1
                 ; 0000 09A3     }
                 ; 0000 09A4 
                 ; 0000 09A5     while(1){
                 _0x3B0:
                 _0x3B4:
                 ; 0000 09A6         if(modRunning==MACHINE_STOP || modRunning==NORMAL_RUN || modRunning==SOLENOID_TEST || modRunning==ENCODER_CHK){
001d1c 20aa      	TST  R10
001d1d f059      	BREQ _0x3B8
001d1e e0e1      	LDI  R30,LOW(1)
001d1f 15ea      	CP   R30,R10
001d20 f041      	BREQ _0x3B8
001d21 e0e4      	LDI  R30,LOW(4)
001d22 15ea      	CP   R30,R10
001d23 f029      	BREQ _0x3B8
001d24 e0e7      	LDI  R30,LOW(7)
001d25 15ea      	CP   R30,R10
001d26 f011      	BREQ _0x3B8
001d27 940c 27ac 	JMP  _0x3B7
                 _0x3B8:
                 ; 0000 09A7             if(COM_REV_ENABLE){
001d29 91e0 1bfc 	LDS  R30,_COM_REV_ENABLE
001d2b 30e0      	CPI  R30,0
001d2c f411      	BRNE PC+3
001d2d 940c 27ac 	JMP _0x3BA
                 ; 0000 09A8                 hi_cmd = RxBuffer[0] & 0xF0;
001d2f 91e0 142c 	LDS  R30,_RxBuffer
001d31 7fe0      	ANDI R30,LOW(0xF0)
001d32 2f1e      	MOV  R17,R30
                 ; 0000 09A9                 lo_cmd = RxBuffer[0] & 0x0F;
001d33 91e0 142c 	LDS  R30,_RxBuffer
001d35 70ef      	ANDI R30,LOW(0xF)
001d36 2f0e      	MOV  R16,R30
                 ; 0000 09AA                 switch(RxBuffer[0]){
001d37 91e0 142c 	LDS  R30,_RxBuffer
001d39 e0f0      	LDI  R31,0
                 ; 0000 09AB                     case CMD_START : //0x10
001d3a 31e0      	CPI  R30,LOW(0x10)
001d3b e0a0      	LDI  R26,HIGH(0x10)
001d3c 07fa      	CPC  R31,R26
001d3d f009      	BREQ PC+2
001d3e c1a8      	RJMP _0x3BE
                 ; 0000 09AC                         switch(RxBuffer[1]){
001d3f 940e 2db1 	CALL SUBOPT_0xD0
                 ; 0000 09AD                             case 0x01 : case 0x02: case 0x03 : case 0x04 : //Machine Start
001d41 f021      	BREQ _0x3C3
001d42 30e2      	CPI  R30,LOW(0x2)
001d43 e0a0      	LDI  R26,HIGH(0x2)
001d44 07fa      	CPC  R31,R26
001d45 f409      	BRNE _0x3C4
                 _0x3C3:
001d46 c004      	RJMP _0x3C5
                 _0x3C4:
001d47 30e3      	CPI  R30,LOW(0x3)
001d48 e0a0      	LDI  R26,HIGH(0x3)
001d49 07fa      	CPC  R31,R26
001d4a f409      	BRNE _0x3C6
                 _0x3C5:
001d4b c005      	RJMP _0x3C7
                 _0x3C6:
001d4c 30e4      	CPI  R30,LOW(0x4)
001d4d e0a0      	LDI  R26,HIGH(0x4)
001d4e 07fa      	CPC  R31,R26
001d4f f009      	BREQ PC+2
001d50 c041      	RJMP _0x3C8
                 _0x3C7:
                 ; 0000 09AE                                 if(RxBuffer[1]==0x01)
                +
001d51 91a0 142d+LDS R26 , _RxBuffer + ( 1 )
                 	__GETB2MN _RxBuffer,1
001d53 30a1      	CPI  R26,LOW(0x1)
001d54 f459      	BRNE _0x3C9
                 ; 0000 09AF                                 {
                 ; 0000 09B0                                     debugMode = 0;
001d55 e0e0      	LDI  R30,LOW(0)
001d56 93e0 1faa 	STS  _debugMode,R30
                 ; 0000 09B1 
                 ; 0000 09B2                                     if( Marking_Version != 0 )
001d58 91e0 1c6b 	LDS  R30,_Marking_Version
001d5a 30e0      	CPI  R30,0
001d5b f019      	BREQ _0x3CA
                 ; 0000 09B3                                     {
                 ; 0000 09B4                                         Marking_Version = 0;
001d5c e0e0      	LDI  R30,LOW(0)
001d5d 940e 2e01 	CALL SUBOPT_0xDD
                 ; 0000 09B5                                         PUT_USR_INFO_DATA(MARKING_VERSION);
                 ; 0000 09B6                                     }
                 ; 0000 09B7                                     LifeTime_Run = 0;
                 _0x3CA:
001d5f c01c      	RJMP _0x4D4
                 ; 0000 09B8                                 }
                 ; 0000 09B9                                 else if(RxBuffer[1]==0x02)
                 _0x3C9:
                +
001d60 91a0 142d+LDS R26 , _RxBuffer + ( 1 )
                 	__GETB2MN _RxBuffer,1
001d62 30a2      	CPI  R26,LOW(0x2)
001d63 f459      	BRNE _0x3CC
                 ; 0000 09BA                                 {
                 ; 0000 09BB                                     debugMode = 0;
001d64 e0e0      	LDI  R30,LOW(0)
001d65 93e0 1faa 	STS  _debugMode,R30
                 ; 0000 09BC                                     if( Marking_Version != 1 )
001d67 91a0 1c6b 	LDS  R26,_Marking_Version
001d69 30a1      	CPI  R26,LOW(0x1)
001d6a f019      	BREQ _0x3CD
                 ; 0000 09BD                                     {
                 ; 0000 09BE                                         Marking_Version = 1;
001d6b e0e1      	LDI  R30,LOW(1)
001d6c 940e 2e01 	CALL SUBOPT_0xDD
                 ; 0000 09BF                                         PUT_USR_INFO_DATA(MARKING_VERSION);
                 ; 0000 09C0                                     }
                 ; 0000 09C1                                     LifeTime_Run = 0;
                 _0x3CD:
001d6e c00d      	RJMP _0x4D4
                 ; 0000 09C2                                 }
                 ; 0000 09C3                                 else if(RxBuffer[1]==0x03){
                 _0x3CC:
                +
001d6f 91a0 142d+LDS R26 , _RxBuffer + ( 1 )
                 	__GETB2MN _RxBuffer,1
001d71 30a3      	CPI  R26,LOW(0x3)
001d72 f411      	BRNE _0x3CF
                 ; 0000 09C4                                     debugMode = 2;
001d73 e0e2      	LDI  R30,LOW(2)
001d74 c005      	RJMP _0x4D5
                 ; 0000 09C5                                     LifeTime_Run = 0;
                 ; 0000 09C6                                 }
                 ; 0000 09C7                                 else if(RxBuffer[1]==0x04){
                 _0x3CF:
                +
001d75 91a0 142d+LDS R26 , _RxBuffer + ( 1 )
                 	__GETB2MN _RxBuffer,1
001d77 30a4      	CPI  R26,LOW(0x4)
001d78 f431      	BRNE _0x3D1
                 ; 0000 09C8                                     debugMode = 3;
001d79 e0e3      	LDI  R30,LOW(3)
                 _0x4D5:
001d7a 93e0 1faa 	STS  _debugMode,R30
                 ; 0000 09C9                                     LifeTime_Run = 0;
                 _0x4D4:
001d7c e0e0      	LDI  R30,LOW(0)
001d7d 93e0 1c6c 	STS  _LifeTime_Run,R30
                 ; 0000 09CA                                 }
                 ; 0000 09CB 
                 ; 0000 09CC                                 tmrSPEEDCNT = 0;
                 _0x3D1:
001d7f e0e0      	LDI  R30,LOW(0)
001d80 940e 2c0f 	CALL SUBOPT_0x92
                 ; 0000 09CD                                 TxBuffer[0] = 0x02;
001d82 940e 2a90 	CALL SUBOPT_0x5F
                 ; 0000 09CE                                 TxBuffer[1] = 0x00;
                 ; 0000 09CF                                 TxBuffer[2] = 0x02;
001d84 940e 2a6a 	CALL SUBOPT_0x5B
                 ; 0000 09D0                                 TxBuffer[3] = CMD_START;
                 ; 0000 09D1                                 TxBuffer[4] = 0x01;
001d86 e0e1      	LDI  R30,LOW(1)
001d87 940e 2a98 	CALL SUBOPT_0x60
                 ; 0000 09D2                                 TxBuffer[5] = 0x03;
                 ; 0000 09D3                                 TxEnable = 1;   txcnt = 1;  TxLength = 6;   UDR1 = TxBuffer[0];
001d89 940e 2d86 	CALL SUBOPT_0xC9
                 ; 0000 09D4                                 led_buz_value |= LED_RUN_STOP;
001d8b 940e 28ca 	CALL SUBOPT_0x27
                 ; 0000 09D5                                 LED_BUZ = led_buz_value;
                 ; 0000 09D6 
                 ; 0000 09D7                                 BuzzerOn();
001d8d 940e 2da7 	CALL SUBOPT_0xCE
                 ; 0000 09D8                                 delay_ms(200);
                 ; 0000 09D9 
                 ; 0000 09DA                                 modRunning = NORMAL_RUN;
001d8f e0e1      	LDI  R30,LOW(1)
001d90 2eae      	MOV  R10,R30
                 ; 0000 09DB                                 TimerMode = tmrSPEED;
001d91 c14e      	RJMP _0x4D6
                 ; 0000 09DC                                 plc_prt_value |= MACHINE_START;
                 ; 0000 09DD                                 PLC_CON = plc_prt_value;
                 ; 0000 09DE                                 //Timer Start
                 ; 0000 09DF                                 OCR1AH=0x00;        OCR1AL=0x4E;        //20msec /1024 prescaler
                 ; 0000 09E0                                 TCCR1B = 0x05;
                 ; 0000 09E1                                 //modRunning = MACHINE_RDY;
                 ; 0000 09E2                                 break;
                 ; 0000 09E3                             case 0x10 :
                 _0x3C8:
001d92 31e0      	CPI  R30,LOW(0x10)
001d93 e0a0      	LDI  R26,HIGH(0x10)
001d94 07fa      	CPC  R31,R26
001d95 f449      	BRNE _0x3D2
                 ; 0000 09E4                                 //     
                 ; 0000 09E5                                 BuzzerOn();
001d96 940e 2da7 	CALL SUBOPT_0xCE
                 ; 0000 09E6                                 delay_ms(200);
                 ; 0000 09E7 
                 ; 0000 09E8                                 //plc_prt_value |= INTER_LOCK_ON;
                 ; 0000 09E9                                 //PLC_CON = plc_prt_value;
                 ; 0000 09EA                                 InterLockCnt = 0;
001d98 e0e0      	LDI  R30,LOW(0)
001d99 93e0 1c61 	STS  _InterLockCnt,R30
                 ; 0000 09EB                                 InterLockON = 1;
001d9b e0e1      	LDI  R30,LOW(1)
001d9c 93e0 1c60 	STS  _InterLockON,R30
                 ; 0000 09EC                                 break;
001d9e c146      	RJMP _0x3C1
                 ; 0000 09ED                             case 0x0A : case 0x0B: case 0x0C: case 0x0D: case 0x0E: case 0x0F:  //Measure Test
                 _0x3D2:
001d9f 30ea      	CPI  R30,LOW(0xA)
001da0 e0a0      	LDI  R26,HIGH(0xA)
001da1 07fa      	CPC  R31,R26
001da2 f021      	BREQ _0x3D4
001da3 30eb      	CPI  R30,LOW(0xB)
001da4 e0a0      	LDI  R26,HIGH(0xB)
001da5 07fa      	CPC  R31,R26
001da6 f409      	BRNE _0x3D5
                 _0x3D4:
001da7 c004      	RJMP _0x3D6
                 _0x3D5:
001da8 30ec      	CPI  R30,LOW(0xC)
001da9 e0a0      	LDI  R26,HIGH(0xC)
001daa 07fa      	CPC  R31,R26
001dab f409      	BRNE _0x3D7
                 _0x3D6:
001dac c004      	RJMP _0x3D8
                 _0x3D7:
001dad 30ed      	CPI  R30,LOW(0xD)
001dae e0a0      	LDI  R26,HIGH(0xD)
001daf 07fa      	CPC  R31,R26
001db0 f409      	BRNE _0x3D9
                 _0x3D8:
001db1 c004      	RJMP _0x3DA
                 _0x3D9:
001db2 30ee      	CPI  R30,LOW(0xE)
001db3 e0a0      	LDI  R26,HIGH(0xE)
001db4 07fa      	CPC  R31,R26
001db5 f409      	BRNE _0x3DB
                 _0x3DA:
001db6 c005      	RJMP _0x3DC
                 _0x3DB:
001db7 30ef      	CPI  R30,LOW(0xF)
001db8 e0a0      	LDI  R26,HIGH(0xF)
001db9 07fa      	CPC  R31,R26
001dba f009      	BREQ PC+2
001dbb c044      	RJMP _0x3DD
                 _0x3DC:
                 ; 0000 09EE                                 //modRunning = MACHINE_RDY;
                 ; 0000 09EF                                 led_buz_value |= LED_RUN_STOP;
001dbc 940e 28ca 	CALL SUBOPT_0x27
                 ; 0000 09F0                                 LED_BUZ = led_buz_value;
                 ; 0000 09F1 
                 ; 0000 09F2                                 TxBuffer[0] = 0x02;
001dbe 940e 2a90 	CALL SUBOPT_0x5F
                 ; 0000 09F3                                 TxBuffer[1] = 0x00;
                 ; 0000 09F4                                 TxBuffer[2] = 0x02;
001dc0 940e 2a6a 	CALL SUBOPT_0x5B
                 ; 0000 09F5                                 TxBuffer[3] = CMD_START;
                 ; 0000 09F6                                 TxBuffer[4] = RxBuffer[1];
                +
001dc2 91e0 142d+LDS R30 , _RxBuffer + ( 1 )
                 	__GETB1MN _RxBuffer,1
001dc4 940e 2a98 	CALL SUBOPT_0x60
                 ; 0000 09F7                                 TxBuffer[5] = 0x03;
                 ; 0000 09F8                                 TxEnable = 1;   txcnt = 1;  TxLength = 6;   UDR1 = TxBuffer[0];
001dc6 940e 2d86 	CALL SUBOPT_0xC9
                 ; 0000 09F9 
                 ; 0000 09FA                                 BuzzerOn();
001dc8 940e 2da7 	CALL SUBOPT_0xCE
                 ; 0000 09FB                                 delay_ms(200);
                 ; 0000 09FC 
                 ; 0000 09FD                                 for(lcnt=0;lcnt<600;lcnt++){
001dca e0e0      	LDI  R30,LOW(0)
001dcb 87e8      	STD  Y+8,R30
001dcc 87e9      	STD  Y+8+1,R30
                 _0x3DF:
001dcd 85a8      	LDD  R26,Y+8
001dce 85b9      	LDD  R27,Y+8+1
001dcf 35a8      	CPI  R26,LOW(0x258)
001dd0 e0e2      	LDI  R30,HIGH(0x258)
001dd1 07be      	CPC  R27,R30
001dd2 f458      	BRSH _0x3E0
                 ; 0000 09FE                                     ad_full_scan[lcnt] = 0;
001dd3 85e8      	LDD  R30,Y+8
001dd4 85f9      	LDD  R31,Y+8+1
001dd5 e5a4      	LDI  R26,LOW(_ad_full_scan)
001dd6 e0bf      	LDI  R27,HIGH(_ad_full_scan)
001dd7 940e 2815 	CALL SUBOPT_0xB
001dd9 940e 29c0 	CALL SUBOPT_0x42
                 ; 0000 09FF                                 }
001ddb 940e 2e07 	CALL SUBOPT_0xDE
001ddd cfef      	RJMP _0x3DF
                 _0x3E0:
                 ; 0000 0A00                                 LifeTime_Run = 1;
001dde e0e1      	LDI  R30,LOW(1)
001ddf 93e0 1c6c 	STS  _LifeTime_Run,R30
                 ; 0000 0A01                                 modRunning = MEASURE_AD;
001de1 e0e2      	LDI  R30,LOW(2)
001de2 2eae      	MOV  R10,R30
                 ; 0000 0A02                                 scan_ad_ch = RxBuffer[1] - 0x0A;
                +
001de3 91e0 142d+LDS R30 , _RxBuffer + ( 1 )
                 	__GETB1MN _RxBuffer,1
001de5 50ea      	SUBI R30,LOW(10)
001de6 2eee      	MOV  R14,R30
                 ; 0000 0A03                                 cur_z_phase_cnt =0; phase_a_cnt = 0;   phase_z_cnt=0;    max_scan_val=0;       max_scan_ ...
001de7 e0e0      	LDI  R30,LOW(0)
001de8 93e0 0f22 	STS  _cur_z_phase_cnt,R30
001dea 93e0 0f23 	STS  _cur_z_phase_cnt+1,R30
001dec 940e 28ee 	CALL SUBOPT_0x2B
001dee e0e0      	LDI  R30,LOW(0)
001def 940e 2dee 	CALL SUBOPT_0xDA
001df1 93e0 0ee4 	STS  _max_scan_val,R30
001df3 93e0 0ee5 	STS  _max_scan_val+1,R30
001df5 e0e0      	LDI  R30,LOW(0)
001df6 93e0 0ee8 	STS  _max_scan_cnt,R30
001df8 93e0 0ee9 	STS  _max_scan_cnt+1,R30
                 ; 0000 0A04                                 plc_prt_value |= MACHINE_START;
001dfa 91e0 0ee1 	LDS  R30,_plc_prt_value
001dfc 60e1      	ORI  R30,1
001dfd 940e 28d2 	CALL SUBOPT_0x28
                 ; 0000 0A05                                 PLC_CON = plc_prt_value;
                 ; 0000 0A06 
                 ; 0000 0A07                                 break;
001dff c0e5      	RJMP _0x3C1
                 ; 0000 0A08                             case 0x05 :                 //MACHINE STOP
                 _0x3DD:
001e00 30e5      	CPI  R30,LOW(0x5)
001e01 e0a0      	LDI  R26,HIGH(0x5)
001e02 07fa      	CPC  R31,R26
001e03 f439      	BRNE _0x3E1
                 ; 0000 0A09                                 EVENT_ENABLE = 1;
001e04 940e 28c4 	CALL SUBOPT_0x26
                 ; 0000 0A0A                                 SpeedAdjEnable = 1;
                 ; 0000 0A0B                                 accel_rdy = 0;
001e06 940e 2887 	CALL SUBOPT_0x1E
                 ; 0000 0A0C                                 deaccel_rdy = 1;
001e08 93e0 2043 	STS  _deaccel_rdy,R30
                 ; 0000 0A0D                                 break;
001e0a c0da      	RJMP _0x3C1
                 ; 0000 0A0E                             case 0xB0 :                 // ON
                 _0x3E1:
001e0b 3be0      	CPI  R30,LOW(0xB0)
001e0c e0a0      	LDI  R26,HIGH(0xB0)
001e0d 07fa      	CPC  R31,R26
001e0e f441      	BRNE _0x3E2
                 ; 0000 0A0F                                 BuzzerOn();
001e0f 940e 2da7 	CALL SUBOPT_0xCE
                 ; 0000 0A10                                 delay_ms(200);
                 ; 0000 0A11                                 plc_prt_value |= WASHER_ON;
001e11 91e0 0ee1 	LDS  R30,_plc_prt_value
001e13 60e4      	ORI  R30,4
001e14 940e 28d2 	CALL SUBOPT_0x28
                 ; 0000 0A12                                 PLC_CON = plc_prt_value;
                 ; 0000 0A13                                 break;
001e16 c0ce      	RJMP _0x3C1
                 ; 0000 0A14                             case 0xB1 :                 // OFF
                 _0x3E2:
001e17 3be1      	CPI  R30,LOW(0xB1)
001e18 e0a0      	LDI  R26,HIGH(0xB1)
001e19 07fa      	CPC  R31,R26
001e1a f441      	BRNE _0x3E3
                 ; 0000 0A15                                 BuzzerOn();
001e1b 940e 2da7 	CALL SUBOPT_0xCE
                 ; 0000 0A16                                 delay_ms(200);
                 ; 0000 0A17                                 plc_prt_value &= ~WASHER_ON;
001e1d 91e0 0ee1 	LDS  R30,_plc_prt_value
001e1f 7feb      	ANDI R30,0xFB
001e20 940e 28d2 	CALL SUBOPT_0x28
                 ; 0000 0A18                                 PLC_CON = plc_prt_value;
                 ; 0000 0A19                                 break;
001e22 c0c2      	RJMP _0x3C1
                 ; 0000 0A1A                             case 0xC0 :                 //  ON
                 _0x3E3:
001e23 3ce0      	CPI  R30,LOW(0xC0)
001e24 e0a0      	LDI  R26,HIGH(0xC0)
001e25 07fa      	CPC  R31,R26
001e26 f441      	BRNE _0x3E4
                 ; 0000 0A1B                                 BuzzerOn();
001e27 940e 2da7 	CALL SUBOPT_0xCE
                 ; 0000 0A1C                                 delay_ms(200);
                 ; 0000 0A1D                                 plc_prt_value |= BROWA_ON;
001e29 91e0 0ee1 	LDS  R30,_plc_prt_value
001e2b 60e8      	ORI  R30,8
001e2c 940e 28d2 	CALL SUBOPT_0x28
                 ; 0000 0A1E                                 PLC_CON = plc_prt_value;
                 ; 0000 0A1F                                 break;
001e2e c0b6      	RJMP _0x3C1
                 ; 0000 0A20                             case 0xC1 :                 // OFF
                 _0x3E4:
001e2f 3ce1      	CPI  R30,LOW(0xC1)
001e30 e0a0      	LDI  R26,HIGH(0xC1)
001e31 07fa      	CPC  R31,R26
001e32 f441      	BRNE _0x3E5
                 ; 0000 0A21                                 BuzzerOn();
001e33 940e 2da7 	CALL SUBOPT_0xCE
                 ; 0000 0A22                                 delay_ms(200);
                 ; 0000 0A23                                 plc_prt_value &= ~BROWA_ON;
001e35 91e0 0ee1 	LDS  R30,_plc_prt_value
001e37 7fe7      	ANDI R30,0XF7
001e38 940e 28d2 	CALL SUBOPT_0x28
                 ; 0000 0A24                                 PLC_CON = plc_prt_value;
                 ; 0000 0A25                                 break;
001e3a c0aa      	RJMP _0x3C1
                 ; 0000 0A26                             case 0xA0 :     //  Clear
                 _0x3E5:
001e3b 3ae0      	CPI  R30,LOW(0xA0)
001e3c e0a0      	LDI  R26,HIGH(0xA0)
001e3d 07fa      	CPC  R31,R26
001e3e f531      	BRNE _0x3E6
                 ; 0000 0A27                                 MACHINE_DATA_CLEAR();
001e3f ddfa      	RCALL _MACHINE_DATA_CLEAR
                 ; 0000 0A28 
                 ; 0000 0A29                                 for(lcnt=0;lcnt<9;lcnt++){
001e40 e0e0      	LDI  R30,LOW(0)
001e41 87e8      	STD  Y+8,R30
001e42 87e9      	STD  Y+8+1,R30
                 _0x3E8:
001e43 85a8      	LDD  R26,Y+8
001e44 85b9      	LDD  R27,Y+8+1
001e45 9719      	SBIW R26,9
001e46 f498      	BRSH _0x3E9
                 ; 0000 0A2A                                     if(old_prttype[lcnt] != PRT_TYPE_NO){
001e47 85e8      	LDD  R30,Y+8
001e48 85f9      	LDD  R31,Y+8+1
001e49 57e2      	SUBI R30,LOW(-_old_prttype)
001e4a 4ef1      	SBCI R31,HIGH(-_old_prttype)
001e4b 81e0      	LD   R30,Z
001e4c 30e0      	CPI  R30,0
001e4d f049      	BREQ _0x3EA
                 ; 0000 0A2B                                         GRADE_INFO[lcnt].prttype = old_prttype[lcnt];
001e4e 940e 2e0d 	CALL SUBOPT_0xDF
001e50 01df      	MOVW R26,R30
001e51 85e8      	LDD  R30,Y+8
001e52 85f9      	LDD  R31,Y+8+1
001e53 57e2      	SUBI R30,LOW(-_old_prttype)
001e54 4ef1      	SBCI R31,HIGH(-_old_prttype)
001e55 81e0      	LD   R30,Z
001e56 93ec      	ST   X,R30
                 ; 0000 0A2C                                     }
                 ; 0000 0A2D                                 }
                 _0x3EA:
001e57 940e 2e07 	CALL SUBOPT_0xDE
001e59 cfe9      	RJMP _0x3E8
                 _0x3E9:
                 ; 0000 0A2E 
                 ; 0000 0A2F                                 TxBuffer[0] = 0x02;
001e5a 940e 2a90 	CALL SUBOPT_0x5F
                 ; 0000 0A30                                 TxBuffer[1] = 0x00;
                 ; 0000 0A31                                 TxBuffer[2] = 0x02;
001e5c 940e 2a6a 	CALL SUBOPT_0x5B
                 ; 0000 0A32                                 TxBuffer[3] = CMD_START;
                 ; 0000 0A33                                 TxBuffer[4] = 0x0F;
001e5e e0ef      	LDI  R30,LOW(15)
001e5f 940e 2a98 	CALL SUBOPT_0x60
                 ; 0000 0A34                                 TxBuffer[5] = 0x03;
                 ; 0000 0A35                                 TxEnable = 1;   txcnt = 1;  TxLength = 6;   UDR1 = TxBuffer[0];
001e61 940e 2d86 	CALL SUBOPT_0xC9
                 ; 0000 0A36                                 BuzzerOn();
001e63 d9c6      	RCALL _BuzzerOn
                 ; 0000 0A37                                 break;
001e64 c080      	RJMP _0x3C1
                 ; 0000 0A38                             //    ::  1    
                 ; 0000 0A39                             //     
                 ; 0000 0A3A                             case 0xE0 : case 0xE1 : case 0xE2 : case 0xE3 : case 0xE4 : case 0xE5 : case 0xE6 : case 0xE ...
                 _0x3E6:
001e65 3ee0      	CPI  R30,LOW(0xE0)
001e66 e0a0      	LDI  R26,HIGH(0xE0)
001e67 07fa      	CPC  R31,R26
001e68 f021      	BREQ _0x3EC
001e69 3ee1      	CPI  R30,LOW(0xE1)
001e6a e0a0      	LDI  R26,HIGH(0xE1)
001e6b 07fa      	CPC  R31,R26
001e6c f409      	BRNE _0x3ED
                 _0x3EC:
001e6d c004      	RJMP _0x3EE
                 _0x3ED:
001e6e 3ee2      	CPI  R30,LOW(0xE2)
001e6f e0a0      	LDI  R26,HIGH(0xE2)
001e70 07fa      	CPC  R31,R26
001e71 f409      	BRNE _0x3EF
                 _0x3EE:
001e72 c004      	RJMP _0x3F0
                 _0x3EF:
001e73 3ee3      	CPI  R30,LOW(0xE3)
001e74 e0a0      	LDI  R26,HIGH(0xE3)
001e75 07fa      	CPC  R31,R26
001e76 f409      	BRNE _0x3F1
                 _0x3F0:
001e77 c004      	RJMP _0x3F2
                 _0x3F1:
001e78 3ee4      	CPI  R30,LOW(0xE4)
001e79 e0a0      	LDI  R26,HIGH(0xE4)
001e7a 07fa      	CPC  R31,R26
001e7b f409      	BRNE _0x3F3
                 _0x3F2:
001e7c c004      	RJMP _0x3F4
                 _0x3F3:
001e7d 3ee5      	CPI  R30,LOW(0xE5)
001e7e e0a0      	LDI  R26,HIGH(0xE5)
001e7f 07fa      	CPC  R31,R26
001e80 f409      	BRNE _0x3F5
                 _0x3F4:
001e81 c004      	RJMP _0x3F6
                 _0x3F5:
001e82 3ee6      	CPI  R30,LOW(0xE6)
001e83 e0a0      	LDI  R26,HIGH(0xE6)
001e84 07fa      	CPC  R31,R26
001e85 f409      	BRNE _0x3F7
                 _0x3F6:
001e86 c004      	RJMP _0x3F8
                 _0x3F7:
001e87 3ee7      	CPI  R30,LOW(0xE7)
001e88 e0a0      	LDI  R26,HIGH(0xE7)
001e89 07fa      	CPC  R31,R26
001e8a f409      	BRNE _0x3F9
                 _0x3F8:
001e8b c004      	RJMP _0x3FA
                 _0x3F9:
001e8c 3ee8      	CPI  R30,LOW(0xE8)
001e8d e0a0      	LDI  R26,HIGH(0xE8)
001e8e 07fa      	CPC  R31,R26
001e8f f429      	BRNE _0x3FB
                 _0x3FA:
                 ; 0000 0A3B                                 SolenoidTestType = 0;
001e90 2433      	CLR  R3
                 ; 0000 0A3C                                 TestGrade = RxBuffer[1] - 0xE0;
                +
001e91 91e0 142d+LDS R30 , _RxBuffer + ( 1 )
                 	__GETB1MN _RxBuffer,1
001e93 5ee0      	SUBI R30,LOW(224)
001e94 c030      	RJMP _0x4D7
                 ; 0000 0A3D 
                 ; 0000 0A3E                                 MACHINE_DATA_CLEAR();
                 ; 0000 0A3F                                 led_buz_value |= LED_RUN_STOP;
                 ; 0000 0A40                                 LED_BUZ = led_buz_value;
                 ; 0000 0A41 
                 ; 0000 0A42                                 TxBuffer[0] = 0x02;
                 ; 0000 0A43                                 TxBuffer[1] = 0x00;
                 ; 0000 0A44                                 TxBuffer[2] = 0x02;
                 ; 0000 0A45                                 TxBuffer[3] = CMD_START;
                 ; 0000 0A46                                 TxBuffer[4] = RxBuffer[1];
                 ; 0000 0A47                                 TxBuffer[5] = 0x03;
                 ; 0000 0A48                                 TxEnable = 1;   txcnt = 1;  TxLength = 6;   UDR1 = TxBuffer[0];
                 ; 0000 0A49 
                 ; 0000 0A4A                                 BuzzerOn();
                 ; 0000 0A4B                                 delay_ms(200);
                 ; 0000 0A4C 
                 ; 0000 0A4D                                 modRunning = SOLENOID_TEST;
                 ; 0000 0A4E                                 phase_z_cnt=0;
                 ; 0000 0A4F                                 TimerMode = tmrSPEED;
                 ; 0000 0A50                                 plc_prt_value |= MACHINE_START;
                 ; 0000 0A51                                 PLC_CON = plc_prt_value;
                 ; 0000 0A52                                 //Timer Start
                 ; 0000 0A53                                 OCR1AH=0x00;        OCR1AL=0x4E;        //20msec /1024 prescaler
                 ; 0000 0A54                                 TCCR1B = 0x05;
                 ; 0000 0A55 
                 ; 0000 0A56                                 break;
                 ; 0000 0A57                             //    ::  6     
                 ; 0000 0A58                             //  ON/OFF  
                 ; 0000 0A59                             case 0xF0 : case 0xF1 : case 0xF2 : case 0xF3 : case 0xF4 : case 0xF5 : case 0xF6 : case 0xF ...
                 _0x3FB:
001e95 3fe0      	CPI  R30,LOW(0xF0)
001e96 e0a0      	LDI  R26,HIGH(0xF0)
001e97 07fa      	CPC  R31,R26
001e98 f021      	BREQ _0x3FD
001e99 3fe1      	CPI  R30,LOW(0xF1)
001e9a e0a0      	LDI  R26,HIGH(0xF1)
001e9b 07fa      	CPC  R31,R26
001e9c f409      	BRNE _0x3FE
                 _0x3FD:
001e9d c004      	RJMP _0x3FF
                 _0x3FE:
001e9e 3fe2      	CPI  R30,LOW(0xF2)
001e9f e0a0      	LDI  R26,HIGH(0xF2)
001ea0 07fa      	CPC  R31,R26
001ea1 f409      	BRNE _0x400
                 _0x3FF:
001ea2 c004      	RJMP _0x401
                 _0x400:
001ea3 3fe3      	CPI  R30,LOW(0xF3)
001ea4 e0a0      	LDI  R26,HIGH(0xF3)
001ea5 07fa      	CPC  R31,R26
001ea6 f409      	BRNE _0x402
                 _0x401:
001ea7 c004      	RJMP _0x403
                 _0x402:
001ea8 3fe4      	CPI  R30,LOW(0xF4)
001ea9 e0a0      	LDI  R26,HIGH(0xF4)
001eaa 07fa      	CPC  R31,R26
001eab f409      	BRNE _0x404
                 _0x403:
001eac c004      	RJMP _0x405
                 _0x404:
001ead 3fe5      	CPI  R30,LOW(0xF5)
001eae e0a0      	LDI  R26,HIGH(0xF5)
001eaf 07fa      	CPC  R31,R26
001eb0 f409      	BRNE _0x406
                 _0x405:
001eb1 c004      	RJMP _0x407
                 _0x406:
001eb2 3fe6      	CPI  R30,LOW(0xF6)
001eb3 e0a0      	LDI  R26,HIGH(0xF6)
001eb4 07fa      	CPC  R31,R26
001eb5 f409      	BRNE _0x408
                 _0x407:
001eb6 c004      	RJMP _0x409
                 _0x408:
001eb7 3fe7      	CPI  R30,LOW(0xF7)
001eb8 e0a0      	LDI  R26,HIGH(0xF7)
001eb9 07fa      	CPC  R31,R26
001eba f409      	BRNE _0x40A
                 _0x409:
001ebb c004      	RJMP _0x40B
                 _0x40A:
001ebc 3fe8      	CPI  R30,LOW(0xF8)
001ebd e0a0      	LDI  R26,HIGH(0xF8)
001ebe 07fa      	CPC  R31,R26
001ebf f529      	BRNE _0x3C1
                 _0x40B:
                 ; 0000 0A5A                                 SolenoidTestType = 1;
001ec0 e0e1      	LDI  R30,LOW(1)
001ec1 2e3e      	MOV  R3,R30
                 ; 0000 0A5B                                 TestGrade = RxBuffer[1] - 0xF0;
                +
001ec2 91e0 142d+LDS R30 , _RxBuffer + ( 1 )
                 	__GETB1MN _RxBuffer,1
001ec4 5fe0      	SUBI R30,LOW(240)
                 _0x4D7:
001ec5 2e6e      	MOV  R6,R30
                 ; 0000 0A5C 
                 ; 0000 0A5D                                 MACHINE_DATA_CLEAR();
001ec6 dd73      	RCALL _MACHINE_DATA_CLEAR
                 ; 0000 0A5E                                 led_buz_value |= LED_RUN_STOP;
001ec7 940e 28ca 	CALL SUBOPT_0x27
                 ; 0000 0A5F                                 LED_BUZ = led_buz_value;
                 ; 0000 0A60 
                 ; 0000 0A61                                 TxBuffer[0] = 0x02;
001ec9 940e 2a90 	CALL SUBOPT_0x5F
                 ; 0000 0A62                                 TxBuffer[1] = 0x00;
                 ; 0000 0A63                                 TxBuffer[2] = 0x02;
001ecb 940e 2a6a 	CALL SUBOPT_0x5B
                 ; 0000 0A64                                 TxBuffer[3] = CMD_START;
                 ; 0000 0A65                                 TxBuffer[4] = RxBuffer[1];
                +
001ecd 91e0 142d+LDS R30 , _RxBuffer + ( 1 )
                 	__GETB1MN _RxBuffer,1
001ecf 940e 2a98 	CALL SUBOPT_0x60
                 ; 0000 0A66                                 TxBuffer[5] = 0x03;
                 ; 0000 0A67                                 TxEnable = 1;   txcnt = 1;  TxLength = 6;   UDR1 = TxBuffer[0];
001ed1 940e 2d86 	CALL SUBOPT_0xC9
                 ; 0000 0A68 
                 ; 0000 0A69                                 BuzzerOn();
001ed3 940e 2da7 	CALL SUBOPT_0xCE
                 ; 0000 0A6A                                 delay_ms(200);
                 ; 0000 0A6B 
                 ; 0000 0A6C                                 modRunning = SOLENOID_TEST;
001ed5 e0e4      	LDI  R30,LOW(4)
001ed6 2eae      	MOV  R10,R30
                 ; 0000 0A6D                                 phase_z_cnt=0;
001ed7 e0e0      	LDI  R30,LOW(0)
001ed8 93e0 1428 	STS  _phase_z_cnt,R30
001eda 93e0 1429 	STS  _phase_z_cnt+1,R30
001edc 93e0 142a 	STS  _phase_z_cnt+2,R30
001ede 93e0 142b 	STS  _phase_z_cnt+3,R30
                 ; 0000 0A6E                                 TimerMode = tmrSPEED;
                 _0x4D6:
001ee0 e0e2      	LDI  R30,LOW(2)
001ee1 940e 2dfb 	CALL SUBOPT_0xDC
                 ; 0000 0A6F                                 plc_prt_value |= MACHINE_START;
                 ; 0000 0A70                                 PLC_CON = plc_prt_value;
                 ; 0000 0A71                                 //Timer Start
                 ; 0000 0A72                                 OCR1AH=0x00;        OCR1AL=0x4E;        //20msec /1024 prescaler
001ee3 940e 2898 	CALL SUBOPT_0x21
                 ; 0000 0A73                                 TCCR1B = 0x05;
                 ; 0000 0A74                                 break;
                 ; 0000 0A75                         }
                 _0x3C1:
                 ; 0000 0A76                         break;
001ee5 940c 27a9 	JMP  _0x3BD
                 ; 0000 0A77                     case CMD_SYSINFO : //0x20 ::   ,    
                 _0x3BE:
001ee7 32e0      	CPI  R30,LOW(0x20)
001ee8 e0a0      	LDI  R26,HIGH(0x20)
001ee9 07fa      	CPC  R31,R26
001eea f009      	BREQ PC+2
001eeb c1a8      	RJMP _0x40D
                 ; 0000 0A78                         switch(RxBuffer[1]){
001eec 940e 2db1 	CALL SUBOPT_0xD0
                 ; 0000 0A79                             case 0x01 :     //SAVE  DATA
001eee f009      	BREQ PC+2
001eef c0f0      	RJMP _0x411
                 ; 0000 0A7A                                 SYS_INFO.risingTime = RxBuffer[2] * 256;
                +
001ef0 91a0 142e+LDS R26 , _RxBuffer + ( 2 )
                 	__GETB2MN _RxBuffer,2
001ef2 940e 2db4 	CALL SUBOPT_0xD1
001ef4 940e 284a 	CALL SUBOPT_0x15
                 ; 0000 0A7B                                 SYS_INFO.risingTime |= RxBuffer[3];
                +
001ef6 91e0 142f+LDS R30 , _RxBuffer + ( 3 )
                 	__GETB1MN _RxBuffer,3
001ef8 91a0 0d1a 	LDS  R26,_SYS_INFO
001efa 91b0 0d1b 	LDS  R27,_SYS_INFO+1
001efc e0f0      	LDI  R31,0
001efd 2bea      	OR   R30,R26
001efe 2bfb      	OR   R31,R27
001eff 940e 284a 	CALL SUBOPT_0x15
                 ; 0000 0A7C                                 SYS_INFO.fallingTime = RxBuffer[4] * 256;
                +
001f01 91a0 1430+LDS R26 , _RxBuffer + ( 4 )
                 	__GETB2MN _RxBuffer,4
001f03 940e 2db4 	CALL SUBOPT_0xD1
001f05 940e 2845 	CALL SUBOPT_0x14
                 ; 0000 0A7D                                 SYS_INFO.fallingTime |= RxBuffer[5];
                +
001f07 91a0 0d1c+LDS R26 , _SYS_INFO + ( 2 )
001f09 91b0 0d1d+LDS R27 , _SYS_INFO + ( 2 ) + 1
                 	__GETW2MN _SYS_INFO,2
                +
001f0b 91e0 1431+LDS R30 , _RxBuffer + ( 5 )
                 	__GETB1MN _RxBuffer,5
001f0d e0f0      	LDI  R31,0
001f0e 2bea      	OR   R30,R26
001f0f 2bfb      	OR   R31,R27
001f10 940e 2845 	CALL SUBOPT_0x14
                 ; 0000 0A7E                                 SYS_INFO.correction = RxBuffer[6] * 256;
                +
001f12 91e0 1432+LDS R30 , _RxBuffer + ( 6 )
                 	__GETB1MN _RxBuffer,6
001f14 e0e0      	LDI  R30,LOW(0)
                +
001f15 93e0 0d1e+STS _SYS_INFO + ( 4 ) , R30
                 	__PUTB1MN _SYS_INFO,4
                 ; 0000 0A7F                                 SYS_INFO.correction |= RxBuffer[7];
                +
001f17 91a0 0d1e+LDS R26 , _SYS_INFO + ( 4 )
                 	__GETB2MN _SYS_INFO,4
                +
001f19 91e0 1433+LDS R30 , _RxBuffer + ( 7 )
                 	__GETB1MN _RxBuffer,7
001f1b 2bea      	OR   R30,R26
                +
001f1c 93e0 0d1e+STS _SYS_INFO + ( 4 ) , R30
                 	__PUTB1MN _SYS_INFO,4
                 ; 0000 0A80                                 SYS_INFO.stopcount = RxBuffer[8] * 256;
                +
001f1e 91a0 1434+LDS R26 , _RxBuffer + ( 8 )
                 	__GETB2MN _RxBuffer,8
001f20 940e 2db4 	CALL SUBOPT_0xD1
001f22 940e 284f 	CALL SUBOPT_0x16
                 ; 0000 0A81                                 SYS_INFO.stopcount |= RxBuffer[9];
                +
001f24 91a0 0d1f+LDS R26 , _SYS_INFO + ( 5 )
001f26 91b0 0d20+LDS R27 , _SYS_INFO + ( 5 ) + 1
                 	__GETW2MN _SYS_INFO,5
                +
001f28 91e0 1435+LDS R30 , _RxBuffer + ( 9 )
                 	__GETB1MN _RxBuffer,9
001f2a e0f0      	LDI  R31,0
001f2b 2bea      	OR   R30,R26
001f2c 2bfb      	OR   R31,R27
001f2d 940e 284f 	CALL SUBOPT_0x16
                 ; 0000 0A82                                 MEASURE_INFO.ad_start_pulse =RxBuffer[10] * 256;
                +
001f2f 91a0 1436+LDS R26 , _RxBuffer + ( 10 )
                 	__GETB2MN _RxBuffer,10
001f31 940e 2db4 	CALL SUBOPT_0xD1
001f33 940e 2827 	CALL SUBOPT_0xE
                 ; 0000 0A83                                 MEASURE_INFO.ad_start_pulse |= RxBuffer[11];
                +
001f35 91e0 1437+LDS R30 , _RxBuffer + ( 11 )
                 	__GETB1MN _RxBuffer,11
001f37 940e 29c5 	CALL SUBOPT_0x43
001f39 e0f0      	LDI  R31,0
001f3a 2bea      	OR   R30,R26
001f3b 2bfb      	OR   R31,R27
001f3c 940e 2827 	CALL SUBOPT_0xE
                 ; 0000 0A84                                 MEASURE_INFO.duringcount = RxBuffer[12] * 256;
                +
001f3e 91a0 1438+LDS R26 , _RxBuffer + ( 12 )
                 	__GETB2MN _RxBuffer,12
001f40 940e 2db4 	CALL SUBOPT_0xD1
001f42 940e 282c 	CALL SUBOPT_0xF
                 ; 0000 0A85                                 MEASURE_INFO.duringcount |= RxBuffer[13];
                +
001f44 91a0 0cfe+LDS R26 , _MEASURE_INFO + ( 2 )
001f46 91b0 0cff+LDS R27 , _MEASURE_INFO + ( 2 ) + 1
                 	__GETW2MN _MEASURE_INFO,2
                +
001f48 91e0 1439+LDS R30 , _RxBuffer + ( 13 )
                 	__GETB1MN _RxBuffer,13
001f4a e0f0      	LDI  R31,0
001f4b 2bea      	OR   R30,R26
001f4c 2bfb      	OR   R31,R27
001f4d 940e 282c 	CALL SUBOPT_0xF
                 ; 0000 0A86                                 MEASURE_INFO.zeroposition = RxBuffer[14] * 256;
                +
001f4f 91a0 143a+LDS R26 , _RxBuffer + ( 14 )
                 	__GETB2MN _RxBuffer,14
001f51 940e 2db4 	CALL SUBOPT_0xD1
001f53 940e 2840 	CALL SUBOPT_0x13
                 ; 0000 0A87                                 MEASURE_INFO.zeroposition |= RxBuffer[15];
                +
001f55 91a0 0d00+LDS R26 , _MEASURE_INFO + ( 4 )
001f57 91b0 0d01+LDS R27 , _MEASURE_INFO + ( 4 ) + 1
                 	__GETW2MN _MEASURE_INFO,4
                +
001f59 91e0 143b+LDS R30 , _RxBuffer + ( 15 )
                 	__GETB1MN _RxBuffer,15
001f5b e0f0      	LDI  R31,0
001f5c 2bea      	OR   R30,R26
001f5d 2bfb      	OR   R31,R27
001f5e 940e 2840 	CALL SUBOPT_0x13
                 ; 0000 0A88                                 MEASURE_INFO.crackchecktime = RxBuffer[16] * 256;
                +
001f60 91a0 143c+LDS R26 , _RxBuffer + ( 16 )
                 	__GETB2MN _RxBuffer,16
001f62 940e 2db4 	CALL SUBOPT_0xD1
001f64 940e 2831 	CALL SUBOPT_0x10
                 ; 0000 0A89                                 MEASURE_INFO.crackchecktime |= RxBuffer[17];
                +
001f66 91a0 0d02+LDS R26 , _MEASURE_INFO + ( 6 )
001f68 91b0 0d03+LDS R27 , _MEASURE_INFO + ( 6 ) + 1
                 	__GETW2MN _MEASURE_INFO,6
                +
001f6a 91e0 143d+LDS R30 , _RxBuffer + ( 17 )
                 	__GETB1MN _RxBuffer,17
001f6c e0f0      	LDI  R31,0
001f6d 2bea      	OR   R30,R26
001f6e 2bfb      	OR   R31,R27
001f6f 940e 2831 	CALL SUBOPT_0x10
                 ; 0000 0A8A                                 MEASURE_INFO.abnCheckSTime = RxBuffer[18] * 256;
                +
001f71 91a0 143e+LDS R26 , _RxBuffer + ( 18 )
                 	__GETB2MN _RxBuffer,18
001f73 940e 2db4 	CALL SUBOPT_0xD1
001f75 940e 2836 	CALL SUBOPT_0x11
                 ; 0000 0A8B                                 MEASURE_INFO.abnCheckSTime |= RxBuffer[19];
                +
001f77 91a0 0d04+LDS R26 , _MEASURE_INFO + ( 8 )
001f79 91b0 0d05+LDS R27 , _MEASURE_INFO + ( 8 ) + 1
                 	__GETW2MN _MEASURE_INFO,8
                +
001f7b 91e0 143f+LDS R30 , _RxBuffer + ( 19 )
                 	__GETB1MN _RxBuffer,19
001f7d e0f0      	LDI  R31,0
001f7e 2bea      	OR   R30,R26
001f7f 2bfb      	OR   R31,R27
001f80 940e 2836 	CALL SUBOPT_0x11
                 ; 0000 0A8C                                 MEASURE_INFO.abnCheckETime = RxBuffer[20] * 256;
                +
001f82 91a0 1440+LDS R26 , _RxBuffer + ( 20 )
                 	__GETB2MN _RxBuffer,20
001f84 940e 2db4 	CALL SUBOPT_0xD1
001f86 940e 283b 	CALL SUBOPT_0x12
                 ; 0000 0A8D                                 MEASURE_INFO.abnCheckETime |= RxBuffer[21];
                +
001f88 91a0 0d06+LDS R26 , _MEASURE_INFO + ( 10 )
001f8a 91b0 0d07+LDS R27 , _MEASURE_INFO + ( 10 ) + 1
                 	__GETW2MN _MEASURE_INFO,10
                +
001f8c 91e0 1441+LDS R30 , _RxBuffer + ( 21 )
                 	__GETB1MN _RxBuffer,21
001f8e e0f0      	LDI  R31,0
001f8f 2bea      	OR   R30,R26
001f90 2bfb      	OR   R31,R27
001f91 940e 283b 	CALL SUBOPT_0x12
                 ; 0000 0A8E                                 SYS_INFO.z_encoder_interval = RxBuffer[22] * 256;
                +
001f93 91a0 1442+LDS R26 , _RxBuffer + ( 22 )
                 	__GETB2MN _RxBuffer,22
001f95 940e 2db4 	CALL SUBOPT_0xD1
                +
001f97 93e0 0d21+STS _SYS_INFO + ( 7 ) , R30
001f99 93f0 0d22+STS _SYS_INFO + ( 7 ) + 1 , R31
                 	__PUTW1MN _SYS_INFO,7
                 ; 0000 0A8F                                 SYS_INFO.z_encoder_interval |= RxBuffer[23] ;
001f9b 940e 2d37 	CALL SUBOPT_0xBD
                +
001f9d 91e0 1443+LDS R30 , _RxBuffer + ( 23 )
                 	__GETB1MN _RxBuffer,23
001f9f e0f0      	LDI  R31,0
001fa0 2bea      	OR   R30,R26
001fa1 2bfb      	OR   R31,R27
                +
001fa2 93e0 0d21+STS _SYS_INFO + ( 7 ) , R30
001fa4 93f0 0d22+STS _SYS_INFO + ( 7 ) + 1 , R31
                 	__PUTW1MN _SYS_INFO,7
                 ; 0000 0A90                                 SYS_INFO.DeAccelDelayCount = RxBuffer[24] * 256;
                +
001fa6 91a0 1444+LDS R26 , _RxBuffer + ( 24 )
                 	__GETB2MN _RxBuffer,24
001fa8 940e 2db4 	CALL SUBOPT_0xD1
                +
001faa 93e0 0d27+STS _SYS_INFO + ( 13 ) , R30
001fac 93f0 0d28+STS _SYS_INFO + ( 13 ) + 1 , R31
                 	__PUTW1MN _SYS_INFO,13
                 ; 0000 0A91                                 SYS_INFO.DeAccelDelayCount |= RxBuffer[25];
                +
001fae 91a0 0d27+LDS R26 , _SYS_INFO + ( 13 )
001fb0 91b0 0d28+LDS R27 , _SYS_INFO + ( 13 ) + 1
                 	__GETW2MN _SYS_INFO,13
                +
001fb2 91e0 1445+LDS R30 , _RxBuffer + ( 25 )
                 	__GETB1MN _RxBuffer,25
001fb4 e0f0      	LDI  R31,0
001fb5 2bea      	OR   R30,R26
001fb6 2bfb      	OR   R31,R27
                +
001fb7 93e0 0d27+STS _SYS_INFO + ( 13 ) , R30
001fb9 93f0 0d28+STS _SYS_INFO + ( 13 ) + 1 , R31
                 	__PUTW1MN _SYS_INFO,13
                 ; 0000 0A92                                 SYS_INFO.DeAccelDelayTime = RxBuffer[26] * 256;
                +
001fbb 91a0 1446+LDS R26 , _RxBuffer + ( 26 )
                 	__GETB2MN _RxBuffer,26
001fbd 940e 2db4 	CALL SUBOPT_0xD1
                +
001fbf 93e0 0d29+STS _SYS_INFO + ( 15 ) , R30
001fc1 93f0 0d2a+STS _SYS_INFO + ( 15 ) + 1 , R31
                 	__PUTW1MN _SYS_INFO,15
                 ; 0000 0A93                                 SYS_INFO.DeAccelDelayTime |= RxBuffer[27];
                +
001fc3 91a0 0d29+LDS R26 , _SYS_INFO + ( 15 )
001fc5 91b0 0d2a+LDS R27 , _SYS_INFO + ( 15 ) + 1
                 	__GETW2MN _SYS_INFO,15
                +
001fc7 91e0 1447+LDS R30 , _RxBuffer + ( 27 )
                 	__GETB1MN _RxBuffer,27
001fc9 e0f0      	LDI  R31,0
001fca 2bea      	OR   R30,R26
001fcb 2bfb      	OR   R31,R27
                +
001fcc 93e0 0d29+STS _SYS_INFO + ( 15 ) , R30
001fce 93f0 0d2a+STS _SYS_INFO + ( 15 ) + 1 , R31
                 	__PUTW1MN _SYS_INFO,15
                 ; 0000 0A94                                 SYS_INFO.ACD_CHK_POS = RxBuffer[28];
                +
001fd0 91e0 1448+LDS R30 , _RxBuffer + ( 28 )
                 	__GETB1MN _RxBuffer,28
                +
001fd2 93e0 0d2b+STS _SYS_INFO + ( 17 ) , R30
                 	__PUTB1MN _SYS_INFO,17
                 ; 0000 0A95 
                 ; 0000 0A96                                 //Save the Flash Memory
                 ; 0000 0A97                                 PUT_USR_INFO_DATA(MEASURE_INFO_DATA);
001fd4 e0af      	LDI  R26,LOW(15)
001fd5 e0b0      	LDI  R27,0
001fd6 940e 04d4 	CALL _PUT_USR_INFO_DATA
                 ; 0000 0A98                                 PUT_USR_INFO_DATA(SYS_INFO_DATA);
001fd8 e1a1      	LDI  R26,LOW(17)
001fd9 e0b0      	LDI  R27,0
001fda 940e 04d4 	CALL _PUT_USR_INFO_DATA
                 ; 0000 0A99 
                 ; 0000 0A9A                                 ETC_PARAMETER_SETTING();
001fdc 940e 16c2 	CALL _ETC_PARAMETER_SETTING
                 ; 0000 0A9B 
                 ; 0000 0A9C                                 BuzzerOn();
001fde d84b      	RCALL _BuzzerOn
                 ; 0000 0A9D                                 break;
001fdf c0b3      	RJMP _0x410
                 ; 0000 0A9E                             case 0x02 :     //LOAD DATA
                 _0x411:
001fe0 30e2      	CPI  R30,LOW(0x2)
001fe1 e0a0      	LDI  R26,HIGH(0x2)
001fe2 07fa      	CPC  R31,R26
001fe3 f009      	BREQ PC+2
001fe4 c0ae      	RJMP _0x412
                 ; 0000 0A9F                                 TxBuffer[0] = 0x02;
001fe5 940e 2dbf 	CALL SUBOPT_0xD3
                 ; 0000 0AA0                                 TxBuffer[1] = 0;
                 ; 0000 0AA1                                 TxBuffer[2] = 29;
001fe7 e1ed      	LDI  R30,LOW(29)
                +
001fe8 93e0 1622+STS _TxBuffer + ( 2 ) , R30
                 	__PUTB1MN _TxBuffer,2
                 ; 0000 0AA2                                 TxBuffer[3] = 0x20;
001fea e2e0      	LDI  R30,LOW(32)
001feb 940e 2e10 	CALL SUBOPT_0xE0
                 ; 0000 0AA3                                 TxBuffer[4] = 0x02;
                 ; 0000 0AA4                                 TxBuffer[5] = SYS_INFO.risingTime >> 8;
001fed 91e0 0d1a 	LDS  R30,_SYS_INFO
001fef 91f0 0d1b 	LDS  R31,_SYS_INFO+1
001ff1 940e 306d 	CALL __ASRW8
                +
001ff3 93e0 1625+STS _TxBuffer + ( 5 ) , R30
                 	__PUTB1MN _TxBuffer,5
                 ; 0000 0AA5                                 TxBuffer[6] = SYS_INFO.risingTime & 0xFF;
001ff5 91e0 0d1a 	LDS  R30,_SYS_INFO
                +
001ff7 93e0 1626+STS _TxBuffer + ( 6 ) , R30
                 	__PUTB1MN _TxBuffer,6
                 ; 0000 0AA6                                 TxBuffer[7] = SYS_INFO.fallingTime >> 8;
                +
001ff9 91e0 0d1c+LDS R30 , _SYS_INFO + ( 2 )
001ffb 91f0 0d1d+LDS R31 , _SYS_INFO + ( 2 ) + 1
                 	__GETW1MN _SYS_INFO,2
001ffd 940e 306d 	CALL __ASRW8
                +
001fff 93e0 1627+STS _TxBuffer + ( 7 ) , R30
                 	__PUTB1MN _TxBuffer,7
                 ; 0000 0AA7                                 TxBuffer[8] = SYS_INFO.fallingTime & 0xFF;
                +
002001 91e0 0d1c+LDS R30 , _SYS_INFO + ( 2 )
                 	__GETB1MN _SYS_INFO,2
                +
002003 93e0 1628+STS _TxBuffer + ( 8 ) , R30
                 	__PUTB1MN _TxBuffer,8
                 ; 0000 0AA8                                 TxBuffer[9] = SYS_INFO.correction >> 8;
                +
002005 91a0 0d1e+LDS R26 , _SYS_INFO + ( 4 )
                 	__GETB2MN _SYS_INFO,4
002007 e0e8      	LDI  R30,LOW(8)
002008 940e 304e 	CALL __LSRB12
                +
00200a 93e0 1629+STS _TxBuffer + ( 9 ) , R30
                 	__PUTB1MN _TxBuffer,9
                 ; 0000 0AA9                                 TxBuffer[10] = SYS_INFO.correction & 0xFF;
                +
00200c 91e0 0d1e+LDS R30 , _SYS_INFO + ( 4 )
                 	__GETB1MN _SYS_INFO,4
                +
00200e 93e0 162a+STS _TxBuffer + ( 10 ) , R30
                 	__PUTB1MN _TxBuffer,10
                 ; 0000 0AAA                                 TxBuffer[11] = SYS_INFO.stopcount >> 8;
                +
002010 91e0 0d1f+LDS R30 , _SYS_INFO + ( 5 )
002012 91f0 0d20+LDS R31 , _SYS_INFO + ( 5 ) + 1
                 	__GETW1MN _SYS_INFO,5
002014 940e 306d 	CALL __ASRW8
                +
002016 93e0 162b+STS _TxBuffer + ( 11 ) , R30
                 	__PUTB1MN _TxBuffer,11
                 ; 0000 0AAB                                 TxBuffer[12] = SYS_INFO.stopcount & 0xFF;
                +
002018 91e0 0d1f+LDS R30 , _SYS_INFO + ( 5 )
                 	__GETB1MN _SYS_INFO,5
                +
00201a 93e0 162c+STS _TxBuffer + ( 12 ) , R30
                 	__PUTB1MN _TxBuffer,12
                 ; 0000 0AAC                                 TxBuffer[13] = MEASURE_INFO.ad_start_pulse >> 8;
00201c 91e0 0cfc 	LDS  R30,_MEASURE_INFO
00201e 91f0 0cfd 	LDS  R31,_MEASURE_INFO+1
002020 940e 306d 	CALL __ASRW8
                +
002022 93e0 162d+STS _TxBuffer + ( 13 ) , R30
                 	__PUTB1MN _TxBuffer,13
                 ; 0000 0AAD                                 TxBuffer[14] = MEASURE_INFO.ad_start_pulse & 0xFF;
002024 91e0 0cfc 	LDS  R30,_MEASURE_INFO
                +
002026 93e0 162e+STS _TxBuffer + ( 14 ) , R30
                 	__PUTB1MN _TxBuffer,14
                 ; 0000 0AAE                                 TxBuffer[15] = MEASURE_INFO.duringcount >> 8;
                +
002028 91e0 0cfe+LDS R30 , _MEASURE_INFO + ( 2 )
00202a 91f0 0cff+LDS R31 , _MEASURE_INFO + ( 2 ) + 1
                 	__GETW1MN _MEASURE_INFO,2
00202c 940e 306d 	CALL __ASRW8
                +
00202e 93e0 162f+STS _TxBuffer + ( 15 ) , R30
                 	__PUTB1MN _TxBuffer,15
                 ; 0000 0AAF                                 TxBuffer[16] = MEASURE_INFO.duringcount & 0xFF;
                +
002030 91e0 0cfe+LDS R30 , _MEASURE_INFO + ( 2 )
                 	__GETB1MN _MEASURE_INFO,2
                +
002032 93e0 1630+STS _TxBuffer + ( 16 ) , R30
                 	__PUTB1MN _TxBuffer,16
                 ; 0000 0AB0                                 TxBuffer[17] = MEASURE_INFO.zeroposition >> 8;
                +
002034 91e0 0d00+LDS R30 , _MEASURE_INFO + ( 4 )
002036 91f0 0d01+LDS R31 , _MEASURE_INFO + ( 4 ) + 1
                 	__GETW1MN _MEASURE_INFO,4
002038 940e 306d 	CALL __ASRW8
                +
00203a 93e0 1631+STS _TxBuffer + ( 17 ) , R30
                 	__PUTB1MN _TxBuffer,17
                 ; 0000 0AB1                                 TxBuffer[18] = MEASURE_INFO.zeroposition & 0xFF;
                +
00203c 91e0 0d00+LDS R30 , _MEASURE_INFO + ( 4 )
                 	__GETB1MN _MEASURE_INFO,4
                +
00203e 93e0 1632+STS _TxBuffer + ( 18 ) , R30
                 	__PUTB1MN _TxBuffer,18
                 ; 0000 0AB2                                 TxBuffer[19] = MEASURE_INFO.crackchecktime >> 8;
002040 940e 2d46 	CALL SUBOPT_0xBF
002042 940e 306d 	CALL __ASRW8
                +
002044 93e0 1633+STS _TxBuffer + ( 19 ) , R30
                 	__PUTB1MN _TxBuffer,19
                 ; 0000 0AB3                                 TxBuffer[20] = MEASURE_INFO.crackchecktime & 0xFF;
                +
002046 91e0 0d02+LDS R30 , _MEASURE_INFO + ( 6 )
                 	__GETB1MN _MEASURE_INFO,6
                +
002048 93e0 1634+STS _TxBuffer + ( 20 ) , R30
                 	__PUTB1MN _TxBuffer,20
                 ; 0000 0AB4                                 TxBuffer[21] = MEASURE_INFO.abnCheckSTime >> 8;
                +
00204a 91e0 0d04+LDS R30 , _MEASURE_INFO + ( 8 )
00204c 91f0 0d05+LDS R31 , _MEASURE_INFO + ( 8 ) + 1
                 	__GETW1MN _MEASURE_INFO,8
00204e 940e 306d 	CALL __ASRW8
                +
002050 93e0 1635+STS _TxBuffer + ( 21 ) , R30
                 	__PUTB1MN _TxBuffer,21
                 ; 0000 0AB5                                 TxBuffer[22] = MEASURE_INFO.abnCheckSTime & 0xFF;
                +
002052 91e0 0d04+LDS R30 , _MEASURE_INFO + ( 8 )
                 	__GETB1MN _MEASURE_INFO,8
                +
002054 93e0 1636+STS _TxBuffer + ( 22 ) , R30
                 	__PUTB1MN _TxBuffer,22
                 ; 0000 0AB6                                 TxBuffer[23] = MEASURE_INFO.abnCheckETime >> 8;
002056 940e 2977 	CALL SUBOPT_0x37
002058 940e 306d 	CALL __ASRW8
                +
00205a 93e0 1637+STS _TxBuffer + ( 23 ) , R30
                 	__PUTB1MN _TxBuffer,23
                 ; 0000 0AB7                                 TxBuffer[24] = MEASURE_INFO.abnCheckETime & 0xFF;
                +
00205c 91e0 0d06+LDS R30 , _MEASURE_INFO + ( 10 )
                 	__GETB1MN _MEASURE_INFO,10
                +
00205e 93e0 1638+STS _TxBuffer + ( 24 ) , R30
                 	__PUTB1MN _TxBuffer,24
                 ; 0000 0AB8                                 TxBuffer[25] = SYS_INFO.z_encoder_interval >> 8 ;
                +
002060 91e0 0d21+LDS R30 , _SYS_INFO + ( 7 )
002062 91f0 0d22+LDS R31 , _SYS_INFO + ( 7 ) + 1
                 	__GETW1MN _SYS_INFO,7
002064 940e 306d 	CALL __ASRW8
                +
002066 93e0 1639+STS _TxBuffer + ( 25 ) , R30
                 	__PUTB1MN _TxBuffer,25
                 ; 0000 0AB9                                 TxBuffer[26] = SYS_INFO.z_encoder_interval & 0xFF;
                +
002068 91e0 0d21+LDS R30 , _SYS_INFO + ( 7 )
                 	__GETB1MN _SYS_INFO,7
                +
00206a 93e0 163a+STS _TxBuffer + ( 26 ) , R30
                 	__PUTB1MN _TxBuffer,26
                 ; 0000 0ABA                                 TxBuffer[27] = SYS_INFO.DeAccelDelayCount >> 8 ;
                +
00206c 91e0 0d27+LDS R30 , _SYS_INFO + ( 13 )
00206e 91f0 0d28+LDS R31 , _SYS_INFO + ( 13 ) + 1
                 	__GETW1MN _SYS_INFO,13
002070 940e 306d 	CALL __ASRW8
                +
002072 93e0 163b+STS _TxBuffer + ( 27 ) , R30
                 	__PUTB1MN _TxBuffer,27
                 ; 0000 0ABB                                 TxBuffer[28] = SYS_INFO.DeAccelDelayCount & 0xFF;
                +
002074 91e0 0d27+LDS R30 , _SYS_INFO + ( 13 )
                 	__GETB1MN _SYS_INFO,13
                +
002076 93e0 163c+STS _TxBuffer + ( 28 ) , R30
                 	__PUTB1MN _TxBuffer,28
                 ; 0000 0ABC                                 TxBuffer[29] = SYS_INFO.DeAccelDelayTime >> 8 ;
                +
002078 91e0 0d29+LDS R30 , _SYS_INFO + ( 15 )
00207a 91f0 0d2a+LDS R31 , _SYS_INFO + ( 15 ) + 1
                 	__GETW1MN _SYS_INFO,15
00207c 940e 306d 	CALL __ASRW8
                +
00207e 93e0 163d+STS _TxBuffer + ( 29 ) , R30
                 	__PUTB1MN _TxBuffer,29
                 ; 0000 0ABD                                 TxBuffer[30] = SYS_INFO.DeAccelDelayTime & 0xFF;
                +
002080 91e0 0d29+LDS R30 , _SYS_INFO + ( 15 )
                 	__GETB1MN _SYS_INFO,15
                +
002082 93e0 163e+STS _TxBuffer + ( 30 ) , R30
                 	__PUTB1MN _TxBuffer,30
                 ; 0000 0ABE                                 TxBuffer[31] = SYS_INFO.ACD_CHK_POS;
                +
002084 91e0 0d2b+LDS R30 , _SYS_INFO + ( 17 )
                 	__GETB1MN _SYS_INFO,17
                +
002086 93e0 163f+STS _TxBuffer + ( 31 ) , R30
                 	__PUTB1MN _TxBuffer,31
                 ; 0000 0ABF 
                 ; 0000 0AC0                                 TxBuffer[32] = 0x03;
002088 e0e3      	LDI  R30,LOW(3)
                +
002089 93e0 1640+STS _TxBuffer + ( 32 ) , R30
                 	__PUTB1MN _TxBuffer,32
                 ; 0000 0AC1 
                 ; 0000 0AC2                                 TxEnable = 1;   txcnt = 1;  TxLength = 33;   UDR1 = TxBuffer[0];
00208b 940e 2e16 	CALL SUBOPT_0xE1
00208d e2e1      	LDI  R30,LOW(33)
00208e e0f0      	LDI  R31,HIGH(33)
00208f 940e 2c14 	CALL SUBOPT_0x93
                 ; 0000 0AC3                                 BuzzerOn();
002091 940e 182a 	CALL _BuzzerOn
                 ; 0000 0AC4                                 break;
                 ; 0000 0AC5                               case 0x00 :     //INIT DATA
                 _0x412:
                 ; 0000 0AC6                                 break;
                 ; 0000 0AC7                         }
                 _0x410:
                 ; 0000 0AC8                         break;
002093 c715      	RJMP _0x3BD
                 ; 0000 0AC9                     case CMD_SOLINFO : //0x30 ::  ON/ OFF,    ,  ,  ...
                 _0x40D:
002094 33e0      	CPI  R30,LOW(0x30)
002095 e0a0      	LDI  R26,HIGH(0x30)
002096 07fa      	CPC  R31,R26
002097 f009      	BREQ PC+2
002098 c256      	RJMP _0x414
                 ; 0000 0ACA                         switch(RxBuffer[1]){
002099 940e 2db1 	CALL SUBOPT_0xD0
                 ; 0000 0ACB                             case 0x01 :     //SAVE DATA
00209b f009      	BREQ PC+2
00209c c14d      	RJMP _0x418
                 ; 0000 0ACC 
                 ; 0000 0ACD                                 dbufstart = 2;
                +
00209d e042     +LDI R20 , LOW ( 2 )
00209e e050     +LDI R21 , HIGH ( 2 )
                 	__GETWRN 20,21,2
                 ; 0000 0ACE 
                 ; 0000 0ACF                                 //###  Solenoid On Time  ###
                 ; 0000 0AD0                                 for(lcnt = 0;lcnt<=7;lcnt++){
00209f e0e0      	LDI  R30,LOW(0)
0020a0 87e8      	STD  Y+8,R30
0020a1 87e9      	STD  Y+8+1,R30
                 _0x41A:
0020a2 85a8      	LDD  R26,Y+8
0020a3 85b9      	LDD  R27,Y+8+1
0020a4 9718      	SBIW R26,8
0020a5 f518      	BRSH _0x41B
                 ; 0000 0AD1                                     for(jcnt=0; jcnt<=5; jcnt++){
0020a6 e0e0      	LDI  R30,LOW(0)
0020a7 83ee      	STD  Y+6,R30
0020a8 83ef      	STD  Y+6+1,R30
                 _0x41D:
0020a9 81ae      	LDD  R26,Y+6
0020aa 81bf      	LDD  R27,Y+6+1
0020ab 9716      	SBIW R26,6
0020ac f4b8      	BRSH _0x41E
                 ; 0000 0AD2                                         oddbuf = dbufstart +  (jcnt * 2) + 1;
0020ad 940e 2e1a 	CALL SUBOPT_0xE2
0020af 940e 2e22 	CALL SUBOPT_0xE3
                 ; 0000 0AD3                                         evenbuf = dbufstart + (jcnt * 2);
0020b1 940e 2e26 	CALL SUBOPT_0xE4
                 ; 0000 0AD4 
                 ; 0000 0AD5                                         SOL_INFO[lcnt].ontime[jcnt] = RxBuffer[evenbuf];             //High Byte
0020b3 940e 2e2e 	CALL SUBOPT_0xE5
0020b5 940e 2e34 	CALL SUBOPT_0xE6
                 ; 0000 0AD6                                         SOL_INFO[lcnt].ontime[jcnt] <<= 8;
0020b7 940e 2e2e 	CALL SUBOPT_0xE5
0020b9 940e 2e42 	CALL SUBOPT_0xE7
                 ; 0000 0AD7                                         SOL_INFO[lcnt].ontime[jcnt] |= RxBuffer[oddbuf];             //Low Byte
                +
0020bb 5eea     +SUBI R30 , LOW ( - _SOL_INFO - ( 12 ) )
0020bc 4ff4     +SBCI R31 , HIGH ( - _SOL_INFO - ( 12 ) )
                 	__ADDW1MN _SOL_INFO,12
0020bd 940e 2e4e 	CALL SUBOPT_0xE8
0020bf 940e 2e52 	CALL SUBOPT_0xE9
                 ; 0000 0AD8                                     }
0020c1 940e 2d54 	CALL SUBOPT_0xC1
0020c3 cfe5      	RJMP _0x41D
                 _0x41E:
                 ; 0000 0AD9                                     dbufstart = oddbuf+1;
0020c4 940e 2e63 	CALL SUBOPT_0xEA
                 ; 0000 0ADA                                 }
0020c6 940e 2e07 	CALL SUBOPT_0xDE
0020c8 cfd9      	RJMP _0x41A
                 _0x41B:
                 ; 0000 0ADB 
                 ; 0000 0ADC                                 dbufstart = oddbuf+1;
0020c9 940e 2e63 	CALL SUBOPT_0xEA
                 ; 0000 0ADD                                 //###########################
                 ; 0000 0ADE                                 //###  Solenoid OFF Time  ###
                 ; 0000 0ADF                                 //###########################
                 ; 0000 0AE0                                 for(lcnt = 0;lcnt<=7;lcnt++){
0020cb e0e0      	LDI  R30,LOW(0)
0020cc 87e8      	STD  Y+8,R30
0020cd 87e9      	STD  Y+8+1,R30
                 _0x420:
0020ce 85a8      	LDD  R26,Y+8
0020cf 85b9      	LDD  R27,Y+8+1
0020d0 9718      	SBIW R26,8
0020d1 f518      	BRSH _0x421
                 ; 0000 0AE1                                     for(jcnt=0; jcnt<=5; jcnt++){
0020d2 e0e0      	LDI  R30,LOW(0)
0020d3 83ee      	STD  Y+6,R30
0020d4 83ef      	STD  Y+6+1,R30
                 _0x423:
0020d5 81ae      	LDD  R26,Y+6
0020d6 81bf      	LDD  R27,Y+6+1
0020d7 9716      	SBIW R26,6
0020d8 f4b8      	BRSH _0x424
                 ; 0000 0AE2                                         oddbuf = dbufstart +  (jcnt * 2) + 1;
0020d9 940e 2e1a 	CALL SUBOPT_0xE2
0020db 940e 2e22 	CALL SUBOPT_0xE3
                 ; 0000 0AE3                                         evenbuf = dbufstart +  (jcnt * 2);
0020dd 940e 2e26 	CALL SUBOPT_0xE4
                 ; 0000 0AE4 
                 ; 0000 0AE5                                         SOL_INFO[lcnt].offtime[jcnt] = RxBuffer[evenbuf];
0020df 940e 2e68 	CALL SUBOPT_0xEB
0020e1 940e 2e34 	CALL SUBOPT_0xE6
                 ; 0000 0AE6                                         SOL_INFO[lcnt].offtime[jcnt] <<= 8;                          //High Byte
0020e3 940e 2e68 	CALL SUBOPT_0xEB
0020e5 940e 2e42 	CALL SUBOPT_0xE7
                 ; 0000 0AE7                                         SOL_INFO[lcnt].offtime[jcnt] |= RxBuffer[oddbuf];            //Low Byte
                +
0020e7 5dee     +SUBI R30 , LOW ( - _SOL_INFO - ( 24 ) )
0020e8 4ff4     +SBCI R31 , HIGH ( - _SOL_INFO - ( 24 ) )
                 	__ADDW1MN _SOL_INFO,24
0020e9 940e 2e4e 	CALL SUBOPT_0xE8
0020eb 940e 2e52 	CALL SUBOPT_0xE9
                 ; 0000 0AE8                                     }
0020ed 940e 2d54 	CALL SUBOPT_0xC1
0020ef cfe5      	RJMP _0x423
                 _0x424:
                 ; 0000 0AE9                                      dbufstart = oddbuf+1;
0020f0 940e 2e63 	CALL SUBOPT_0xEA
                 ; 0000 0AEA                                 }
0020f2 940e 2e07 	CALL SUBOPT_0xDE
0020f4 cfd9      	RJMP _0x420
                 _0x421:
                 ; 0000 0AEB 
                 ; 0000 0AEC                                 dbufstart = oddbuf+1;
0020f5 940e 2e63 	CALL SUBOPT_0xEA
                 ; 0000 0AED                                 //########################################
                 ; 0000 0AEE                                 //###  Solenoid Start Bucket Position  ###
                 ; 0000 0AEF                                 //########################################
                 ; 0000 0AF0                                 for(lcnt = 0;lcnt<=7;lcnt++){
0020f7 e0e0      	LDI  R30,LOW(0)
0020f8 87e8      	STD  Y+8,R30
0020f9 87e9      	STD  Y+8+1,R30
                 _0x426:
0020fa 85a8      	LDD  R26,Y+8
0020fb 85b9      	LDD  R27,Y+8+1
0020fc 9718      	SBIW R26,8
0020fd f520      	BRSH _0x427
                 ; 0000 0AF1                                     oddbuf = dbufstart + (lcnt * 2) + 1;
0020fe 940e 2e6e 	CALL SUBOPT_0xEC
002100 9631      	ADIW R30,1
002101 83ec      	STD  Y+4,R30
002102 83fd      	STD  Y+4+1,R31
                 ; 0000 0AF2                                     evenbuf = dbufstart + (lcnt * 2);
002103 940e 2e6e 	CALL SUBOPT_0xEC
002105 940e 2e76 	CALL SUBOPT_0xED
                 ; 0000 0AF3 
                 ; 0000 0AF4                                     PACKER_INFO[lcnt].startpocketnumber = RxBuffer[evenbuf];           //High Byte
002107 0fae      	ADD  R26,R30
002108 1fbf      	ADC  R27,R31
002109 9613      	ADIW R26,3
00210a 940e 2e7f 	CALL SUBOPT_0xEE
00210c 940e 2e85 	CALL SUBOPT_0xEF
                 ; 0000 0AF5                                     PACKER_INFO[lcnt].startpocketnumber <<= 8;
00210e 9633      	ADIW R30,3
00210f 01bf      	MOVW R22,R30
002110 81a0      	LD   R26,Z
002111 e0e8      	LDI  R30,LOW(8)
002112 940e 3046 	CALL __LSLB12
002114 01db      	MOVW R26,R22
002115 940e 2e85 	CALL SUBOPT_0xEF
                 ; 0000 0AF6                                     PACKER_INFO[lcnt].startpocketnumber |= RxBuffer[oddbuf];           //Low Byte
002117 9633      	ADIW R30,3
002118 010f      	MOVW R0,R30
002119 81a0      	LD   R26,Z
00211a 940e 2e8b 	CALL SUBOPT_0xF0
00211c 2bea      	OR   R30,R26
00211d 01d0      	MOVW R26,R0
00211e 93ec      	ST   X,R30
                 ; 0000 0AF7                                 }
00211f 940e 2e07 	CALL SUBOPT_0xDE
002121 cfd8      	RJMP _0x426
                 _0x427:
                 ; 0000 0AF8 
                 ; 0000 0AF9                                 dbufstart = oddbuf+1;
002122 940e 2e63 	CALL SUBOPT_0xEA
                 ; 0000 0AFA                                 //###################################
                 ; 0000 0AFB                                 //###  PRT Start Bucket Position  ###
                 ; 0000 0AFC                                 //###################################
                 ; 0000 0AFD                                 PRT_INFO[1].startpocketnumber  = RxBuffer[dbufstart];
002124 e2ac      	LDI  R26,LOW(_RxBuffer)
002125 e1b4      	LDI  R27,HIGH(_RxBuffer)
002126 0fa4      	ADD  R26,R20
002127 1fb5      	ADC  R27,R21
002128 91ec      	LD   R30,X
                +
002129 e1a2     +LDI R26 , LOW ( _PRT_INFO + ( 10 ) )
00212a e0bd     +LDI R27 , HIGH ( _PRT_INFO + ( 10 ) )
                 	__POINTW2MN _PRT_INFO,10
00212b e0f0      	LDI  R31,0
00212c 93ed      	ST   X+,R30
00212d 93fc      	ST   X,R31
                 ; 0000 0AFE                                 PRT_INFO[1].startpocketnumber  <<= 8;
                +
00212e 91f0 0d12+LDS R31 , _PRT_INFO + ( 10 )
                 	__GETB1HMN _PRT_INFO,10
002130 e0e0      	LDI  R30,LOW(0)
                +
002131 93e0 0d12+STS _PRT_INFO + ( 10 ) , R30
002133 93f0 0d13+STS _PRT_INFO + ( 10 ) + 1 , R31
                 	__PUTW1MN _PRT_INFO,10
                 ; 0000 0AFF                                 PRT_INFO[1].startpocketnumber  |= RxBuffer[dbufstart+1];
                +
002135 91a0 0d12+LDS R26 , _PRT_INFO + ( 10 )
002137 91b0 0d13+LDS R27 , _PRT_INFO + ( 10 ) + 1
                 	__GETW2MN _PRT_INFO,10
002139 940e 2e91 	CALL SUBOPT_0xF1
                +
00213b 93e0 0d12+STS _PRT_INFO + ( 10 ) , R30
00213d 93f0 0d13+STS _PRT_INFO + ( 10 ) + 1 , R31
                 	__PUTW1MN _PRT_INFO,10
                 ; 0000 0B00 
                 ; 0000 0B01                                 PRT_INFO[2].startpocketnumber  = RxBuffer[dbufstart+2];
                +
00213f e1a8     +LDI R26 , LOW ( _PRT_INFO + ( 16 ) )
002140 e0bd     +LDI R27 , HIGH ( _PRT_INFO + ( 16 ) )
                 	__POINTW2MN _PRT_INFO,16
002141 940e 2e99 	CALL SUBOPT_0xF2
                 ; 0000 0B02                                 PRT_INFO[2].startpocketnumber  <<= 8;
                +
002143 91f0 0d18+LDS R31 , _PRT_INFO + ( 16 )
                 	__GETB1HMN _PRT_INFO,16
002145 e0e0      	LDI  R30,LOW(0)
                +
002146 93e0 0d18+STS _PRT_INFO + ( 16 ) , R30
002148 93f0 0d19+STS _PRT_INFO + ( 16 ) + 1 , R31
                 	__PUTW1MN _PRT_INFO,16
                 ; 0000 0B03                                 PRT_INFO[2].startpocketnumber  |= RxBuffer[dbufstart+3];
                +
00214a 91a0 0d18+LDS R26 , _PRT_INFO + ( 16 )
00214c 91b0 0d19+LDS R27 , _PRT_INFO + ( 16 ) + 1
                 	__GETW2MN _PRT_INFO,16
00214e 940e 2ea1 	CALL SUBOPT_0xF3
                +
002150 93e0 0d18+STS _PRT_INFO + ( 16 ) , R30
002152 93f0 0d19+STS _PRT_INFO + ( 16 ) + 1 , R31
                 	__PUTW1MN _PRT_INFO,16
                 ; 0000 0B04 
                 ; 0000 0B05                                 dbufstart = dbufstart+4;
                +
002154 5f4c     +SUBI R20 , LOW ( - 4 )
002155 4f5f     +SBCI R21 , HIGH ( - 4 )
                 	__ADDWRN 20,21,4
                 ; 0000 0B06                                 //#########################
                 ; 0000 0B07                                 //###  PRT ON/OFF TIME  ###
                 ; 0000 0B08                                 //#########################
                 ; 0000 0B09                                 PRT_INFO[1].ontime  = RxBuffer[dbufstart];
002156 e2ac      	LDI  R26,LOW(_RxBuffer)
002157 e1b4      	LDI  R27,HIGH(_RxBuffer)
002158 0fa4      	ADD  R26,R20
002159 1fb5      	ADC  R27,R21
00215a 91ec      	LD   R30,X
                +
00215b e0ae     +LDI R26 , LOW ( _PRT_INFO + ( 6 ) )
00215c e0bd     +LDI R27 , HIGH ( _PRT_INFO + ( 6 ) )
                 	__POINTW2MN _PRT_INFO,6
00215d e0f0      	LDI  R31,0
00215e 93ed      	ST   X+,R30
00215f 93fc      	ST   X,R31
                 ; 0000 0B0A                                 PRT_INFO[1].ontime  <<= 8;
                +
002160 91f0 0d0e+LDS R31 , _PRT_INFO + ( 6 )
                 	__GETB1HMN _PRT_INFO,6
002162 e0e0      	LDI  R30,LOW(0)
                +
002163 93e0 0d0e+STS _PRT_INFO + ( 6 ) , R30
002165 93f0 0d0f+STS _PRT_INFO + ( 6 ) + 1 , R31
                 	__PUTW1MN _PRT_INFO,6
                 ; 0000 0B0B                                 PRT_INFO[1].ontime  |= RxBuffer[dbufstart+1];
                +
002167 91a0 0d0e+LDS R26 , _PRT_INFO + ( 6 )
002169 91b0 0d0f+LDS R27 , _PRT_INFO + ( 6 ) + 1
                 	__GETW2MN _PRT_INFO,6
00216b 940e 2e91 	CALL SUBOPT_0xF1
                +
00216d 93e0 0d0e+STS _PRT_INFO + ( 6 ) , R30
00216f 93f0 0d0f+STS _PRT_INFO + ( 6 ) + 1 , R31
                 	__PUTW1MN _PRT_INFO,6
                 ; 0000 0B0C                                 PRT_INFO[1].offtime  = RxBuffer[dbufstart+2];
                +
002171 e1a0     +LDI R26 , LOW ( _PRT_INFO + ( 8 ) )
002172 e0bd     +LDI R27 , HIGH ( _PRT_INFO + ( 8 ) )
                 	__POINTW2MN _PRT_INFO,8
002173 940e 2e99 	CALL SUBOPT_0xF2
                 ; 0000 0B0D                                 PRT_INFO[1].offtime  <<= 8;
                +
002175 91f0 0d10+LDS R31 , _PRT_INFO + ( 8 )
                 	__GETB1HMN _PRT_INFO,8
002177 e0e0      	LDI  R30,LOW(0)
                +
002178 93e0 0d10+STS _PRT_INFO + ( 8 ) , R30
00217a 93f0 0d11+STS _PRT_INFO + ( 8 ) + 1 , R31
                 	__PUTW1MN _PRT_INFO,8
                 ; 0000 0B0E                                 PRT_INFO[1].offtime  |= RxBuffer[dbufstart+3];
                +
00217c 91a0 0d10+LDS R26 , _PRT_INFO + ( 8 )
00217e 91b0 0d11+LDS R27 , _PRT_INFO + ( 8 ) + 1
                 	__GETW2MN _PRT_INFO,8
002180 940e 2ea1 	CALL SUBOPT_0xF3
                +
002182 93e0 0d10+STS _PRT_INFO + ( 8 ) , R30
002184 93f0 0d11+STS _PRT_INFO + ( 8 ) + 1 , R31
                 	__PUTW1MN _PRT_INFO,8
                 ; 0000 0B0F 
                 ; 0000 0B10                                 PRT_INFO[2].ontime  = RxBuffer[dbufstart+4];
                +
002186 e1a4     +LDI R26 , LOW ( _PRT_INFO + ( 12 ) )
002187 e0bd     +LDI R27 , HIGH ( _PRT_INFO + ( 12 ) )
                 	__POINTW2MN _PRT_INFO,12
002188 01fa      	MOVW R30,R20
                +
002189 5de0     +SUBI R30 , LOW ( - _RxBuffer - ( 4 ) )
00218a 4efb     +SBCI R31 , HIGH ( - _RxBuffer - ( 4 ) )
                 	__ADDW1MN _RxBuffer,4
00218b 81e0      	LD   R30,Z
00218c e0f0      	LDI  R31,0
00218d 93ed      	ST   X+,R30
00218e 93fc      	ST   X,R31
                 ; 0000 0B11                                 PRT_INFO[2].ontime  <<= 8;
                +
00218f 91f0 0d14+LDS R31 , _PRT_INFO + ( 12 )
                 	__GETB1HMN _PRT_INFO,12
002191 e0e0      	LDI  R30,LOW(0)
                +
002192 93e0 0d14+STS _PRT_INFO + ( 12 ) , R30
002194 93f0 0d15+STS _PRT_INFO + ( 12 ) + 1 , R31
                 	__PUTW1MN _PRT_INFO,12
                 ; 0000 0B12                                 PRT_INFO[2].ontime  |= RxBuffer[dbufstart+5];
                +
002196 91a0 0d14+LDS R26 , _PRT_INFO + ( 12 )
002198 91b0 0d15+LDS R27 , _PRT_INFO + ( 12 ) + 1
                 	__GETW2MN _PRT_INFO,12
00219a 01fa      	MOVW R30,R20
                +
00219b 5cef     +SUBI R30 , LOW ( - _RxBuffer - ( 5 ) )
00219c 4efb     +SBCI R31 , HIGH ( - _RxBuffer - ( 5 ) )
                 	__ADDW1MN _RxBuffer,5
00219d 81e0      	LD   R30,Z
00219e e0f0      	LDI  R31,0
00219f 2bea      	OR   R30,R26
0021a0 2bfb      	OR   R31,R27
                +
0021a1 93e0 0d14+STS _PRT_INFO + ( 12 ) , R30
0021a3 93f0 0d15+STS _PRT_INFO + ( 12 ) + 1 , R31
                 	__PUTW1MN _PRT_INFO,12
                 ; 0000 0B13                                 PRT_INFO[2].offtime  = RxBuffer[dbufstart+6];
                +
0021a5 e1a6     +LDI R26 , LOW ( _PRT_INFO + ( 14 ) )
0021a6 e0bd     +LDI R27 , HIGH ( _PRT_INFO + ( 14 ) )
                 	__POINTW2MN _PRT_INFO,14
0021a7 01fa      	MOVW R30,R20
                +
0021a8 5cee     +SUBI R30 , LOW ( - _RxBuffer - ( 6 ) )
0021a9 4efb     +SBCI R31 , HIGH ( - _RxBuffer - ( 6 ) )
                 	__ADDW1MN _RxBuffer,6
0021aa 81e0      	LD   R30,Z
0021ab e0f0      	LDI  R31,0
0021ac 93ed      	ST   X+,R30
0021ad 93fc      	ST   X,R31
                 ; 0000 0B14                                 PRT_INFO[2].offtime  <<= 8;
                +
0021ae 91f0 0d16+LDS R31 , _PRT_INFO + ( 14 )
                 	__GETB1HMN _PRT_INFO,14
0021b0 e0e0      	LDI  R30,LOW(0)
                +
0021b1 93e0 0d16+STS _PRT_INFO + ( 14 ) , R30
0021b3 93f0 0d17+STS _PRT_INFO + ( 14 ) + 1 , R31
                 	__PUTW1MN _PRT_INFO,14
                 ; 0000 0B15                                 PRT_INFO[2].offtime  |= RxBuffer[dbufstart+7];
                +
0021b5 91a0 0d16+LDS R26 , _PRT_INFO + ( 14 )
0021b7 91b0 0d17+LDS R27 , _PRT_INFO + ( 14 ) + 1
                 	__GETW2MN _PRT_INFO,14
0021b9 01fa      	MOVW R30,R20
                +
0021ba 5ced     +SUBI R30 , LOW ( - _RxBuffer - ( 7 ) )
0021bb 4efb     +SBCI R31 , HIGH ( - _RxBuffer - ( 7 ) )
                 	__ADDW1MN _RxBuffer,7
0021bc 81e0      	LD   R30,Z
0021bd e0f0      	LDI  R31,0
0021be 2bea      	OR   R30,R26
0021bf 2bfb      	OR   R31,R27
                +
0021c0 93e0 0d16+STS _PRT_INFO + ( 14 ) , R30
0021c2 93f0 0d17+STS _PRT_INFO + ( 14 ) + 1 , R31
                 	__PUTW1MN _PRT_INFO,14
                 ; 0000 0B16 
                 ; 0000 0B17                                 //dbufstart = dbufstart+8;
                 ; 0000 0B18 
                 ; 0000 0B19                                 ABN_INFO.AbnBucketNum = RxBuffer[dbufstart+8];
0021c4 01fa      	MOVW R30,R20
                +
0021c5 5cec     +SUBI R30 , LOW ( - _RxBuffer - ( 8 ) )
0021c6 4efb     +SBCI R31 , HIGH ( - _RxBuffer - ( 8 ) )
                 	__ADDW1MN _RxBuffer,8
0021c7 81e0      	LD   R30,Z
0021c8 e0f0      	LDI  R31,0
0021c9 940e 2ea9 	CALL SUBOPT_0xF4
                 ; 0000 0B1A                                 ABN_INFO.AbnBucketNum <<= 8;
0021cb 91f0 0d2c 	LDS  R31,_ABN_INFO
0021cd e0e0      	LDI  R30,LOW(0)
0021ce 940e 2ea9 	CALL SUBOPT_0xF4
                 ; 0000 0B1B                                 ABN_INFO.AbnBucketNum |= RxBuffer[dbufstart+9];
0021d0 01fa      	MOVW R30,R20
                +
0021d1 5ceb     +SUBI R30 , LOW ( - _RxBuffer - ( 9 ) )
0021d2 4efb     +SBCI R31 , HIGH ( - _RxBuffer - ( 9 ) )
                 	__ADDW1MN _RxBuffer,9
0021d3 81e0      	LD   R30,Z
0021d4 91a0 0d2c 	LDS  R26,_ABN_INFO
0021d6 91b0 0d2d 	LDS  R27,_ABN_INFO+1
0021d8 e0f0      	LDI  R31,0
0021d9 2bea      	OR   R30,R26
0021da 2bfb      	OR   R31,R27
0021db 940e 2ea9 	CALL SUBOPT_0xF4
                 ; 0000 0B1C                                 //Flash Memory Write
                 ; 0000 0B1D                                 //PUT_USR_INFO_DATA(GRADE_INFO_DATA);
                 ; 0000 0B1E                                 PUT_USR_INFO_DATA(SOL_INFO_DATA);
0021dd 940e 2eae 	CALL SUBOPT_0xF5
                 ; 0000 0B1F                                 PUT_USR_INFO_DATA(PACKER_INFO_DATA);
                 ; 0000 0B20                                 //PUT_USR_INFO_DATA(LDCELL_INFO_DATA);
                 ; 0000 0B21                                 //PUT_USR_INFO_DATA(MEASURE_INFO_DATA);
                 ; 0000 0B22                                 PUT_USR_INFO_DATA(PRT_INFO_DATA);
0021df e1a0      	LDI  R26,LOW(16)
0021e0 e0b0      	LDI  R27,0
0021e1 940e 04d4 	CALL _PUT_USR_INFO_DATA
                 ; 0000 0B23                                 PUT_USR_INFO_DATA(ABN_INFO_DATA);
0021e3 e1a3      	LDI  R26,LOW(19)
0021e4 e0b0      	LDI  R27,0
0021e5 940e 04d4 	CALL _PUT_USR_INFO_DATA
                 ; 0000 0B24                                 //PUT_USR_INFO_DATA(SYS_INFO_DATA);
                 ; 0000 0B25 
                 ; 0000 0B26                                 BuzzerOn();
0021e7 940e 182a 	CALL _BuzzerOn
                 ; 0000 0B27                                 break;
0021e9 c104      	RJMP _0x417
                 ; 0000 0B28                             case 0x02 :     //LOAD DATA
                 _0x418:
0021ea 30e2      	CPI  R30,LOW(0x2)
0021eb e0a0      	LDI  R26,HIGH(0x2)
0021ec 07fa      	CPC  R31,R26
0021ed f009      	BREQ PC+2
0021ee c0ff      	RJMP _0x428
                 ; 0000 0B29                                 TxBuffer[0] = 0x02;
0021ef e0e2      	LDI  R30,LOW(2)
0021f0 93e0 1620 	STS  _TxBuffer,R30
                 ; 0000 0B2A                                 TxBuffer[3] = 0x30;
0021f2 e3e0      	LDI  R30,LOW(48)
0021f3 940e 2e10 	CALL SUBOPT_0xE0
                 ; 0000 0B2B                                 TxBuffer[4] = 0x02;
                 ; 0000 0B2C 
                 ; 0000 0B2D                                 dbufstart = 5;
                +
0021f5 e045     +LDI R20 , LOW ( 5 )
0021f6 e050     +LDI R21 , HIGH ( 5 )
                 	__GETWRN 20,21,5
                 ; 0000 0B2E 
                 ; 0000 0B2F                                 //###########################
                 ; 0000 0B30                                 //###  Solenoid ON Time  ###
                 ; 0000 0B31                                 //###########################
                 ; 0000 0B32                                 for(lcnt = 0;lcnt<=7;lcnt++){
0021f7 e0e0      	LDI  R30,LOW(0)
0021f8 87e8      	STD  Y+8,R30
0021f9 87e9      	STD  Y+8+1,R30
                 _0x42A:
0021fa 85a8      	LDD  R26,Y+8
0021fb 85b9      	LDD  R27,Y+8+1
0021fc 9718      	SBIW R26,8
0021fd f4e8      	BRSH _0x42B
                 ; 0000 0B33                                     for(jcnt=0; jcnt<=5; jcnt++){
0021fe e0e0      	LDI  R30,LOW(0)
0021ff 83ee      	STD  Y+6,R30
002200 83ef      	STD  Y+6+1,R30
                 _0x42D:
002201 81ae      	LDD  R26,Y+6
002202 81bf      	LDD  R27,Y+6+1
002203 9716      	SBIW R26,6
002204 f488      	BRSH _0x42E
                 ; 0000 0B34                                         oddbuf = dbufstart +  (jcnt * 2) + 1;
002205 940e 2e1a 	CALL SUBOPT_0xE2
002207 940e 2e22 	CALL SUBOPT_0xE3
                 ; 0000 0B35                                         evenbuf = dbufstart +  (jcnt * 2);
002209 940e 2eb6 	CALL SUBOPT_0xF6
                 ; 0000 0B36 
                 ; 0000 0B37                                         TxBuffer[evenbuf] = SOL_INFO[lcnt].ontime[jcnt] >> 8;             //High Byte
00220b 940e 2e2e 	CALL SUBOPT_0xE5
00220d 940e 2ec2 	CALL SUBOPT_0xF7
                 ; 0000 0B38                                         TxBuffer[oddbuf] = SOL_INFO[lcnt].ontime[jcnt] & 0xFF;           //Low Byte
00220f 940e 2e2e 	CALL SUBOPT_0xE5
002211 940e 2ed5 	CALL SUBOPT_0xF8
                 ; 0000 0B39                                     }
002213 940e 2d54 	CALL SUBOPT_0xC1
002215 cfeb      	RJMP _0x42D
                 _0x42E:
                 ; 0000 0B3A                                     dbufstart = oddbuf+1;
002216 940e 2e63 	CALL SUBOPT_0xEA
                 ; 0000 0B3B                                 }
002218 940e 2e07 	CALL SUBOPT_0xDE
00221a cfdf      	RJMP _0x42A
                 _0x42B:
                 ; 0000 0B3C 
                 ; 0000 0B3D                                 dbufstart = oddbuf+1;
00221b 940e 2e63 	CALL SUBOPT_0xEA
                 ; 0000 0B3E                                 //###########################
                 ; 0000 0B3F                                 //###  Solenoid OFF Time  ###
                 ; 0000 0B40                                 //###########################
                 ; 0000 0B41                                 for(lcnt = 0;lcnt<=7;lcnt++){
00221d e0e0      	LDI  R30,LOW(0)
00221e 87e8      	STD  Y+8,R30
00221f 87e9      	STD  Y+8+1,R30
                 _0x430:
002220 85a8      	LDD  R26,Y+8
002221 85b9      	LDD  R27,Y+8+1
002222 9718      	SBIW R26,8
002223 f4e8      	BRSH _0x431
                 ; 0000 0B42                                     for(jcnt=0; jcnt<=5; jcnt++){
002224 e0e0      	LDI  R30,LOW(0)
002225 83ee      	STD  Y+6,R30
002226 83ef      	STD  Y+6+1,R30
                 _0x433:
002227 81ae      	LDD  R26,Y+6
002228 81bf      	LDD  R27,Y+6+1
002229 9716      	SBIW R26,6
00222a f488      	BRSH _0x434
                 ; 0000 0B43                                         oddbuf = dbufstart +  (jcnt * 2) + 1;
00222b 940e 2e1a 	CALL SUBOPT_0xE2
00222d 940e 2e22 	CALL SUBOPT_0xE3
                 ; 0000 0B44                                         evenbuf = dbufstart + (jcnt * 2);
00222f 940e 2eb6 	CALL SUBOPT_0xF6
                 ; 0000 0B45 
                 ; 0000 0B46                                         TxBuffer[evenbuf] = SOL_INFO[lcnt].offtime[jcnt] >> 8;             //High Byte
002231 940e 2e68 	CALL SUBOPT_0xEB
002233 940e 2ec2 	CALL SUBOPT_0xF7
                 ; 0000 0B47                                         TxBuffer[oddbuf] = SOL_INFO[lcnt].offtime[jcnt] & 0xFF;           //Low Byte
002235 940e 2e68 	CALL SUBOPT_0xEB
002237 940e 2ed5 	CALL SUBOPT_0xF8
                 ; 0000 0B48                                     }
002239 940e 2d54 	CALL SUBOPT_0xC1
00223b cfeb      	RJMP _0x433
                 _0x434:
                 ; 0000 0B49                                     dbufstart = oddbuf+1;
00223c 940e 2e63 	CALL SUBOPT_0xEA
                 ; 0000 0B4A                                 }
00223e 940e 2e07 	CALL SUBOPT_0xDE
002240 cfdf      	RJMP _0x430
                 _0x431:
                 ; 0000 0B4B 
                 ; 0000 0B4C                                 dbufstart = oddbuf+1;
002241 940e 2e63 	CALL SUBOPT_0xEA
                 ; 0000 0B4D                                 //'########################################
                 ; 0000 0B4E                                 //'###  Solenoid Start Bucket Position  ###
                 ; 0000 0B4F                                 //'########################################
                 ; 0000 0B50                                 for(lcnt = 0;lcnt<=7;lcnt++){
002243 e0e0      	LDI  R30,LOW(0)
002244 87e8      	STD  Y+8,R30
002245 87e9      	STD  Y+8+1,R30
                 _0x436:
002246 85a8      	LDD  R26,Y+8
002247 85b9      	LDD  R27,Y+8+1
002248 9718      	SBIW R26,8
002249 f4e0      	BRSH _0x437
                 ; 0000 0B51                                     oddbuf = dbufstart + (lcnt * 2) + 1;
00224a 940e 2e6e 	CALL SUBOPT_0xEC
00224c 9631      	ADIW R30,1
00224d 83ec      	STD  Y+4,R30
00224e 83fd      	STD  Y+4+1,R31
                 ; 0000 0B52                                     evenbuf = dbufstart + (lcnt * 2);
00224f 940e 2e6e 	CALL SUBOPT_0xEC
002251 940e 2eda 	CALL SUBOPT_0xF9
                 ; 0000 0B53 
                 ; 0000 0B54                                     TxBuffer[evenbuf] = PACKER_INFO[lcnt].startpocketnumber >> 8;             //High Byt ...
002253 01bf      	MOVW R22,R30
002254 940e 2edf 	CALL SUBOPT_0xFA
002256 91ac      	LD   R26,X
002257 e0e8      	LDI  R30,LOW(8)
002258 940e 304e 	CALL __LSRB12
00225a 01db      	MOVW R26,R22
00225b 940e 2ee9 	CALL SUBOPT_0xFB
                 ; 0000 0B55                                     TxBuffer[oddbuf] = PACKER_INFO[lcnt].startpocketnumber & 0xFF;           //Low Byte
00225d 010f      	MOVW R0,R30
00225e 940e 2edf 	CALL SUBOPT_0xFA
002260 91ec      	LD   R30,X
002261 01d0      	MOVW R26,R0
002262 93ec      	ST   X,R30
                 ; 0000 0B56                                 }
002263 940e 2e07 	CALL SUBOPT_0xDE
002265 cfe0      	RJMP _0x436
                 _0x437:
                 ; 0000 0B57 
                 ; 0000 0B58                                 dbufstart = oddbuf+1;
002266 940e 2e63 	CALL SUBOPT_0xEA
                 ; 0000 0B59                                 //###################################
                 ; 0000 0B5A                                 //###  PRT Start Bucket Position  ###
                 ; 0000 0B5B                                 //###################################
                 ; 0000 0B5C                                 TxBuffer[dbufstart] = PRT_INFO[1].startpocketnumber >> 8;
002268 01da      	MOVW R26,R20
002269 5ea0      	SUBI R26,LOW(-_TxBuffer)
00226a 4eb9      	SBCI R27,HIGH(-_TxBuffer)
                +
00226b 91e0 0d12+LDS R30 , _PRT_INFO + ( 10 )
00226d 91f0 0d13+LDS R31 , _PRT_INFO + ( 10 ) + 1
                 	__GETW1MN _PRT_INFO,10
00226f 940e 2eef 	CALL SUBOPT_0xFC
                 ; 0000 0B5D                                 TxBuffer[dbufstart + 1] = PRT_INFO[1].startpocketnumber & 0xFF;
                +
002271 5def     +SUBI R30 , LOW ( - _TxBuffer - ( 1 ) )
002272 4ef9     +SBCI R31 , HIGH ( - _TxBuffer - ( 1 ) )
                 	__ADDW1MN _TxBuffer,1
002273 01df      	MOVW R26,R30
                +
002274 91e0 0d12+LDS R30 , _PRT_INFO + ( 10 )
                 	__GETB1MN _PRT_INFO,10
002276 93ec      	ST   X,R30
                 ; 0000 0B5E                                 TxBuffer[dbufstart + 2] = PRT_INFO[2].startpocketnumber >> 8;
002277 01fa      	MOVW R30,R20
                +
002278 5dee     +SUBI R30 , LOW ( - _TxBuffer - ( 2 ) )
002279 4ef9     +SBCI R31 , HIGH ( - _TxBuffer - ( 2 ) )
                 	__ADDW1MN _TxBuffer,2
00227a 01df      	MOVW R26,R30
                +
00227b 91e0 0d18+LDS R30 , _PRT_INFO + ( 16 )
00227d 91f0 0d19+LDS R31 , _PRT_INFO + ( 16 ) + 1
                 	__GETW1MN _PRT_INFO,16
00227f 940e 2eef 	CALL SUBOPT_0xFC
                 ; 0000 0B5F                                 TxBuffer[dbufstart + 3] = PRT_INFO[2].startpocketnumber & 0xFF;
                +
002281 5ded     +SUBI R30 , LOW ( - _TxBuffer - ( 3 ) )
002282 4ef9     +SBCI R31 , HIGH ( - _TxBuffer - ( 3 ) )
                 	__ADDW1MN _TxBuffer,3
002283 01df      	MOVW R26,R30
                +
002284 91e0 0d18+LDS R30 , _PRT_INFO + ( 16 )
                 	__GETB1MN _PRT_INFO,16
002286 93ec      	ST   X,R30
                 ; 0000 0B60 
                 ; 0000 0B61                                 dbufstart = dbufstart + 4;
                +
002287 5f4c     +SUBI R20 , LOW ( - 4 )
002288 4f5f     +SBCI R21 , HIGH ( - 4 )
                 	__ADDWRN 20,21,4
                 ; 0000 0B62                                 //#########################
                 ; 0000 0B63                                 //###  PRT ON/OFF TIME  ###
                 ; 0000 0B64                                 //#########################
                 ; 0000 0B65                                 TxBuffer[dbufstart] = PRT_INFO[1].ontime >> 8;
002289 01da      	MOVW R26,R20
00228a 5ea0      	SUBI R26,LOW(-_TxBuffer)
00228b 4eb9      	SBCI R27,HIGH(-_TxBuffer)
                +
00228c 91e0 0d0e+LDS R30 , _PRT_INFO + ( 6 )
00228e 91f0 0d0f+LDS R31 , _PRT_INFO + ( 6 ) + 1
                 	__GETW1MN _PRT_INFO,6
002290 940e 2eef 	CALL SUBOPT_0xFC
                 ; 0000 0B66                                 TxBuffer[dbufstart+1] = PRT_INFO[1].ontime & 0xFF;
                +
002292 5def     +SUBI R30 , LOW ( - _TxBuffer - ( 1 ) )
002293 4ef9     +SBCI R31 , HIGH ( - _TxBuffer - ( 1 ) )
                 	__ADDW1MN _TxBuffer,1
002294 01df      	MOVW R26,R30
                +
002295 91e0 0d0e+LDS R30 , _PRT_INFO + ( 6 )
                 	__GETB1MN _PRT_INFO,6
002297 93ec      	ST   X,R30
                 ; 0000 0B67                                 TxBuffer[dbufstart+2] = PRT_INFO[1].offtime >> 8;
002298 01fa      	MOVW R30,R20
                +
002299 5dee     +SUBI R30 , LOW ( - _TxBuffer - ( 2 ) )
00229a 4ef9     +SBCI R31 , HIGH ( - _TxBuffer - ( 2 ) )
                 	__ADDW1MN _TxBuffer,2
00229b 01df      	MOVW R26,R30
                +
00229c 91e0 0d10+LDS R30 , _PRT_INFO + ( 8 )
00229e 91f0 0d11+LDS R31 , _PRT_INFO + ( 8 ) + 1
                 	__GETW1MN _PRT_INFO,8
0022a0 940e 2eef 	CALL SUBOPT_0xFC
                 ; 0000 0B68                                 TxBuffer[dbufstart+3] = PRT_INFO[1].offtime & 0xFF;
                +
0022a2 5ded     +SUBI R30 , LOW ( - _TxBuffer - ( 3 ) )
0022a3 4ef9     +SBCI R31 , HIGH ( - _TxBuffer - ( 3 ) )
                 	__ADDW1MN _TxBuffer,3
0022a4 01df      	MOVW R26,R30
                +
0022a5 91e0 0d10+LDS R30 , _PRT_INFO + ( 8 )
                 	__GETB1MN _PRT_INFO,8
0022a7 93ec      	ST   X,R30
                 ; 0000 0B69 
                 ; 0000 0B6A                                 TxBuffer[dbufstart+4] = PRT_INFO[2].ontime >> 8;
0022a8 01fa      	MOVW R30,R20
                +
0022a9 5dec     +SUBI R30 , LOW ( - _TxBuffer - ( 4 ) )
0022aa 4ef9     +SBCI R31 , HIGH ( - _TxBuffer - ( 4 ) )
                 	__ADDW1MN _TxBuffer,4
0022ab 01df      	MOVW R26,R30
                +
0022ac 91e0 0d14+LDS R30 , _PRT_INFO + ( 12 )
0022ae 91f0 0d15+LDS R31 , _PRT_INFO + ( 12 ) + 1
                 	__GETW1MN _PRT_INFO,12
0022b0 940e 2eef 	CALL SUBOPT_0xFC
                 ; 0000 0B6B                                 TxBuffer[dbufstart+5] = PRT_INFO[2].ontime & 0xFF;
                +
0022b2 5deb     +SUBI R30 , LOW ( - _TxBuffer - ( 5 ) )
0022b3 4ef9     +SBCI R31 , HIGH ( - _TxBuffer - ( 5 ) )
                 	__ADDW1MN _TxBuffer,5
0022b4 01df      	MOVW R26,R30
                +
0022b5 91e0 0d14+LDS R30 , _PRT_INFO + ( 12 )
                 	__GETB1MN _PRT_INFO,12
0022b7 93ec      	ST   X,R30
                 ; 0000 0B6C                                 TxBuffer[dbufstart+6] = PRT_INFO[2].offtime >> 8;
0022b8 01fa      	MOVW R30,R20
                +
0022b9 5dea     +SUBI R30 , LOW ( - _TxBuffer - ( 6 ) )
0022ba 4ef9     +SBCI R31 , HIGH ( - _TxBuffer - ( 6 ) )
                 	__ADDW1MN _TxBuffer,6
0022bb 01df      	MOVW R26,R30
                +
0022bc 91e0 0d16+LDS R30 , _PRT_INFO + ( 14 )
0022be 91f0 0d17+LDS R31 , _PRT_INFO + ( 14 ) + 1
                 	__GETW1MN _PRT_INFO,14
0022c0 940e 2eef 	CALL SUBOPT_0xFC
                 ; 0000 0B6D                                 TxBuffer[dbufstart+7] = PRT_INFO[2].offtime & 0xFF;
                +
0022c2 5de9     +SUBI R30 , LOW ( - _TxBuffer - ( 7 ) )
0022c3 4ef9     +SBCI R31 , HIGH ( - _TxBuffer - ( 7 ) )
                 	__ADDW1MN _TxBuffer,7
0022c4 01df      	MOVW R26,R30
                +
0022c5 91e0 0d16+LDS R30 , _PRT_INFO + ( 14 )
                 	__GETB1MN _PRT_INFO,14
0022c7 93ec      	ST   X,R30
                 ; 0000 0B6E 
                 ; 0000 0B6F                                 TxBuffer[dbufstart+8] = ABN_INFO.AbnBucketNum  >> 8;
0022c8 01fa      	MOVW R30,R20
                +
0022c9 5de8     +SUBI R30 , LOW ( - _TxBuffer - ( 8 ) )
0022ca 4ef9     +SBCI R31 , HIGH ( - _TxBuffer - ( 8 ) )
                 	__ADDW1MN _TxBuffer,8
0022cb 01df      	MOVW R26,R30
0022cc 91e0 0d2d 	LDS  R30,_ABN_INFO+1
0022ce 93ec      	ST   X,R30
                 ; 0000 0B70                                 TxBuffer[dbufstart+9] = ABN_INFO.AbnBucketNum & 0xFF;
0022cf 01fa      	MOVW R30,R20
                +
0022d0 5de7     +SUBI R30 , LOW ( - _TxBuffer - ( 9 ) )
0022d1 4ef9     +SBCI R31 , HIGH ( - _TxBuffer - ( 9 ) )
                 	__ADDW1MN _TxBuffer,9
0022d2 01df      	MOVW R26,R30
0022d3 91e0 0d2c 	LDS  R30,_ABN_INFO
0022d5 93ec      	ST   X,R30
                 ; 0000 0B71 
                 ; 0000 0B72                                 dbufstart = dbufstart + 10;
                +
0022d6 5f46     +SUBI R20 , LOW ( - 10 )
0022d7 4f5f     +SBCI R21 , HIGH ( - 10 )
                 	__ADDWRN 20,21,10
                 ; 0000 0B73                                 //###########################
                 ; 0000 0B74                                 //###  ETX & Data Length  ###
                 ; 0000 0B75                                 //###########################
                 ; 0000 0B76                                 TxBuffer[1] = (dbufstart-3) >> 8;
0022d8 01fa      	MOVW R30,R20
0022d9 9733      	SBIW R30,3
0022da 940e 2a65 	CALL SUBOPT_0x5A
                 ; 0000 0B77                                 TxBuffer[2] = (dbufstart-3) & 0xFF;
0022dc 2fe4      	MOV  R30,R20
0022dd 50e3      	SUBI R30,LOW(3)
                +
0022de 93e0 1622+STS _TxBuffer + ( 2 ) , R30
                 	__PUTB1MN _TxBuffer,2
                 ; 0000 0B78                                 TxBuffer[dbufstart] = 0x03;
0022e0 e2a0      	LDI  R26,LOW(_TxBuffer)
0022e1 e1b6      	LDI  R27,HIGH(_TxBuffer)
0022e2 0fa4      	ADD  R26,R20
0022e3 1fb5      	ADC  R27,R21
0022e4 e0e3      	LDI  R30,LOW(3)
0022e5 93ec      	ST   X,R30
                 ; 0000 0B79 
                 ; 0000 0B7A                                 TxEnable = 1;   txcnt = 1;  TxLength = dbufstart+1;   UDR1 = TxBuffer[0];
0022e6 940e 2e16 	CALL SUBOPT_0xE1
0022e8 01fa      	MOVW R30,R20
0022e9 9631      	ADIW R30,1
0022ea 940e 2c14 	CALL SUBOPT_0x93
                 ; 0000 0B7B                                 BuzzerOn();
0022ec 940e 182a 	CALL _BuzzerOn
                 ; 0000 0B7C                                 break;
                 ; 0000 0B7D                             case 0x00 :     //INIT DATA
                 _0x428:
                 ; 0000 0B7E                                 break;
                 ; 0000 0B7F                         }
                 _0x417:
                 ; 0000 0B80 
                 ; 0000 0B81                         break;
0022ee c4ba      	RJMP _0x3BD
                 ; 0000 0B82                     case CMD_GRADEINFO : //0x40 ::   , ,  ,  ,   ...
                 _0x414:
0022ef 34e0      	CPI  R30,LOW(0x40)
0022f0 e0a0      	LDI  R26,HIGH(0x40)
0022f1 07fa      	CPC  R31,R26
0022f2 f009      	BREQ PC+2
0022f3 c2cb      	RJMP _0x439
                 ; 0000 0B83                         switch(RxBuffer[1]){
0022f4 940e 2db1 	CALL SUBOPT_0xD0
                 ; 0000 0B84                             case 0x01 :     //SAVE DATA
0022f6 f009      	BREQ PC+2
0022f7 c16f      	RJMP _0x43D
                 ; 0000 0B85                                 //#######################
                 ; 0000 0B86                                 //###     ###
                 ; 0000 0B87                                 //#######################
                 ; 0000 0B88                                 dbufstart = 2;
                +
0022f8 e042     +LDI R20 , LOW ( 2 )
0022f9 e050     +LDI R21 , HIGH ( 2 )
                 	__GETWRN 20,21,2
                 ; 0000 0B89 
                 ; 0000 0B8A                                 for(lcnt=0;lcnt<=6;lcnt++){
0022fa e0e0      	LDI  R30,LOW(0)
0022fb 87e8      	STD  Y+8,R30
0022fc 87e9      	STD  Y+8+1,R30
                 _0x43F:
0022fd 85a8      	LDD  R26,Y+8
0022fe 85b9      	LDD  R27,Y+8+1
0022ff 9717      	SBIW R26,7
002300 f5a8      	BRSH _0x440
                 ; 0000 0B8B                                     evenbuf = dbufstart + (lcnt * 2);
002301 940e 2e6e 	CALL SUBOPT_0xEC
002303 940e 2ef4 	CALL SUBOPT_0xFD
                 ; 0000 0B8C                                     oddbuf = dbufstart + (lcnt * 2) + 1;
002305 940e 2ef7 	CALL SUBOPT_0xFE
                 ; 0000 0B8D                                     if(lcnt==6){
002307 f4e1      	BRNE _0x441
                 ; 0000 0B8E                                         GRADE_INFO[8].hiLimit = RxBuffer[evenbuf];
                +
002308 e0a0     +LDI R26 , LOW ( _GRADE_INFO + ( 80 ) )
002309 e0bb     +LDI R27 , HIGH ( _GRADE_INFO + ( 80 ) )
                 	__POINTW2MN _GRADE_INFO,80
00230a 940e 2e7f 	CALL SUBOPT_0xEE
00230c e0f0      	LDI  R31,0
00230d 93ed      	ST   X+,R30
00230e 93fc      	ST   X,R31
                 ; 0000 0B8F                                         GRADE_INFO[8].hiLimit <<= 8;
                +
00230f 91f0 0b00+LDS R31 , _GRADE_INFO + ( 80 )
                 	__GETB1HMN _GRADE_INFO,80
002311 e0e0      	LDI  R30,LOW(0)
                +
002312 93e0 0b00+STS _GRADE_INFO + ( 80 ) , R30
002314 93f0 0b01+STS _GRADE_INFO + ( 80 ) + 1 , R31
                 	__PUTW1MN _GRADE_INFO,80
                 ; 0000 0B90                                         GRADE_INFO[8].hiLimit |= RxBuffer[oddbuf];
                +
002316 91a0 0b00+LDS R26 , _GRADE_INFO + ( 80 )
002318 91b0 0b01+LDS R27 , _GRADE_INFO + ( 80 ) + 1
                 	__GETW2MN _GRADE_INFO,80
00231a 940e 2e8b 	CALL SUBOPT_0xF0
00231c e0f0      	LDI  R31,0
00231d 2bea      	OR   R30,R26
00231e 2bfb      	OR   R31,R27
                +
00231f 93e0 0b00+STS _GRADE_INFO + ( 80 ) , R30
002321 93f0 0b01+STS _GRADE_INFO + ( 80 ) + 1 , R31
                 	__PUTW1MN _GRADE_INFO,80
                 ; 0000 0B91                                     }
                 ; 0000 0B92                                     else{
002323 c00f      	RJMP _0x442
                 _0x441:
                 ; 0000 0B93                                         GRADE_INFO[lcnt].hiLimit = RxBuffer[evenbuf];
002324 940e 2efe 	CALL SUBOPT_0xFF
002326 940e 2e7f 	CALL SUBOPT_0xEE
002328 e0f0      	LDI  R31,0
002329 93ed      	ST   X+,R30
00232a 93fc      	ST   X,R31
                 ; 0000 0B94                                         GRADE_INFO[lcnt].hiLimit <<= 8;
00232b 940e 2efe 	CALL SUBOPT_0xFF
00232d 940e 2f07 	CALL SUBOPT_0x100
                 ; 0000 0B95                                         GRADE_INFO[lcnt].hiLimit |= RxBuffer[oddbuf];
00232f 55e0      	SUBI R30,LOW(-_GRADE_INFO)
002330 4ff5      	SBCI R31,HIGH(-_GRADE_INFO)
002331 940e 2e52 	CALL SUBOPT_0xE9
                 ; 0000 0B96                                     }
                 _0x442:
                 ; 0000 0B97                                 }
002333 940e 2e07 	CALL SUBOPT_0xDE
002335 cfc7      	RJMP _0x43F
                 _0x440:
                 ; 0000 0B98 
                 ; 0000 0B99                                 //#######################
                 ; 0000 0B9A                                 //###     ###
                 ; 0000 0B9B                                 //#######################
                 ; 0000 0B9C                                 dbufstart = oddbuf + 1;
002336 940e 2e63 	CALL SUBOPT_0xEA
                 ; 0000 0B9D 
                 ; 0000 0B9E                                 for(lcnt=0;lcnt<=6;lcnt++){
002338 e0e0      	LDI  R30,LOW(0)
002339 87e8      	STD  Y+8,R30
00233a 87e9      	STD  Y+8+1,R30
                 _0x444:
00233b 85a8      	LDD  R26,Y+8
00233c 85b9      	LDD  R27,Y+8+1
00233d 9717      	SBIW R26,7
00233e f5a8      	BRSH _0x445
                 ; 0000 0B9F                                     evenbuf = dbufstart + (lcnt * 2);
00233f 940e 2e6e 	CALL SUBOPT_0xEC
002341 940e 2ef4 	CALL SUBOPT_0xFD
                 ; 0000 0BA0                                     oddbuf = dbufstart + (lcnt * 2) + 1;
002343 940e 2ef7 	CALL SUBOPT_0xFE
                 ; 0000 0BA1                                     if(lcnt==6){
002345 f4e1      	BRNE _0x446
                 ; 0000 0BA2                                         GRADE_INFO[8].loLimit = RxBuffer[evenbuf];
                +
002346 e0a2     +LDI R26 , LOW ( _GRADE_INFO + ( 82 ) )
002347 e0bb     +LDI R27 , HIGH ( _GRADE_INFO + ( 82 ) )
                 	__POINTW2MN _GRADE_INFO,82
002348 940e 2e7f 	CALL SUBOPT_0xEE
00234a e0f0      	LDI  R31,0
00234b 93ed      	ST   X+,R30
00234c 93fc      	ST   X,R31
                 ; 0000 0BA3                                         GRADE_INFO[8].loLimit <<= 8;
                +
00234d 91f0 0b02+LDS R31 , _GRADE_INFO + ( 82 )
                 	__GETB1HMN _GRADE_INFO,82
00234f e0e0      	LDI  R30,LOW(0)
                +
002350 93e0 0b02+STS _GRADE_INFO + ( 82 ) , R30
002352 93f0 0b03+STS _GRADE_INFO + ( 82 ) + 1 , R31
                 	__PUTW1MN _GRADE_INFO,82
                 ; 0000 0BA4                                         GRADE_INFO[8].loLimit |= RxBuffer[oddbuf];
                +
002354 91a0 0b02+LDS R26 , _GRADE_INFO + ( 82 )
002356 91b0 0b03+LDS R27 , _GRADE_INFO + ( 82 ) + 1
                 	__GETW2MN _GRADE_INFO,82
002358 940e 2e8b 	CALL SUBOPT_0xF0
00235a e0f0      	LDI  R31,0
00235b 2bea      	OR   R30,R26
00235c 2bfb      	OR   R31,R27
                +
00235d 93e0 0b02+STS _GRADE_INFO + ( 82 ) , R30
00235f 93f0 0b03+STS _GRADE_INFO + ( 82 ) + 1 , R31
                 	__PUTW1MN _GRADE_INFO,82
                 ; 0000 0BA5                                     }
                 ; 0000 0BA6                                     else{
002361 c00f      	RJMP _0x447
                 _0x446:
                 ; 0000 0BA7                                         GRADE_INFO[lcnt].loLimit = RxBuffer[evenbuf];
002362 940e 2f13 	CALL SUBOPT_0x101
002364 940e 2e7f 	CALL SUBOPT_0xEE
002366 e0f0      	LDI  R31,0
002367 93ed      	ST   X+,R30
002368 93fc      	ST   X,R31
                 ; 0000 0BA8                                         GRADE_INFO[lcnt].loLimit <<= 8;
002369 940e 2f13 	CALL SUBOPT_0x101
00236b 940e 2f07 	CALL SUBOPT_0x100
                 ; 0000 0BA9                                         GRADE_INFO[lcnt].loLimit |= RxBuffer[oddbuf];
                +
00236d 54ee     +SUBI R30 , LOW ( - _GRADE_INFO - ( 2 ) )
00236e 4ff5     +SBCI R31 , HIGH ( - _GRADE_INFO - ( 2 ) )
                 	__ADDW1MN _GRADE_INFO,2
00236f 940e 2e52 	CALL SUBOPT_0xE9
                 ; 0000 0BAA                                     }
                 _0x447:
                 ; 0000 0BAB                                 }
002371 940e 2e07 	CALL SUBOPT_0xDE
002373 cfc7      	RJMP _0x444
                 _0x445:
                 ; 0000 0BAC 
                 ; 0000 0BAD                                 //#########################
                 ; 0000 0BAE                                 //###     ###
                 ; 0000 0BAF                                 //#########################
                 ; 0000 0BB0                                 dbufstart = oddbuf + 1;
002374 940e 2e63 	CALL SUBOPT_0xEA
                 ; 0000 0BB1 
                 ; 0000 0BB2                                 for(lcnt=0;lcnt<=8;lcnt++){
002376 e0e0      	LDI  R30,LOW(0)
002377 87e8      	STD  Y+8,R30
002378 87e9      	STD  Y+8+1,R30
                 _0x449:
002379 85a8      	LDD  R26,Y+8
00237a 85b9      	LDD  R27,Y+8+1
00237b 9719      	SBIW R26,9
00237c f4d8      	BRSH _0x44A
                 ; 0000 0BB3                                     evenbuf = dbufstart + (lcnt * 2);
00237d 940e 2e6e 	CALL SUBOPT_0xEC
00237f 940e 2ef4 	CALL SUBOPT_0xFD
                 ; 0000 0BB4                                     oddbuf = dbufstart + (lcnt * 2) + 1;
002381 9631      	ADIW R30,1
002382 940e 2f1c 	CALL SUBOPT_0x102
                 ; 0000 0BB5 
                 ; 0000 0BB6                                     GRADE_INFO[lcnt].prtSetCount = RxBuffer[evenbuf];
002384 940e 2f21 	CALL SUBOPT_0x103
002386 940e 2e7f 	CALL SUBOPT_0xEE
002388 e0f0      	LDI  R31,0
002389 93ed      	ST   X+,R30
00238a 93fc      	ST   X,R31
                 ; 0000 0BB7                                     GRADE_INFO[lcnt].prtSetCount <<= 8;
00238b 85a8      	LDD  R26,Y+8
00238c 85b9      	LDD  R27,Y+8+1
00238d 940e 2f21 	CALL SUBOPT_0x103
00238f 940e 2f07 	CALL SUBOPT_0x100
                 ; 0000 0BB8                                     GRADE_INFO[lcnt].prtSetCount |= RxBuffer[oddbuf];
                +
002391 54ea     +SUBI R30 , LOW ( - _GRADE_INFO - ( 6 ) )
002392 4ff5     +SBCI R31 , HIGH ( - _GRADE_INFO - ( 6 ) )
                 	__ADDW1MN _GRADE_INFO,6
002393 940e 2e52 	CALL SUBOPT_0xE9
                 ; 0000 0BB9                                 }
002395 940e 2e07 	CALL SUBOPT_0xDE
002397 cfe1      	RJMP _0x449
                 _0x44A:
                 ; 0000 0BBA 
                 ; 0000 0BBB                                 //#########################
                 ; 0000 0BBC                                 //###     ###
                 ; 0000 0BBD                                 //#########################
                 ; 0000 0BBE                                 dbufstart = oddbuf + 1;
002398 940e 2e63 	CALL SUBOPT_0xEA
                 ; 0000 0BBF 
                 ; 0000 0BC0                                 for(lcnt=0;lcnt<=8;lcnt++){
00239a e0e0      	LDI  R30,LOW(0)
00239b 87e8      	STD  Y+8,R30
00239c 87e9      	STD  Y+8+1,R30
                 _0x44C:
00239d 85a8      	LDD  R26,Y+8
00239e 85b9      	LDD  R27,Y+8+1
00239f 9719      	SBIW R26,9
0023a0 f4b8      	BRSH _0x44D
                 ; 0000 0BC1                                     evenbuf = dbufstart + lcnt;
0023a1 940e 2f28 	CALL SUBOPT_0x104
0023a3 83ea      	STD  Y+2,R30
0023a4 83fb      	STD  Y+2+1,R31
                 ; 0000 0BC2 
                 ; 0000 0BC3                                     GRADE_INFO[lcnt].prttype = RxBuffer[evenbuf];
0023a5 940e 2e0d 	CALL SUBOPT_0xDF
0023a7 01df      	MOVW R26,R30
0023a8 940e 2e7f 	CALL SUBOPT_0xEE
0023aa 93ec      	ST   X,R30
                 ; 0000 0BC4                                     old_prttype[lcnt] = GRADE_INFO[lcnt].prttype;
0023ab 85e8      	LDD  R30,Y+8
0023ac 85f9      	LDD  R31,Y+8+1
0023ad 57e2      	SUBI R30,LOW(-_old_prttype)
0023ae 4ef1      	SBCI R31,HIGH(-_old_prttype)
                +
0023af 2f7e     +MOV R23 , R30
0023b0 2f8f     +MOV R24 , R31
                 	__PUTW1R 23,24
0023b1 940e 2e0d 	CALL SUBOPT_0xDF
0023b3 940e 2f2d 	CALL SUBOPT_0x105
                 ; 0000 0BC5 
                 ; 0000 0BC6                                 }
0023b5 940e 2e07 	CALL SUBOPT_0xDE
0023b7 cfe5      	RJMP _0x44C
                 _0x44D:
                 ; 0000 0BC7 
                 ; 0000 0BC8                                 //################################
                 ; 0000 0BC9                                 //###      ###
                 ; 0000 0BCA                                 //################################
                 ; 0000 0BCB                                 dbufstart = evenbuf + 1;
0023b8 940e 2f32 	CALL SUBOPT_0x106
                 ; 0000 0BCC 
                 ; 0000 0BCD                                 for(lcnt=0;lcnt<=7;lcnt++){
                 _0x44F:
0023ba 85a8      	LDD  R26,Y+8
0023bb 85b9      	LDD  R27,Y+8+1
0023bc 9718      	SBIW R26,8
0023bd f468      	BRSH _0x450
                 ; 0000 0BCE                                     evenbuf = dbufstart + lcnt;
0023be 940e 2f28 	CALL SUBOPT_0x104
0023c0 940e 2e76 	CALL SUBOPT_0xED
                 ; 0000 0BCF 
                 ; 0000 0BD0                                     PACKER_INFO[lcnt].solcount = RxBuffer[evenbuf];
0023c2 0fae      	ADD  R26,R30
0023c3 1fbf      	ADC  R27,R31
0023c4 9612      	ADIW R26,2
0023c5 940e 2e7f 	CALL SUBOPT_0xEE
0023c7 93ec      	ST   X,R30
                 ; 0000 0BD1                                 }
0023c8 940e 2e07 	CALL SUBOPT_0xDE
0023ca cfef      	RJMP _0x44F
                 _0x450:
                 ; 0000 0BD2 
                 ; 0000 0BD3                                 //################################
                 ; 0000 0BD4                                 //###      ###
                 ; 0000 0BD5                                 //################################
                 ; 0000 0BD6                                 dbufstart = evenbuf + 1;
0023cb 940e 2f32 	CALL SUBOPT_0x106
                 ; 0000 0BD7 
                 ; 0000 0BD8                                 for(lcnt=0;lcnt<=7;lcnt++){
                 _0x452:
0023cd 85a8      	LDD  R26,Y+8
0023ce 85b9      	LDD  R27,Y+8+1
0023cf 9718      	SBIW R26,8
0023d0 f480      	BRSH _0x453
                 ; 0000 0BD9                                     evenbuf = dbufstart + lcnt;
0023d1 940e 2f28 	CALL SUBOPT_0x104
0023d3 940e 2f3a 	CALL SUBOPT_0x107
                 ; 0000 0BDA 
                 ; 0000 0BDB                                     GRADE_INFO[lcnt].solenoidnumber = RxBuffer[evenbuf];
0023d5 e0ea      	LDI  R30,LOW(10)
0023d6 940e 30a4 	CALL __MULB1W2U
                +
0023d8 54ec     +SUBI R30 , LOW ( - _GRADE_INFO - ( 4 ) )
0023d9 4ff5     +SBCI R31 , HIGH ( - _GRADE_INFO - ( 4 ) )
                 	__ADDW1MN _GRADE_INFO,4
0023da 01df      	MOVW R26,R30
0023db 940e 2e7f 	CALL SUBOPT_0xEE
0023dd 93ec      	ST   X,R30
                 ; 0000 0BDC                                 }
0023de 940e 2e07 	CALL SUBOPT_0xDE
0023e0 cfec      	RJMP _0x452
                 _0x453:
                 ; 0000 0BDD 
                 ; 0000 0BDE                                 //#########################
                 ; 0000 0BDF                                 //###     ###
                 ; 0000 0BE0                                 //#########################
                 ; 0000 0BE1                                 dbufstart = evenbuf + 1;
0023e1 940e 2f32 	CALL SUBOPT_0x106
                 ; 0000 0BE2 
                 ; 0000 0BE3                                 for(lcnt=0;lcnt<=8;lcnt++){
                 _0x455:
0023e3 85a8      	LDD  R26,Y+8
0023e4 85b9      	LDD  R27,Y+8+1
0023e5 9719      	SBIW R26,9
0023e6 f508      	BRSH _0x456
                 ; 0000 0BE4                                     evenbuf = dbufstart + (2 * lcnt);
0023e7 940e 2e6e 	CALL SUBOPT_0xEC
0023e9 940e 2ef4 	CALL SUBOPT_0xFD
                 ; 0000 0BE5                                     oddbuf = dbufstart + (2 * lcnt) + 1;
0023eb 9631      	ADIW R30,1
0023ec 83ec      	STD  Y+4,R30
0023ed 83fd      	STD  Y+4+1,R31
                 ; 0000 0BE6 
                 ; 0000 0BE7                                     PACKER_INFO[lcnt].gradetype = RxBuffer[evenbuf];
0023ee 940e 2f3f 	CALL SUBOPT_0x108
0023f0 940e 2e7f 	CALL SUBOPT_0xEE
0023f2 e0f0      	LDI  R31,0
0023f3 93ed      	ST   X+,R30
0023f4 93fc      	ST   X,R31
                 ; 0000 0BE8                                     PACKER_INFO[lcnt].gradetype <<= 8;
0023f5 940e 2f3f 	CALL SUBOPT_0x108
0023f7 91ed      	LD   R30,X+
0023f8 91fd      	LD   R31,X+
0023f9 2ffe      	MOV  R31,R30
0023fa e0e0      	LDI  R30,0
0023fb 93fe      	ST   -X,R31
0023fc 93ee      	ST   -X,R30
                 ; 0000 0BE9                                     PACKER_INFO[lcnt].gradetype |= RxBuffer[oddbuf];
0023fd 85e8      	LDD  R30,Y+8
0023fe 85f9      	LDD  R31,Y+8+1
0023ff ebaa      	LDI  R26,LOW(_PACKER_INFO)
002400 e0bc      	LDI  R27,HIGH(_PACKER_INFO)
002401 940e 29e5 	CALL SUBOPT_0x47
002403 940e 2e52 	CALL SUBOPT_0xE9
                 ; 0000 0BEA                                 }
002405 940e 2e07 	CALL SUBOPT_0xDE
002407 cfdb      	RJMP _0x455
                 _0x456:
                 ; 0000 0BEB 
                 ; 0000 0BEC                                 //#########################################
                 ; 0000 0BED                                 //###  -      ###
                 ; 0000 0BEE                                 //###  2014.11.24                   ###
                 ; 0000 0BEF                                 //#########################################
                 ; 0000 0BF0                                 PackerSharedEnable = PACKER_INFO[8].gradetype;
                +
002408 91e0 0cda+LDS R30 , _PACKER_INFO + ( 32 )
                 	__GETB1MN _PACKER_INFO,32
00240a 93e0 2044 	STS  _PackerSharedEnable,R30
                 ; 0000 0BF1 
                 ; 0000 0BF2                                 //##############################
                 ; 0000 0BF3                                 //###    ID  ###
                 ; 0000 0BF4                                 //##############################
                 ; 0000 0BF5                                 dbufstart = oddbuf + 1;
00240c 940e 2e63 	CALL SUBOPT_0xEA
                 ; 0000 0BF6 
                 ; 0000 0BF7                                 for(lcnt=0;lcnt<=7;lcnt++){
00240e e0e0      	LDI  R30,LOW(0)
00240f 87e8      	STD  Y+8,R30
002410 87e9      	STD  Y+8+1,R30
                 _0x458:
002411 85a8      	LDD  R26,Y+8
002412 85b9      	LDD  R27,Y+8+1
002413 9718      	SBIW R26,8
002414 f530      	BRSH _0x459
                 ; 0000 0BF8                                     for(jcnt=0;jcnt<=5;jcnt++){
002415 e0e0      	LDI  R30,LOW(0)
002416 83ee      	STD  Y+6,R30
002417 83ef      	STD  Y+6+1,R30
                 _0x45B:
002418 81ae      	LDD  R26,Y+6
002419 81bf      	LDD  R27,Y+6+1
00241a 9716      	SBIW R26,6
00241b f4d0      	BRSH _0x45C
                 ; 0000 0BF9                                         evenbuf = dbufstart + (jcnt * 2);
00241c 940e 2e1a 	CALL SUBOPT_0xE2
00241e 83ea      	STD  Y+2,R30
00241f 83fb      	STD  Y+2+1,R31
                 ; 0000 0BFA                                         oddbuf = dbufstart + (jcnt * 2) + 1;
002420 940e 2e1a 	CALL SUBOPT_0xE2
002422 9631      	ADIW R30,1
002423 940e 2f1c 	CALL SUBOPT_0x102
                 ; 0000 0BFB 
                 ; 0000 0BFC                                         SOL_INFO[lcnt].sol_id[jcnt]=RxBuffer[evenbuf];
002425 940e 2f44 	CALL SUBOPT_0x109
002427 940e 2e34 	CALL SUBOPT_0xE6
                 ; 0000 0BFD                                         SOL_INFO[lcnt].sol_id[jcnt]<<=8;
002429 940e 2f4d 	CALL SUBOPT_0x10A
00242b 940e 2e42 	CALL SUBOPT_0xE7
                 ; 0000 0BFE                                         SOL_INFO[lcnt].sol_id[jcnt]|=RxBuffer[oddbuf];
                +
00242d 5de2     +SUBI R30 , LOW ( - _SOL_INFO - ( 36 ) )
00242e 4ff4     +SBCI R31 , HIGH ( - _SOL_INFO - ( 36 ) )
                 	__ADDW1MN _SOL_INFO,36
00242f 940e 2e4e 	CALL SUBOPT_0xE8
002431 940e 2e52 	CALL SUBOPT_0xE9
                 ; 0000 0BFF                                     }
002433 940e 2d54 	CALL SUBOPT_0xC1
002435 cfe2      	RJMP _0x45B
                 _0x45C:
                 ; 0000 0C00                                     dbufstart = oddbuf + 1;
002436 940e 2e63 	CALL SUBOPT_0xEA
                 ; 0000 0C01                                 }
002438 940e 2e07 	CALL SUBOPT_0xDE
00243a cfd6      	RJMP _0x458
                 _0x459:
                 ; 0000 0C02 
                 ; 0000 0C03                                 //#####################################
                 ; 0000 0C04                                 //###       ###
                 ; 0000 0C05                                 //#####################################
                 ; 0000 0C06                                 dbufstart = oddbuf + 1;
00243b 940e 2e63 	CALL SUBOPT_0xEA
                 ; 0000 0C07 
                 ; 0000 0C08                                 for(lcnt=0;lcnt<=7;lcnt++){
00243d e0e0      	LDI  R30,LOW(0)
00243e 87e8      	STD  Y+8,R30
00243f 87e9      	STD  Y+8+1,R30
                 _0x45E:
002440 85a8      	LDD  R26,Y+8
002441 85b9      	LDD  R27,Y+8+1
002442 9718      	SBIW R26,8
002443 f4d0      	BRSH _0x45F
                 ; 0000 0C09                                     for(jcnt=0;jcnt<=5;jcnt++){
002444 e0e0      	LDI  R30,LOW(0)
002445 83ee      	STD  Y+6,R30
002446 83ef      	STD  Y+6+1,R30
                 _0x461:
002447 81ae      	LDD  R26,Y+6
002448 81bf      	LDD  R27,Y+6+1
002449 9716      	SBIW R26,6
00244a f470      	BRSH _0x462
                 ; 0000 0C0A                                         oddbuf = dbufstart + jcnt;
00244b 81ee      	LDD  R30,Y+6
00244c 81ff      	LDD  R31,Y+6+1
00244d 0fe4      	ADD  R30,R20
00244e 1ff5      	ADC  R31,R21
00244f 940e 2f1c 	CALL SUBOPT_0x102
                 ; 0000 0C0B                                         SOL_INFO[lcnt].outsignal[jcnt] = RxBuffer[oddbuf];
002451 940e 2f53 	CALL SUBOPT_0x10B
002453 940e 2e8b 	CALL SUBOPT_0xF0
002455 93ec      	ST   X,R30
                 ; 0000 0C0C                                     }
002456 940e 2d54 	CALL SUBOPT_0xC1
002458 cfee      	RJMP _0x461
                 _0x462:
                 ; 0000 0C0D                                     dbufstart = oddbuf + 1;
002459 940e 2e63 	CALL SUBOPT_0xEA
                 ; 0000 0C0E                                 }
00245b 940e 2e07 	CALL SUBOPT_0xDE
00245d cfe2      	RJMP _0x45E
                 _0x45F:
                 ; 0000 0C0F 
                 ; 0000 0C10                                 //Data Save Flash Memory
                 ; 0000 0C11                                 PUT_USR_INFO_DATA(GRADE_INFO_DATA);
00245e e0ab      	LDI  R26,LOW(11)
00245f e0b0      	LDI  R27,0
002460 940e 04d4 	CALL _PUT_USR_INFO_DATA
                 ; 0000 0C12                                 PUT_USR_INFO_DATA(SOL_INFO_DATA);
002462 940e 2eae 	CALL SUBOPT_0xF5
                 ; 0000 0C13                                 PUT_USR_INFO_DATA(PACKER_INFO_DATA);
                 ; 0000 0C14 
                 ; 0000 0C15                                 BuzzerOn();
002464 940e 182a 	CALL _BuzzerOn
                 ; 0000 0C16                                 break;
002466 c157      	RJMP _0x43C
                 ; 0000 0C17                             case 0x02 :     //REQ DATA
                 _0x43D:
002467 30e2      	CPI  R30,LOW(0x2)
002468 e0a0      	LDI  R26,HIGH(0x2)
002469 07fa      	CPC  R31,R26
00246a f009      	BREQ PC+2
00246b c152      	RJMP _0x463
                 ; 0000 0C18                                 //#######################
                 ; 0000 0C19                                 //###     ###
                 ; 0000 0C1A                                 //#######################
                 ; 0000 0C1B                                 TxBuffer[0] = 0x02;
00246c e0e2      	LDI  R30,LOW(2)
00246d 93e0 1620 	STS  _TxBuffer,R30
                 ; 0000 0C1C                                 TxBuffer[3] = 0x40;
00246f e4e0      	LDI  R30,LOW(64)
002470 940e 2e10 	CALL SUBOPT_0xE0
                 ; 0000 0C1D                                 TxBuffer[4] = 0x02;
                 ; 0000 0C1E 
                 ; 0000 0C1F                                 bufpos = 5;
002472 e0e5      	LDI  R30,LOW(5)
002473 e0f0      	LDI  R31,HIGH(5)
002474 83e8      	ST   Y,R30
002475 83f9      	STD  Y+1,R31
                 ; 0000 0C20                                 if(GRADE_INFO[0].hiLimit<100){
002476 91a0 0ab0 	LDS  R26,_GRADE_INFO
002478 91b0 0ab1 	LDS  R27,_GRADE_INFO+1
00247a 36a4      	CPI  R26,LOW(0x64)
00247b e0e0      	LDI  R30,HIGH(0x64)
00247c 07be      	CPC  R27,R30
00247d f414      	BRGE _0x464
                 ; 0000 0C21                                     GRADE_INFO[0].hiLimit = GRADE_INFO[8].hiLimit - 1;
00247e 940e 2d3c 	CALL SUBOPT_0xBE
                 ; 0000 0C22                                 }
                 ; 0000 0C23 
                 ; 0000 0C24                                 for(lcnt=0;lcnt<=6;lcnt++){
                 _0x464:
002480 e0e0      	LDI  R30,LOW(0)
002481 87e8      	STD  Y+8,R30
002482 87e9      	STD  Y+8+1,R30
                 _0x466:
002483 85a8      	LDD  R26,Y+8
002484 85b9      	LDD  R27,Y+8+1
002485 9717      	SBIW R26,7
002486 f518      	BRSH _0x467
                 ; 0000 0C25                                     evenbuf = bufpos + (lcnt * 2);
002487 940e 2f5d 	CALL SUBOPT_0x10C
                 ; 0000 0C26                                     oddbuf = bufpos + (lcnt * 2) + 1;
002489 940e 2f67 	CALL SUBOPT_0x10D
                 ; 0000 0C27                                     if(lcnt==6){
00248b f469      	BRNE _0x468
                 ; 0000 0C28                                         TxBuffer[evenbuf] = GRADE_INFO[8].hiLimit >>8 ;
00248c 81aa      	LDD  R26,Y+2
00248d 81bb      	LDD  R27,Y+2+1
00248e 5ea0      	SUBI R26,LOW(-_TxBuffer)
00248f 4eb9      	SBCI R27,HIGH(-_TxBuffer)
                +
002490 91e0 0b00+LDS R30 , _GRADE_INFO + ( 80 )
002492 91f0 0b01+LDS R31 , _GRADE_INFO + ( 80 ) + 1
                 	__GETW1MN _GRADE_INFO,80
002494 940e 2f6f 	CALL SUBOPT_0x10E
                 ; 0000 0C29                                         TxBuffer[oddbuf] = GRADE_INFO[8].hiLimit & 0xFF;
                +
002496 91e0 0b00+LDS R30 , _GRADE_INFO + ( 80 )
                 	__GETB1MN _GRADE_INFO,80
002498 c00d      	RJMP _0x4D8
                 ; 0000 0C2A                                     }
                 ; 0000 0C2B                                     else{
                 _0x468:
                 ; 0000 0C2C                                         TxBuffer[evenbuf] = GRADE_INFO[lcnt].hiLimit >>8 ;
002499 940e 2f77 	CALL SUBOPT_0x10F
00249b 940e 2efe 	CALL SUBOPT_0xFF
00249d 940e 2f7e 	CALL SUBOPT_0x110
                 ; 0000 0C2D                                         TxBuffer[oddbuf] = GRADE_INFO[lcnt].hiLimit & 0xFF;
00249f 940e 2f85 	CALL SUBOPT_0x111
0024a1 55e0      	SUBI R30,LOW(-_GRADE_INFO)
0024a2 4ff5      	SBCI R31,HIGH(-_GRADE_INFO)
0024a3 81e0      	LD   R30,Z
                +
0024a4 2fa7     +MOV R26 , R23
0024a5 2fb8     +MOV R27 , R24
                 	__GETW2R 23,24
                 _0x4D8:
0024a6 93ec      	ST   X,R30
                 ; 0000 0C2E                                     }
                 ; 0000 0C2F                                 }
0024a7 940e 2e07 	CALL SUBOPT_0xDE
0024a9 cfd9      	RJMP _0x466
                 _0x467:
                 ; 0000 0C30 
                 ; 0000 0C31                                 //#######################
                 ; 0000 0C32                                 //###     ###
                 ; 0000 0C33                                 //#######################
                 ; 0000 0C34                                 bufpos = oddbuf + 1;
0024aa 940e 2f8d 	CALL SUBOPT_0x112
                 ; 0000 0C35 
                 ; 0000 0C36                                 for(lcnt=0;lcnt<=6;lcnt++){
                 _0x46B:
0024ac 85a8      	LDD  R26,Y+8
0024ad 85b9      	LDD  R27,Y+8+1
0024ae 9717      	SBIW R26,7
0024af f518      	BRSH _0x46C
                 ; 0000 0C37                                     evenbuf = bufpos + (lcnt * 2);
0024b0 940e 2f5d 	CALL SUBOPT_0x10C
                 ; 0000 0C38                                     oddbuf = bufpos + (lcnt * 2) + 1;
0024b2 940e 2f67 	CALL SUBOPT_0x10D
                 ; 0000 0C39                                     if(lcnt==6){
0024b4 f469      	BRNE _0x46D
                 ; 0000 0C3A                                         TxBuffer[evenbuf] = GRADE_INFO[8].loLimit >> 8;
0024b5 81aa      	LDD  R26,Y+2
0024b6 81bb      	LDD  R27,Y+2+1
0024b7 5ea0      	SUBI R26,LOW(-_TxBuffer)
0024b8 4eb9      	SBCI R27,HIGH(-_TxBuffer)
                +
0024b9 91e0 0b02+LDS R30 , _GRADE_INFO + ( 82 )
0024bb 91f0 0b03+LDS R31 , _GRADE_INFO + ( 82 ) + 1
                 	__GETW1MN _GRADE_INFO,82
0024bd 940e 2f6f 	CALL SUBOPT_0x10E
                 ; 0000 0C3B                                         TxBuffer[oddbuf] = GRADE_INFO[8].loLimit & 0xFF;
                +
0024bf 91e0 0b02+LDS R30 , _GRADE_INFO + ( 82 )
                 	__GETB1MN _GRADE_INFO,82
0024c1 c00d      	RJMP _0x4D9
                 ; 0000 0C3C                                     }
                 ; 0000 0C3D                                     else{
                 _0x46D:
                 ; 0000 0C3E                                         TxBuffer[evenbuf] = GRADE_INFO[lcnt].loLimit >> 8;
0024c2 940e 2f77 	CALL SUBOPT_0x10F
0024c4 940e 2f13 	CALL SUBOPT_0x101
0024c6 940e 2f7e 	CALL SUBOPT_0x110
                 ; 0000 0C3F                                         TxBuffer[oddbuf] = GRADE_INFO[lcnt].loLimit & 0xFF;
0024c8 940e 2f85 	CALL SUBOPT_0x111
                +
0024ca 54ee     +SUBI R30 , LOW ( - _GRADE_INFO - ( 2 ) )
0024cb 4ff5     +SBCI R31 , HIGH ( - _GRADE_INFO - ( 2 ) )
                 	__ADDW1MN _GRADE_INFO,2
0024cc 81e0      	LD   R30,Z
                +
0024cd 2fa7     +MOV R26 , R23
0024ce 2fb8     +MOV R27 , R24
                 	__GETW2R 23,24
                 _0x4D9:
0024cf 93ec      	ST   X,R30
                 ; 0000 0C40                                     }
                 ; 0000 0C41                                 }
0024d0 940e 2e07 	CALL SUBOPT_0xDE
0024d2 cfd9      	RJMP _0x46B
                 _0x46C:
                 ; 0000 0C42 
                 ; 0000 0C43                                 //#########################
                 ; 0000 0C44                                 //###     ###
                 ; 0000 0C45                                 //#########################
                 ; 0000 0C46                                 bufpos = oddbuf + 1;
0024d3 940e 2f8d 	CALL SUBOPT_0x112
                 ; 0000 0C47 
                 ; 0000 0C48                                 for(lcnt=0;lcnt<=8;lcnt++){
                 _0x470:
0024d5 85a8      	LDD  R26,Y+8
0024d6 85b9      	LDD  R27,Y+8+1
0024d7 9719      	SBIW R26,9
0024d8 f4b8      	BRSH _0x471
                 ; 0000 0C49                                     evenbuf = bufpos + (lcnt * 2);
0024d9 940e 2f5d 	CALL SUBOPT_0x10C
                 ; 0000 0C4A                                     oddbuf = bufpos + (lcnt * 2) + 1;
0024db 940e 2f96 	CALL SUBOPT_0x113
                 ; 0000 0C4B 
                 ; 0000 0C4C                                     TxBuffer[evenbuf] = GRADE_INFO[lcnt].prtSetCount >> 8;
0024dd 940e 2f77 	CALL SUBOPT_0x10F
0024df 85a8      	LDD  R26,Y+8
0024e0 85b9      	LDD  R27,Y+8+1
0024e1 940e 2f21 	CALL SUBOPT_0x103
0024e3 940e 2f7e 	CALL SUBOPT_0x110
                 ; 0000 0C4D                                     TxBuffer[oddbuf] = GRADE_INFO[lcnt].prtSetCount & 0xFF;
0024e5 940e 2f85 	CALL SUBOPT_0x111
                +
0024e7 54ea     +SUBI R30 , LOW ( - _GRADE_INFO - ( 6 ) )
0024e8 4ff5     +SBCI R31 , HIGH ( - _GRADE_INFO - ( 6 ) )
                 	__ADDW1MN _GRADE_INFO,6
0024e9 81e0      	LD   R30,Z
                +
0024ea 2fa7     +MOV R26 , R23
0024eb 2fb8     +MOV R27 , R24
                 	__GETW2R 23,24
0024ec 93ec      	ST   X,R30
                 ; 0000 0C4E                                 }
0024ed 940e 2e07 	CALL SUBOPT_0xDE
0024ef cfe5      	RJMP _0x470
                 _0x471:
                 ; 0000 0C4F 
                 ; 0000 0C50                                 //#########################
                 ; 0000 0C51                                 //###     ###
                 ; 0000 0C52                                 //#########################
                 ; 0000 0C53                                 bufpos = oddbuf + 1;
0024f0 940e 2f8d 	CALL SUBOPT_0x112
                 ; 0000 0C54 
                 ; 0000 0C55                                 for(lcnt=0;lcnt<=8;lcnt++){
                 _0x473:
0024f2 85a8      	LDD  R26,Y+8
0024f3 85b9      	LDD  R27,Y+8+1
0024f4 9719      	SBIW R26,9
0024f5 f458      	BRSH _0x474
                 ; 0000 0C56                                     evenbuf = bufpos + lcnt;
0024f6 940e 2fa1 	CALL SUBOPT_0x114
                 ; 0000 0C57 
                 ; 0000 0C58                                     TxBuffer[evenbuf] = GRADE_INFO[lcnt].prttype;
                +
0024f8 2f7e     +MOV R23 , R30
0024f9 2f8f     +MOV R24 , R31
                 	__PUTW1R 23,24
0024fa 940e 2e0d 	CALL SUBOPT_0xDF
0024fc 940e 2f2d 	CALL SUBOPT_0x105
                 ; 0000 0C59                                 }
0024fe 940e 2e07 	CALL SUBOPT_0xDE
002500 cff1      	RJMP _0x473
                 _0x474:
                 ; 0000 0C5A 
                 ; 0000 0C5B                                 //################################
                 ; 0000 0C5C                                 //###      ###
                 ; 0000 0C5D                                 //################################
                 ; 0000 0C5E                                 bufpos = evenbuf + 1;
002501 940e 2fa8 	CALL SUBOPT_0x115
                 ; 0000 0C5F 
                 ; 0000 0C60                                 for(lcnt=0;lcnt<=7;lcnt++){
                 _0x476:
002503 85a8      	LDD  R26,Y+8
002504 85b9      	LDD  R27,Y+8+1
002505 9718      	SBIW R26,8
002506 f490      	BRSH _0x477
                 ; 0000 0C61                                     evenbuf = bufpos + lcnt;
002507 940e 2fa1 	CALL SUBOPT_0x114
                 ; 0000 0C62 
                 ; 0000 0C63                                     TxBuffer[evenbuf] = PACKER_INFO[lcnt].solcount;
002509 010f      	MOVW R0,R30
00250a 85e8      	LDD  R30,Y+8
00250b 85f9      	LDD  R31,Y+8+1
00250c ebaa      	LDI  R26,LOW(_PACKER_INFO)
00250d e0bc      	LDI  R27,HIGH(_PACKER_INFO)
00250e 940e 305f 	CALL __LSLW2
002510 0fae      	ADD  R26,R30
002511 1fbf      	ADC  R27,R31
002512 9612      	ADIW R26,2
002513 91ec      	LD   R30,X
002514 01d0      	MOVW R26,R0
002515 93ec      	ST   X,R30
                 ; 0000 0C64                                 }
002516 940e 2e07 	CALL SUBOPT_0xDE
002518 cfea      	RJMP _0x476
                 _0x477:
                 ; 0000 0C65 
                 ; 0000 0C66 
                 ; 0000 0C67                                 //################################
                 ; 0000 0C68                                 //###      ###
                 ; 0000 0C69                                 //################################
                 ; 0000 0C6A                                 bufpos = evenbuf + 1;
002519 940e 2fa8 	CALL SUBOPT_0x115
                 ; 0000 0C6B 
                 ; 0000 0C6C                                 for(lcnt=0;lcnt<=7;lcnt++){
                 _0x479:
00251b 85a8      	LDD  R26,Y+8
00251c 85b9      	LDD  R27,Y+8+1
00251d 9718      	SBIW R26,8
00251e f458      	BRSH _0x47A
                 ; 0000 0C6D                                     evenbuf = bufpos + lcnt;
00251f 940e 2fa1 	CALL SUBOPT_0x114
                 ; 0000 0C6E 
                 ; 0000 0C6F                                     TxBuffer[evenbuf]= GRADE_INFO[lcnt].solenoidnumber;
002521 940e 2f85 	CALL SUBOPT_0x111
                +
002523 54ec     +SUBI R30 , LOW ( - _GRADE_INFO - ( 4 ) )
002524 4ff5     +SBCI R31 , HIGH ( - _GRADE_INFO - ( 4 ) )
                 	__ADDW1MN _GRADE_INFO,4
002525 940e 2f2d 	CALL SUBOPT_0x105
                 ; 0000 0C70                                 }
002527 940e 2e07 	CALL SUBOPT_0xDE
002529 cff1      	RJMP _0x479
                 _0x47A:
                 ; 0000 0C71 
                 ; 0000 0C72                                 //#########################
                 ; 0000 0C73                                 //###     ###
                 ; 0000 0C74                                 //#########################
                 ; 0000 0C75                                 bufpos = evenbuf + 1;
00252a 940e 2fa8 	CALL SUBOPT_0x115
                 ; 0000 0C76 
                 ; 0000 0C77                                 for(lcnt=0;lcnt<=8;lcnt++){
                 _0x47C:
00252c 85a8      	LDD  R26,Y+8
00252d 85b9      	LDD  R27,Y+8+1
00252e 9719      	SBIW R26,9
00252f f4d8      	BRSH _0x47D
                 ; 0000 0C78                                     evenbuf = bufpos + (2 * lcnt);
002530 940e 2f5d 	CALL SUBOPT_0x10C
                 ; 0000 0C79                                     oddbuf = bufpos + (2 * lcnt) + 1;
002532 940e 2f96 	CALL SUBOPT_0x113
                 ; 0000 0C7A 
                 ; 0000 0C7B                                     TxBuffer[evenbuf] = PACKER_INFO[lcnt].gradetype >> 8;
002534 81ea      	LDD  R30,Y+2
002535 81fb      	LDD  R31,Y+2+1
002536 5ee0      	SUBI R30,LOW(-_TxBuffer)
002537 4ef9      	SBCI R31,HIGH(-_TxBuffer)
002538 010f      	MOVW R0,R30
002539 940e 2f3f 	CALL SUBOPT_0x108
00253b 940e 313f 	CALL __GETW1P
00253d 940e 306d 	CALL __ASRW8
00253f 01d0      	MOVW R26,R0
002540 940e 2ee9 	CALL SUBOPT_0xFB
                 ; 0000 0C7C                                     TxBuffer[oddbuf] = PACKER_INFO[lcnt].gradetype & 0xFF;
002542 010f      	MOVW R0,R30
002543 940e 2f3f 	CALL SUBOPT_0x108
002545 91ec      	LD   R30,X
002546 01d0      	MOVW R26,R0
002547 93ec      	ST   X,R30
                 ; 0000 0C7D                                 }
002548 940e 2e07 	CALL SUBOPT_0xDE
00254a cfe1      	RJMP _0x47C
                 _0x47D:
                 ; 0000 0C7E 
                 ; 0000 0C7F                                 //##############################
                 ; 0000 0C80                                 //###    ID  ###
                 ; 0000 0C81                                 //##############################
                 ; 0000 0C82                                 bufpos = oddbuf + 1;
00254b 940e 2f8d 	CALL SUBOPT_0x112
                 ; 0000 0C83 
                 ; 0000 0C84                                 for(lcnt=0;lcnt<=7;lcnt++){
                 _0x47F:
00254d 85a8      	LDD  R26,Y+8
00254e 85b9      	LDD  R27,Y+8+1
00254f 9718      	SBIW R26,8
002550 f550      	BRSH _0x480
                 ; 0000 0C85                                     for(jcnt=0;jcnt<=5;jcnt++){
002551 e0e0      	LDI  R30,LOW(0)
002552 83ee      	STD  Y+6,R30
002553 83ef      	STD  Y+6+1,R30
                 _0x482:
002554 81ae      	LDD  R26,Y+6
002555 81bf      	LDD  R27,Y+6+1
002556 9716      	SBIW R26,6
002557 f4f0      	BRSH _0x483
                 ; 0000 0C86                                         evenbuf = bufpos + (jcnt * 2);
002558 81ae      	LDD  R26,Y+6
002559 81bf      	LDD  R27,Y+6+1
00255a e0e2      	LDI  R30,LOW(2)
00255b 940e 30a4 	CALL __MULB1W2U
00255d 81a8      	LD   R26,Y
00255e 81b9      	LDD  R27,Y+1
00255f 0fea      	ADD  R30,R26
002560 1ffb      	ADC  R31,R27
002561 83ea      	STD  Y+2,R30
002562 83fb      	STD  Y+2+1,R31
                 ; 0000 0C87                                         oddbuf = bufpos + (jcnt * 2) + 1;
002563 81ae      	LDD  R26,Y+6
002564 81bf      	LDD  R27,Y+6+1
002565 940e 2f96 	CALL SUBOPT_0x113
                 ; 0000 0C88 
                 ; 0000 0C89                                         TxBuffer[evenbuf] = SOL_INFO[lcnt].sol_id[jcnt] >> 8;
002567 940e 2f77 	CALL SUBOPT_0x10F
002569 85a8      	LDD  R26,Y+8
00256a 85b9      	LDD  R27,Y+8+1
00256b 940e 2f44 	CALL SUBOPT_0x109
00256d 940e 2ec2 	CALL SUBOPT_0xF7
                 ; 0000 0C8A                                         TxBuffer[oddbuf] = SOL_INFO[lcnt].sol_id[jcnt] & 0xFF;
00256f 940e 2f4d 	CALL SUBOPT_0x10A
002571 940e 2ed5 	CALL SUBOPT_0xF8
                 ; 0000 0C8B                                     }
002573 940e 2d54 	CALL SUBOPT_0xC1
002575 cfde      	RJMP _0x482
                 _0x483:
                 ; 0000 0C8C                                     bufpos = oddbuf + 1;
002576 940e 2fb1 	CALL SUBOPT_0x116
                 ; 0000 0C8D                                 }
002578 940e 2e07 	CALL SUBOPT_0xDE
00257a cfd2      	RJMP _0x47F
                 _0x480:
                 ; 0000 0C8E 
                 ; 0000 0C8F                                 //#####################################
                 ; 0000 0C90                                 //###       ###
                 ; 0000 0C91                                 //#####################################
                 ; 0000 0C92                                 bufpos = oddbuf + 1;
00257b 940e 2f8d 	CALL SUBOPT_0x112
                 ; 0000 0C93 
                 ; 0000 0C94                                 for(lcnt=0;lcnt<=7;lcnt++){
                 _0x485:
00257d 85a8      	LDD  R26,Y+8
00257e 85b9      	LDD  R27,Y+8+1
00257f 9718      	SBIW R26,8
002580 f518      	BRSH _0x486
                 ; 0000 0C95                                     for(jcnt=0;jcnt<=5;jcnt++){
002581 e0e0      	LDI  R30,LOW(0)
002582 83ee      	STD  Y+6,R30
002583 83ef      	STD  Y+6+1,R30
                 _0x488:
002584 81ae      	LDD  R26,Y+6
002585 81bf      	LDD  R27,Y+6+1
002586 9716      	SBIW R26,6
002587 f4b8      	BRSH _0x489
                 ; 0000 0C96                                         oddbuf = bufpos + jcnt;
002588 81ee      	LDD  R30,Y+6
002589 81ff      	LDD  R31,Y+6+1
00258a 81a8      	LD   R26,Y
00258b 81b9      	LDD  R27,Y+1
00258c 0fea      	ADD  R30,R26
00258d 1ffb      	ADC  R31,R27
00258e 83ec      	STD  Y+4,R30
00258f 83fd      	STD  Y+4+1,R31
                 ; 0000 0C97                                         TxBuffer[oddbuf] = SOL_INFO[lcnt].outsignal[jcnt];
002590 5ee0      	SUBI R30,LOW(-_TxBuffer)
002591 4ef9      	SBCI R31,HIGH(-_TxBuffer)
                +
002592 2f7e     +MOV R23 , R30
002593 2f8f     +MOV R24 , R31
                 	__PUTW1R 23,24
002594 85a8      	LDD  R26,Y+8
002595 85b9      	LDD  R27,Y+8+1
002596 940e 2f53 	CALL SUBOPT_0x10B
002598 91ec      	LD   R30,X
                +
002599 2fa7     +MOV R26 , R23
00259a 2fb8     +MOV R27 , R24
                 	__GETW2R 23,24
00259b 93ec      	ST   X,R30
                 ; 0000 0C98                                     }
00259c 940e 2d54 	CALL SUBOPT_0xC1
00259e cfe5      	RJMP _0x488
                 _0x489:
                 ; 0000 0C99                                     bufpos = oddbuf + 1;
00259f 940e 2fb1 	CALL SUBOPT_0x116
                 ; 0000 0C9A                                 }
0025a1 940e 2e07 	CALL SUBOPT_0xDE
0025a3 cfd9      	RJMP _0x485
                 _0x486:
                 ; 0000 0C9B 
                 ; 0000 0C9C                                 //###############################
                 ; 0000 0C9D                                 //###  ETX & DATA LENGTH SET  ###
                 ; 0000 0C9E                                 //###############################
                 ; 0000 0C9F                                 bufpos = oddbuf + 1;
0025a4 940e 2fb1 	CALL SUBOPT_0x116
                 ; 0000 0CA0                                 TxBuffer[bufpos] = 0x03;
0025a6 81e8      	LD   R30,Y
0025a7 81f9      	LDD  R31,Y+1
0025a8 5ee0      	SUBI R30,LOW(-_TxBuffer)
0025a9 4ef9      	SBCI R31,HIGH(-_TxBuffer)
0025aa e0a3      	LDI  R26,LOW(3)
0025ab 83a0      	STD  Z+0,R26
                 ; 0000 0CA1 
                 ; 0000 0CA2                                 //Data Length Setting
                 ; 0000 0CA3                                 TxBuffer[1] = (bufpos - 3)>>8;
0025ac 81e8      	LD   R30,Y
0025ad 81f9      	LDD  R31,Y+1
0025ae 9733      	SBIW R30,3
0025af 940e 2a65 	CALL SUBOPT_0x5A
                 ; 0000 0CA4                                 TxBuffer[2] = (bufpos - 3)&0xFF;
0025b1 81e8      	LD   R30,Y
0025b2 50e3      	SUBI R30,LOW(3)
                +
0025b3 93e0 1622+STS _TxBuffer + ( 2 ) , R30
                 	__PUTB1MN _TxBuffer,2
                 ; 0000 0CA5 
                 ; 0000 0CA6                                 TxEnable = 1;   txcnt = 1;  TxLength = bufpos+1;   UDR1 = TxBuffer[0];
0025b5 940e 2e16 	CALL SUBOPT_0xE1
0025b7 81e8      	LD   R30,Y
0025b8 81f9      	LDD  R31,Y+1
0025b9 9631      	ADIW R30,1
0025ba 940e 2c14 	CALL SUBOPT_0x93
                 ; 0000 0CA7                                 BuzzerOn();
0025bc 940e 182a 	CALL _BuzzerOn
                 ; 0000 0CA8                                 break;
                 ; 0000 0CA9                             case 0x00 :     //INIT DATA
                 _0x463:
                 ; 0000 0CAA                                 break;
                 ; 0000 0CAB                         }
                 _0x43C:
                 ; 0000 0CAC                         break;
0025be c1ea      	RJMP _0x3BD
                 ; 0000 0CAD                     case CMD_ENCODER_CHK ://0xE1 ::A  
                 _0x439:
0025bf 3ee1      	CPI  R30,LOW(0xE1)
0025c0 e0a0      	LDI  R26,HIGH(0xE1)
0025c1 07fa      	CPC  R31,R26
0025c2 f4c1      	BRNE _0x48B
                 ; 0000 0CAE                         BuzzerOn();
0025c3 940e 182a 	CALL _BuzzerOn
                 ; 0000 0CAF                         switch(RxBuffer[1]){
0025c5 940e 2db1 	CALL SUBOPT_0xD0
                 ; 0000 0CB0                             case 0x01 :     //
0025c7 f441      	BRNE _0x48F
                 ; 0000 0CB1                                 BuzzerOn();
0025c8 940e 2da7 	CALL SUBOPT_0xCE
                 ; 0000 0CB2                                 delay_ms(200);
                 ; 0000 0CB3                                 TxEnable = 0;
0025ca e0e0      	LDI  R30,LOW(0)
0025cb 93e0 1bfe 	STS  _TxEnable,R30
                 ; 0000 0CB4                                 modRunning = ENCODER_CHK;
0025cd e0e7      	LDI  R30,LOW(7)
0025ce 2eae      	MOV  R10,R30
                 ; 0000 0CB5                                 break;
0025cf c00a      	RJMP _0x48E
                 ; 0000 0CB6                             case 0x02 :     //
                 _0x48F:
0025d0 30e2      	CPI  R30,LOW(0x2)
0025d1 e0a0      	LDI  R26,HIGH(0x2)
0025d2 07fa      	CPC  R31,R26
0025d3 f431      	BRNE _0x48E
                 ; 0000 0CB7                                 BuzzerOn();
0025d4 940e 2da7 	CALL SUBOPT_0xCE
                 ; 0000 0CB8                                 delay_ms(200);
                 ; 0000 0CB9                                 TxEnable = 0;
0025d6 e0e0      	LDI  R30,LOW(0)
0025d7 93e0 1bfe 	STS  _TxEnable,R30
                 ; 0000 0CBA                                 modRunning =  MACHINE_STOP;
0025d9 24aa      	CLR  R10
                 ; 0000 0CBB                                 break;
                 ; 0000 0CBC                         }
                 _0x48E:
                 ; 0000 0CBD                         break;
0025da c1ce      	RJMP _0x3BD
                 ; 0000 0CBE                     case CMD_SOLTEST :    //0xB0::, ,    
                 _0x48B:
0025db 3be0      	CPI  R30,LOW(0xB0)
0025dc e0a0      	LDI  R26,HIGH(0xB0)
0025dd 07fa      	CPC  R31,R26
0025de f009      	BREQ PC+2
0025df c0b5      	RJMP _0x491
                 ; 0000 0CBF                         switch(RxBuffer[1]){
0025e0 940e 2db1 	CALL SUBOPT_0xD0
                 ; 0000 0CC0                             //1~6  
                 ; 0000 0CC1                             case 0x01 : case 0x02: case 0x03: case 0x04: case 0x05 : case 0x06 :
0025e2 f021      	BREQ _0x496
0025e3 30e2      	CPI  R30,LOW(0x2)
0025e4 e0a0      	LDI  R26,HIGH(0x2)
0025e5 07fa      	CPC  R31,R26
0025e6 f409      	BRNE _0x497
                 _0x496:
0025e7 c004      	RJMP _0x498
                 _0x497:
0025e8 30e3      	CPI  R30,LOW(0x3)
0025e9 e0a0      	LDI  R26,HIGH(0x3)
0025ea 07fa      	CPC  R31,R26
0025eb f409      	BRNE _0x499
                 _0x498:
0025ec c004      	RJMP _0x49A
                 _0x499:
0025ed 30e4      	CPI  R30,LOW(0x4)
0025ee e0a0      	LDI  R26,HIGH(0x4)
0025ef 07fa      	CPC  R31,R26
0025f0 f409      	BRNE _0x49B
                 _0x49A:
0025f1 c004      	RJMP _0x49C
                 _0x49B:
0025f2 30e5      	CPI  R30,LOW(0x5)
0025f3 e0a0      	LDI  R26,HIGH(0x5)
0025f4 07fa      	CPC  R31,R26
0025f5 f409      	BRNE _0x49D
                 _0x49C:
0025f6 c004      	RJMP _0x49E
                 _0x49D:
0025f7 30e6      	CPI  R30,LOW(0x6)
0025f8 e0a0      	LDI  R26,HIGH(0x6)
0025f9 07fa      	CPC  R31,R26
0025fa f449      	BRNE _0x49F
                 _0x49E:
                 ; 0000 0CC2                                 ExtPort_TEST(0xFF, RxBuffer[1]-1,Signal_ON, RxBuffer[2]-1);
0025fb 940e 2fb7 	CALL SUBOPT_0x117
0025fd 940e 2fbe 	CALL SUBOPT_0x118
                 ; 0000 0CC3                                 delay_ms(100);
                 ; 0000 0CC4                                 ExtPort_TEST(0xFF, RxBuffer[1]-1,Signal_OFF, RxBuffer[2]-1);
0025ff 940e 2fb7 	CALL SUBOPT_0x117
002601 940e 2fc7 	CALL SUBOPT_0x119
                 ; 0000 0CC5                                 delay_ms(100);
                 ; 0000 0CC6                                 break;
002603 c090      	RJMP _0x494
                 ; 0000 0CC7                             //  
                 ; 0000 0CC8                             case 0x07 :
                 _0x49F:
002604 30e7      	CPI  R30,LOW(0x7)
002605 e0a0      	LDI  R26,HIGH(0x7)
002606 07fa      	CPC  R31,R26
002607 f449      	BRNE _0x4A0
                 ; 0000 0CC9                                 ExtPort_TEST(0xFF, RxBuffer[1],Signal_ON, RxBuffer[2]-1);
002608 940e 2fd0 	CALL SUBOPT_0x11A
00260a 940e 2fbe 	CALL SUBOPT_0x118
                 ; 0000 0CCA                                 delay_ms(100);
                 ; 0000 0CCB                                 ExtPort_TEST(0xFF, RxBuffer[1],Signal_OFF, RxBuffer[2]-1);
00260c 940e 2fd0 	CALL SUBOPT_0x11A
00260e 940e 2fc7 	CALL SUBOPT_0x119
                 ; 0000 0CCC                                 delay_ms(100);
                 ; 0000 0CCD                                 break;
002610 c083      	RJMP _0x494
                 ; 0000 0CCE                             // A
                 ; 0000 0CCF                             case 0x08 :
                 _0x4A0:
002611 30e8      	CPI  R30,LOW(0x8)
002612 e0a0      	LDI  R26,HIGH(0x8)
002613 07fa      	CPC  R31,R26
002614 f449      	BRNE _0x4A1
                 ; 0000 0CD0                                 ExtPort_TEST(0x02, RxBuffer[1]-1,Signal_ON, 0);
002615 940e 2fd6 	CALL SUBOPT_0x11B
002617 940e 2fdd 	CALL SUBOPT_0x11C
                 ; 0000 0CD1                                 delay_ms(100);
                 ; 0000 0CD2                                 ExtPort_TEST(0x02, RxBuffer[1]-1,Signal_OFF, 0);
002619 940e 2fd6 	CALL SUBOPT_0x11B
00261b 940e 2fe3 	CALL SUBOPT_0x11D
                 ; 0000 0CD3                                 delay_ms(100);
                 ; 0000 0CD4                                 break;
00261d c076      	RJMP _0x494
                 ; 0000 0CD5                             // B
                 ; 0000 0CD6                             case 0x09 :
                 _0x4A1:
00261e 30e9      	CPI  R30,LOW(0x9)
00261f e0a0      	LDI  R26,HIGH(0x9)
002620 07fa      	CPC  R31,R26
002621 f449      	BRNE _0x4A2
                 ; 0000 0CD7                                 ExtPort_TEST(0x03, RxBuffer[1]-1,Signal_ON, 0);
002622 940e 2fe9 	CALL SUBOPT_0x11E
002624 940e 2fdd 	CALL SUBOPT_0x11C
                 ; 0000 0CD8                                 delay_ms(100);
                 ; 0000 0CD9                                 ExtPort_TEST(0x03, RxBuffer[1]-1,Signal_OFF, 0);
002626 940e 2fe9 	CALL SUBOPT_0x11E
002628 940e 2fe3 	CALL SUBOPT_0x11D
                 ; 0000 0CDA                                 delay_ms(100);
                 ; 0000 0CDB                                 break;
00262a c069      	RJMP _0x494
                 ; 0000 0CDC                             case 0x10 :
                 _0x4A2:
00262b 31e0      	CPI  R30,LOW(0x10)
00262c e0a0      	LDI  R26,HIGH(0x10)
00262d 07fa      	CPC  R31,R26
00262e f449      	BRNE _0x4A3
                 ; 0000 0CDD                                 ExtPort_TEST(0x10, RxBuffer[1]-1,Signal_ON, 0);
00262f 940e 2ff0 	CALL SUBOPT_0x11F
002631 940e 2fdd 	CALL SUBOPT_0x11C
                 ; 0000 0CDE                                 delay_ms(100);
                 ; 0000 0CDF                                 ExtPort_TEST(0x10, RxBuffer[1]-1,Signal_OFF, 0);
002633 940e 2ff0 	CALL SUBOPT_0x11F
002635 940e 2fe3 	CALL SUBOPT_0x11D
                 ; 0000 0CE0                                 delay_ms(100);
                 ; 0000 0CE1                                 break;
002637 c05c      	RJMP _0x494
                 ; 0000 0CE2                             case 0x20 :
                 _0x4A3:
002638 32e0      	CPI  R30,LOW(0x20)
002639 e0a0      	LDI  R26,HIGH(0x20)
00263a 07fa      	CPC  R31,R26
00263b f449      	BRNE _0x4A4
                 ; 0000 0CE3                                 ExtPort_TEST(0x20, RxBuffer[1]-1,Signal_ON, 0);
00263c 940e 2ff7 	CALL SUBOPT_0x120
00263e 940e 2fdd 	CALL SUBOPT_0x11C
                 ; 0000 0CE4                                 delay_ms(100);
                 ; 0000 0CE5                                 ExtPort_TEST(0x20, RxBuffer[1]-1,Signal_OFF, 0);
002640 940e 2ff7 	CALL SUBOPT_0x120
002642 940e 2fe3 	CALL SUBOPT_0x11D
                 ; 0000 0CE6                                 delay_ms(100);
                 ; 0000 0CE7                                 break;
002644 c04f      	RJMP _0x494
                 ; 0000 0CE8                             case 0x30 :
                 _0x4A4:
002645 33e0      	CPI  R30,LOW(0x30)
002646 e0a0      	LDI  R26,HIGH(0x30)
002647 07fa      	CPC  R31,R26
002648 f449      	BRNE _0x4A5
                 ; 0000 0CE9                                 ExtPort_TEST(0x30, RxBuffer[1]-1,Signal_ON, 0);
002649 940e 2ffe 	CALL SUBOPT_0x121
00264b 940e 2fdd 	CALL SUBOPT_0x11C
                 ; 0000 0CEA                                 delay_ms(100);
                 ; 0000 0CEB                                 ExtPort_TEST(0x30, RxBuffer[1]-1,Signal_OFF, 0);
00264d 940e 2ffe 	CALL SUBOPT_0x121
00264f 940e 2fe3 	CALL SUBOPT_0x11D
                 ; 0000 0CEC                                 delay_ms(100);
                 ; 0000 0CED                                 break;
002651 c042      	RJMP _0x494
                 ; 0000 0CEE                             case 0x40 :
                 _0x4A5:
002652 34e0      	CPI  R30,LOW(0x40)
002653 e0a0      	LDI  R26,HIGH(0x40)
002654 07fa      	CPC  R31,R26
002655 f449      	BRNE _0x4A6
                 ; 0000 0CEF                                 ExtPort_TEST(0x40, RxBuffer[1]-1,Signal_ON, 0);
002656 940e 3005 	CALL SUBOPT_0x122
002658 940e 2fdd 	CALL SUBOPT_0x11C
                 ; 0000 0CF0                                 delay_ms(100);
                 ; 0000 0CF1                                 ExtPort_TEST(0x40, RxBuffer[1]-1,Signal_OFF, 0);
00265a 940e 3005 	CALL SUBOPT_0x122
00265c 940e 2fe3 	CALL SUBOPT_0x11D
                 ; 0000 0CF2                                 delay_ms(100);
                 ; 0000 0CF3                                 break;
00265e c035      	RJMP _0x494
                 ; 0000 0CF4                             case 0x50 :
                 _0x4A6:
00265f 35e0      	CPI  R30,LOW(0x50)
002660 e0a0      	LDI  R26,HIGH(0x50)
002661 07fa      	CPC  R31,R26
002662 f449      	BRNE _0x4A7
                 ; 0000 0CF5                                 ExtPort_TEST(0x50, RxBuffer[1]-1,Signal_ON, 0);
002663 940e 300c 	CALL SUBOPT_0x123
002665 940e 2fdd 	CALL SUBOPT_0x11C
                 ; 0000 0CF6                                 delay_ms(100);
                 ; 0000 0CF7                                 ExtPort_TEST(0x50, RxBuffer[1]-1,Signal_OFF, 0);
002667 940e 300c 	CALL SUBOPT_0x123
002669 940e 2fe3 	CALL SUBOPT_0x11D
                 ; 0000 0CF8                                 delay_ms(100);
                 ; 0000 0CF9                                 break;
00266b c028      	RJMP _0x494
                 ; 0000 0CFA                             case 0x60 :
                 _0x4A7:
00266c 36e0      	CPI  R30,LOW(0x60)
00266d e0a0      	LDI  R26,HIGH(0x60)
00266e 07fa      	CPC  R31,R26
00266f f449      	BRNE _0x4A8
                 ; 0000 0CFB                                 ExtPort_TEST(0x60, RxBuffer[1]-1,Signal_ON, 0);
002670 940e 3013 	CALL SUBOPT_0x124
002672 940e 2fdd 	CALL SUBOPT_0x11C
                 ; 0000 0CFC                                 delay_ms(100);
                 ; 0000 0CFD                                 ExtPort_TEST(0x60, RxBuffer[1]-1,Signal_OFF, 0);
002674 940e 3013 	CALL SUBOPT_0x124
002676 940e 2fe3 	CALL SUBOPT_0x11D
                 ; 0000 0CFE                                 delay_ms(100);
                 ; 0000 0CFF                                 break;
002678 c01b      	RJMP _0x494
                 ; 0000 0D00                             case 0x70 :
                 _0x4A8:
002679 37e0      	CPI  R30,LOW(0x70)
00267a e0a0      	LDI  R26,HIGH(0x70)
00267b 07fa      	CPC  R31,R26
00267c f449      	BRNE _0x4A9
                 ; 0000 0D01                                 ExtPort_TEST(0x70, RxBuffer[1]-1,Signal_ON, 0);
00267d 940e 301a 	CALL SUBOPT_0x125
00267f 940e 2fdd 	CALL SUBOPT_0x11C
                 ; 0000 0D02                                 delay_ms(100);
                 ; 0000 0D03                                 ExtPort_TEST(0x70, RxBuffer[1]-1,Signal_OFF, 0);
002681 940e 301a 	CALL SUBOPT_0x125
002683 940e 2fe3 	CALL SUBOPT_0x11D
                 ; 0000 0D04                                 delay_ms(100);
                 ; 0000 0D05                                 break;
002685 c00e      	RJMP _0x494
                 ; 0000 0D06                             //  ::  1~6,  
                 ; 0000 0D07                             case 0x0A :
                 _0x4A9:
002686 30ea      	CPI  R30,LOW(0xA)
002687 e0a0      	LDI  R26,HIGH(0xA)
002688 07fa      	CPC  R31,R26
002689 f451      	BRNE _0x494
                 ; 0000 0D08                                 ExtPort_TEST(0xFF, RxBuffer[1],Signal_ON, RxBuffer[2]-1);
00268a 940e 2fd0 	CALL SUBOPT_0x11A
00268c e0e1      	LDI  R30,LOW(1)
00268d 93ea      	ST   -Y,R30
                +
00268e 91e0 142e+LDS R30 , _RxBuffer + ( 2 )
                 	__GETB1MN _RxBuffer,2
002690 50e1      	SUBI R30,LOW(1)
002691 2fae      	MOV  R26,R30
002692 940e 1a15 	CALL _ExtPort_TEST
                 ; 0000 0D09                                 break;
                 ; 0000 0D0A                         }
                 _0x494:
                 ; 0000 0D0B                         BuzzerOn();
002694 c112      	RJMP _0x4DA
                 ; 0000 0D0C                         break;
                 ; 0000 0D0D                     case CMD_REFORM_WEIGHT :            //  
                 _0x491:
002695 3fe0      	CPI  R30,LOW(0xF0)
002696 e0a0      	LDI  R26,HIGH(0xF0)
002697 07fa      	CPC  R31,R26
002698 f419      	BRNE _0x4AB
                 ; 0000 0D0E                         Reform_Weight();
002699 940e 1836 	CALL _Reform_Weight
                 ; 0000 0D0F                         break;
00269b c10d      	RJMP _0x3BD
                 ; 0000 0D10                     case CMD_LDCELLINFO :  //0x80       //2019.07.02 
                 _0x4AB:
00269c 38e0      	CPI  R30,LOW(0x80)
00269d e0a0      	LDI  R26,HIGH(0x80)
00269e 07fa      	CPC  R31,R26
00269f f009      	BREQ PC+2
0026a0 c0ee      	RJMP _0x4AC
                 ; 0000 0D11                         switch(RxBuffer[1]){
0026a1 940e 2db1 	CALL SUBOPT_0xD0
                 ; 0000 0D12                             case 0x01 :     //
0026a3 f009      	BREQ PC+2
0026a4 c085      	RJMP _0x4B0
                 ; 0000 0D13                                 ConstWeight[0] = (RxBuffer[2] * 256) + RxBuffer[3];
                +
0026a5 91a0 142e+LDS R26 , _RxBuffer + ( 2 )
                 	__GETB2MN _RxBuffer,2
0026a7 940e 2db4 	CALL SUBOPT_0xD1
0026a9 01df      	MOVW R26,R30
                +
0026aa 91e0 142f+LDS R30 , _RxBuffer + ( 3 )
                 	__GETB1MN _RxBuffer,3
0026ac e0f0      	LDI  R31,0
0026ad 0fea      	ADD  R30,R26
0026ae 1ffb      	ADC  R31,R27
0026af 93e0 0f48 	STS  _ConstWeight,R30
0026b1 93f0 0f49 	STS  _ConstWeight+1,R31
                 ; 0000 0D14                                 LDCELL_INFO[0].span = ConstWeight[0];
                +
0026b3 93e0 0cdf+STS _LDCELL_INFO + ( 1 ) , R30
0026b5 93f0 0ce0+STS _LDCELL_INFO + ( 1 ) + 1 , R31
                 	__PUTW1MN _LDCELL_INFO,1
                 ; 0000 0D15                                 ConstWeight[1] = (RxBuffer[4] * 256) + RxBuffer[5];
                +
0026b7 91a0 1430+LDS R26 , _RxBuffer + ( 4 )
                 	__GETB2MN _RxBuffer,4
0026b9 940e 2db4 	CALL SUBOPT_0xD1
0026bb 01df      	MOVW R26,R30
                +
0026bc 91e0 1431+LDS R30 , _RxBuffer + ( 5 )
                 	__GETB1MN _RxBuffer,5
0026be e0f0      	LDI  R31,0
0026bf 0fea      	ADD  R30,R26
0026c0 1ffb      	ADC  R31,R27
                +
0026c1 93e0 0f4a+STS _ConstWeight + ( 2 ) , R30
0026c3 93f0 0f4b+STS _ConstWeight + ( 2 ) + 1 , R31
                 	__PUTW1MN _ConstWeight,2
                 ; 0000 0D16                                 LDCELL_INFO[1].span = ConstWeight[1];
                +
0026c5 91e0 0f4a+LDS R30 , _ConstWeight + ( 2 )
0026c7 91f0 0f4b+LDS R31 , _ConstWeight + ( 2 ) + 1
                 	__GETW1MN _ConstWeight,2
                +
0026c9 93e0 0ce4+STS _LDCELL_INFO + ( 6 ) , R30
0026cb 93f0 0ce5+STS _LDCELL_INFO + ( 6 ) + 1 , R31
                 	__PUTW1MN _LDCELL_INFO,6
                 ; 0000 0D17                                 ConstWeight[2] = (RxBuffer[6] * 256) + RxBuffer[7];
                +
0026cd 91a0 1432+LDS R26 , _RxBuffer + ( 6 )
                 	__GETB2MN _RxBuffer,6
0026cf 940e 2db4 	CALL SUBOPT_0xD1
0026d1 01df      	MOVW R26,R30
                +
0026d2 91e0 1433+LDS R30 , _RxBuffer + ( 7 )
                 	__GETB1MN _RxBuffer,7
0026d4 e0f0      	LDI  R31,0
0026d5 0fea      	ADD  R30,R26
0026d6 1ffb      	ADC  R31,R27
                +
0026d7 93e0 0f4c+STS _ConstWeight + ( 4 ) , R30
0026d9 93f0 0f4d+STS _ConstWeight + ( 4 ) + 1 , R31
                 	__PUTW1MN _ConstWeight,4
                 ; 0000 0D18                                 LDCELL_INFO[2].span = ConstWeight[2];
                +
0026db 91e0 0f4c+LDS R30 , _ConstWeight + ( 4 )
0026dd 91f0 0f4d+LDS R31 , _ConstWeight + ( 4 ) + 1
                 	__GETW1MN _ConstWeight,4
                +
0026df 93e0 0ce9+STS _LDCELL_INFO + ( 11 ) , R30
0026e1 93f0 0cea+STS _LDCELL_INFO + ( 11 ) + 1 , R31
                 	__PUTW1MN _LDCELL_INFO,11
                 ; 0000 0D19                                 ConstWeight[3] = (RxBuffer[8] * 256) + RxBuffer[9];
                +
0026e3 91a0 1434+LDS R26 , _RxBuffer + ( 8 )
                 	__GETB2MN _RxBuffer,8
0026e5 940e 2db4 	CALL SUBOPT_0xD1
0026e7 01df      	MOVW R26,R30
                +
0026e8 91e0 1435+LDS R30 , _RxBuffer + ( 9 )
                 	__GETB1MN _RxBuffer,9
0026ea e0f0      	LDI  R31,0
0026eb 0fea      	ADD  R30,R26
0026ec 1ffb      	ADC  R31,R27
                +
0026ed 93e0 0f4e+STS _ConstWeight + ( 6 ) , R30
0026ef 93f0 0f4f+STS _ConstWeight + ( 6 ) + 1 , R31
                 	__PUTW1MN _ConstWeight,6
                 ; 0000 0D1A                                 LDCELL_INFO[3].span = ConstWeight[3];
                +
0026f1 91e0 0f4e+LDS R30 , _ConstWeight + ( 6 )
0026f3 91f0 0f4f+LDS R31 , _ConstWeight + ( 6 ) + 1
                 	__GETW1MN _ConstWeight,6
                +
0026f5 93e0 0cee+STS _LDCELL_INFO + ( 16 ) , R30
0026f7 93f0 0cef+STS _LDCELL_INFO + ( 16 ) + 1 , R31
                 	__PUTW1MN _LDCELL_INFO,16
                 ; 0000 0D1B                                 ConstWeight[4] = (RxBuffer[10] * 256) + RxBuffer[11];
                +
0026f9 91a0 1436+LDS R26 , _RxBuffer + ( 10 )
                 	__GETB2MN _RxBuffer,10
0026fb 940e 2db4 	CALL SUBOPT_0xD1
0026fd 01df      	MOVW R26,R30
                +
0026fe 91e0 1437+LDS R30 , _RxBuffer + ( 11 )
                 	__GETB1MN _RxBuffer,11
002700 e0f0      	LDI  R31,0
002701 0fea      	ADD  R30,R26
002702 1ffb      	ADC  R31,R27
                +
002703 93e0 0f50+STS _ConstWeight + ( 8 ) , R30
002705 93f0 0f51+STS _ConstWeight + ( 8 ) + 1 , R31
                 	__PUTW1MN _ConstWeight,8
                 ; 0000 0D1C                                 LDCELL_INFO[4].span = ConstWeight[4];
                +
002707 91e0 0f50+LDS R30 , _ConstWeight + ( 8 )
002709 91f0 0f51+LDS R31 , _ConstWeight + ( 8 ) + 1
                 	__GETW1MN _ConstWeight,8
                +
00270b 93e0 0cf3+STS _LDCELL_INFO + ( 21 ) , R30
00270d 93f0 0cf4+STS _LDCELL_INFO + ( 21 ) + 1 , R31
                 	__PUTW1MN _LDCELL_INFO,21
                 ; 0000 0D1D                                 ConstWeight[5] = (RxBuffer[12] * 256) + RxBuffer[13];
                +
00270f 91a0 1438+LDS R26 , _RxBuffer + ( 12 )
                 	__GETB2MN _RxBuffer,12
002711 940e 2db4 	CALL SUBOPT_0xD1
002713 01df      	MOVW R26,R30
                +
002714 91e0 1439+LDS R30 , _RxBuffer + ( 13 )
                 	__GETB1MN _RxBuffer,13
002716 e0f0      	LDI  R31,0
002717 0fea      	ADD  R30,R26
002718 1ffb      	ADC  R31,R27
                +
002719 93e0 0f52+STS _ConstWeight + ( 10 ) , R30
00271b 93f0 0f53+STS _ConstWeight + ( 10 ) + 1 , R31
                 	__PUTW1MN _ConstWeight,10
                 ; 0000 0D1E                                 LDCELL_INFO[5].span = ConstWeight[5];
                +
00271d 91e0 0f52+LDS R30 , _ConstWeight + ( 10 )
00271f 91f0 0f53+LDS R31 , _ConstWeight + ( 10 ) + 1
                 	__GETW1MN _ConstWeight,10
                +
002721 93e0 0cf8+STS _LDCELL_INFO + ( 26 ) , R30
002723 93f0 0cf9+STS _LDCELL_INFO + ( 26 ) + 1 , R31
                 	__PUTW1MN _LDCELL_INFO,26
                 ; 0000 0D1F 
                 ; 0000 0D20                                 PUT_USR_INFO_DATA(LDCELL_INFO_DATA);
002725 e0ae      	LDI  R26,LOW(14)
002726 e0b0      	LDI  R27,0
002727 940e 04d4 	CALL _PUT_USR_INFO_DATA
                 ; 0000 0D21                                 break;
002729 c064      	RJMP _0x4AF
                 ; 0000 0D22                             case 0x02 :     //
                 _0x4B0:
00272a 30e2      	CPI  R30,LOW(0x2)
00272b e0a0      	LDI  R26,HIGH(0x2)
00272c 07fa      	CPC  R31,R26
00272d f009      	BREQ PC+2
00272e c05f      	RJMP _0x4AF
                 ; 0000 0D23                                 GET_USR_INFO_DATA(LDCELL_INFO_DATA);
00272f e0ae      	LDI  R26,LOW(14)
002730 e0b0      	LDI  R27,0
002731 940e 0468 	CALL _GET_USR_INFO_DATA
                 ; 0000 0D24 
                 ; 0000 0D25                                 TxBuffer[0] = 0x02;
002733 940e 2dbf 	CALL SUBOPT_0xD3
                 ; 0000 0D26                                 TxBuffer[1] = 0x00;
                 ; 0000 0D27                                 TxBuffer[2] = 14;
002735 e0ee      	LDI  R30,LOW(14)
                +
002736 93e0 1622+STS _TxBuffer + ( 2 ) , R30
                 	__PUTB1MN _TxBuffer,2
                 ; 0000 0D28                                 TxBuffer[3] = 0x80;
002738 e8e0      	LDI  R30,LOW(128)
002739 940e 2e10 	CALL SUBOPT_0xE0
                 ; 0000 0D29                                 TxBuffer[4] = 0x02;
                 ; 0000 0D2A                                 TxBuffer[5] = LDCELL_INFO[0].span >> 8;
                +
00273b 91e0 0cdf+LDS R30 , _LDCELL_INFO + ( 1 )
00273d 91f0 0ce0+LDS R31 , _LDCELL_INFO + ( 1 ) + 1
                 	__GETW1MN _LDCELL_INFO,1
00273f 940e 306d 	CALL __ASRW8
                +
002741 93e0 1625+STS _TxBuffer + ( 5 ) , R30
                 	__PUTB1MN _TxBuffer,5
                 ; 0000 0D2B                                 TxBuffer[6] = LDCELL_INFO[0].span &0xFF;
                +
002743 91e0 0cdf+LDS R30 , _LDCELL_INFO + ( 1 )
                 	__GETB1MN _LDCELL_INFO,1
                +
002745 93e0 1626+STS _TxBuffer + ( 6 ) , R30
                 	__PUTB1MN _TxBuffer,6
                 ; 0000 0D2C                                 TxBuffer[7] = LDCELL_INFO[1].span >> 8;
                +
002747 91e0 0ce4+LDS R30 , _LDCELL_INFO + ( 6 )
002749 91f0 0ce5+LDS R31 , _LDCELL_INFO + ( 6 ) + 1
                 	__GETW1MN _LDCELL_INFO,6
00274b 940e 306d 	CALL __ASRW8
                +
00274d 93e0 1627+STS _TxBuffer + ( 7 ) , R30
                 	__PUTB1MN _TxBuffer,7
                 ; 0000 0D2D                                 TxBuffer[8] = LDCELL_INFO[1].span &0xFF;
                +
00274f 91e0 0ce4+LDS R30 , _LDCELL_INFO + ( 6 )
                 	__GETB1MN _LDCELL_INFO,6
                +
002751 93e0 1628+STS _TxBuffer + ( 8 ) , R30
                 	__PUTB1MN _TxBuffer,8
                 ; 0000 0D2E                                 TxBuffer[9] = LDCELL_INFO[2].span >> 8;
                +
002753 91e0 0ce9+LDS R30 , _LDCELL_INFO + ( 11 )
002755 91f0 0cea+LDS R31 , _LDCELL_INFO + ( 11 ) + 1
                 	__GETW1MN _LDCELL_INFO,11
002757 940e 306d 	CALL __ASRW8
                +
002759 93e0 1629+STS _TxBuffer + ( 9 ) , R30
                 	__PUTB1MN _TxBuffer,9
                 ; 0000 0D2F                                 TxBuffer[10] = LDCELL_INFO[2].span &0xFF;
                +
00275b 91e0 0ce9+LDS R30 , _LDCELL_INFO + ( 11 )
                 	__GETB1MN _LDCELL_INFO,11
                +
00275d 93e0 162a+STS _TxBuffer + ( 10 ) , R30
                 	__PUTB1MN _TxBuffer,10
                 ; 0000 0D30                                 TxBuffer[11] = LDCELL_INFO[3].span >> 8;
                +
00275f 91e0 0cee+LDS R30 , _LDCELL_INFO + ( 16 )
002761 91f0 0cef+LDS R31 , _LDCELL_INFO + ( 16 ) + 1
                 	__GETW1MN _LDCELL_INFO,16
002763 940e 306d 	CALL __ASRW8
                +
002765 93e0 162b+STS _TxBuffer + ( 11 ) , R30
                 	__PUTB1MN _TxBuffer,11
                 ; 0000 0D31                                 TxBuffer[12] = LDCELL_INFO[3].span &0xFF;
                +
002767 91e0 0cee+LDS R30 , _LDCELL_INFO + ( 16 )
                 	__GETB1MN _LDCELL_INFO,16
                +
002769 93e0 162c+STS _TxBuffer + ( 12 ) , R30
                 	__PUTB1MN _TxBuffer,12
                 ; 0000 0D32                                 TxBuffer[13] = LDCELL_INFO[4].span >> 8;
                +
00276b 91e0 0cf3+LDS R30 , _LDCELL_INFO + ( 21 )
00276d 91f0 0cf4+LDS R31 , _LDCELL_INFO + ( 21 ) + 1
                 	__GETW1MN _LDCELL_INFO,21
00276f 940e 306d 	CALL __ASRW8
                +
002771 93e0 162d+STS _TxBuffer + ( 13 ) , R30
                 	__PUTB1MN _TxBuffer,13
                 ; 0000 0D33                                 TxBuffer[14] = LDCELL_INFO[4].span &0xFF;
                +
002773 91e0 0cf3+LDS R30 , _LDCELL_INFO + ( 21 )
                 	__GETB1MN _LDCELL_INFO,21
                +
002775 93e0 162e+STS _TxBuffer + ( 14 ) , R30
                 	__PUTB1MN _TxBuffer,14
                 ; 0000 0D34                                 TxBuffer[15] = LDCELL_INFO[5].span >> 8;
                +
002777 91e0 0cf8+LDS R30 , _LDCELL_INFO + ( 26 )
002779 91f0 0cf9+LDS R31 , _LDCELL_INFO + ( 26 ) + 1
                 	__GETW1MN _LDCELL_INFO,26
00277b 940e 306d 	CALL __ASRW8
                +
00277d 93e0 162f+STS _TxBuffer + ( 15 ) , R30
                 	__PUTB1MN _TxBuffer,15
                 ; 0000 0D35                                 TxBuffer[16] = LDCELL_INFO[5].span &0xFF;
                +
00277f 91e0 0cf8+LDS R30 , _LDCELL_INFO + ( 26 )
                 	__GETB1MN _LDCELL_INFO,26
                +
002781 93e0 1630+STS _TxBuffer + ( 16 ) , R30
                 	__PUTB1MN _TxBuffer,16
                 ; 0000 0D36                                 TxBuffer[17] = 0x03;
002783 e0e3      	LDI  R30,LOW(3)
                +
002784 93e0 1631+STS _TxBuffer + ( 17 ) , R30
                 	__PUTB1MN _TxBuffer,17
                 ; 0000 0D37 
                 ; 0000 0D38                                 TxEnable = 1;   txcnt = 1;  TxLength = 18;   UDR1 = TxBuffer[0];
002786 940e 2e16 	CALL SUBOPT_0xE1
002788 e1e2      	LDI  R30,LOW(18)
002789 e0f0      	LDI  R31,HIGH(18)
00278a 940e 2c14 	CALL SUBOPT_0x93
                 ; 0000 0D39 
                 ; 0000 0D3A                                 BuzzerOn();
00278c 940e 2da7 	CALL SUBOPT_0xCE
                 ; 0000 0D3B                                 delay_ms(200);
                 ; 0000 0D3C                                 break;
                 ; 0000 0D3D                         }
                 _0x4AF:
                 ; 0000 0D3E                         BuzzerOn();
00278e c018      	RJMP _0x4DA
                 ; 0000 0D3F                         break;
                 ; 0000 0D40                     case CMD_COMCHK :         //0xAA        //  
                 _0x4AC:
00278f 3aea      	CPI  R30,LOW(0xAA)
002790 e0a0      	LDI  R26,HIGH(0xAA)
002791 07fa      	CPC  R31,R26
002792 f4b1      	BRNE _0x3BD
                 ; 0000 0D41                         switch(RxBuffer[1]){
                +
002793 91e0 142d+LDS R30 , _RxBuffer + ( 1 )
                 	__GETB1MN _RxBuffer,1
002795 e0f0      	LDI  R31,0
                 ; 0000 0D42                             case 0x55 :
002796 35e5      	CPI  R30,LOW(0x55)
002797 e0a0      	LDI  R26,HIGH(0x55)
002798 07fa      	CPC  R31,R26
002799 f479      	BRNE _0x4B5
                 ; 0000 0D43                                 TxBuffer[0] = 0x02;
00279a 940e 2a90 	CALL SUBOPT_0x5F
                 ; 0000 0D44                                 TxBuffer[1] = 0x00;
                 ; 0000 0D45                                 TxBuffer[2] = 0x02;
                +
00279c 93e0 1622+STS _TxBuffer + ( 2 ) , R30
                 	__PUTB1MN _TxBuffer,2
                 ; 0000 0D46                                 TxBuffer[3] = 0xAA;
00279e eaea      	LDI  R30,LOW(170)
                +
00279f 93e0 1623+STS _TxBuffer + ( 3 ) , R30
                 	__PUTB1MN _TxBuffer,3
                 ; 0000 0D47                                 TxBuffer[4] = CONTROLLER_ID;
0027a1 91e0 1c59 	LDS  R30,_CONTROLLER_ID
0027a3 940e 2a98 	CALL SUBOPT_0x60
                 ; 0000 0D48                                 TxBuffer[5] = 0x03;
                 ; 0000 0D49                                 TxEnable = 1;   txcnt = 1;  TxLength = 6;   UDR1 = TxBuffer[0];
0027a5 940e 2d86 	CALL SUBOPT_0xC9
                 ; 0000 0D4A                                 BuzzerOn();
                 _0x4DA:
0027a7 940e 182a 	CALL _BuzzerOn
                 ; 0000 0D4B                                 break;
                 ; 0000 0D4C                         }
                 _0x4B5:
                 ; 0000 0D4D                         break;
                 ; 0000 0D4E                 }
                 _0x3BD:
                 ; 0000 0D4F                 COM_REV_ENABLE = 0;
0027a9 e0e0      	LDI  R30,LOW(0)
0027aa 93e0 1bfc 	STS  _COM_REV_ENABLE,R30
                 ; 0000 0D50             }
                 ; 0000 0D51         }
                 _0x3BA:
                 ; 0000 0D52     }
                 _0x3B7:
0027ac 940c 1d1c 	JMP  _0x3B4
                 ; 0000 0D53 }
                 _0x4B7:
0027ae cfff      	RJMP _0x4B7
                 ; .FEND
                 	#ifndef __SLEEP_DEFINED__
                 	#endif
                 
                 	.CSEG
                 
                 	.CSEG
                 _memcpy:
                 ; .FSTART _memcpy
0027af 93ba      	ST   -Y,R27
0027b0 93aa      	ST   -Y,R26
0027b1 8199          ldd  r25,y+1
0027b2 8188          ld   r24,y
0027b3 9600          adiw r24,0
0027b4 f041          breq memcpy1
0027b5 81bd          ldd  r27,y+5
0027b6 81ac          ldd  r26,y+4
0027b7 81fb          ldd  r31,y+3
0027b8 81ea          ldd  r30,y+2
                 memcpy0:
0027b9 9161          ld   r22,z+
0027ba 936d          st   x+,r22
0027bb 9701          sbiw r24,1
0027bc f7e1          brne memcpy0
                 memcpy1:
0027bd 81fd          ldd  r31,y+5
0027be 81ec          ldd  r30,y+4
0027bf 9626      	ADIW R28,6
0027c0 9508      	RET
                 ; .FEND
                 
                 	.CSEG
                 
                 	.DSEG
                 _BucketData:
000600           	.BYTE 0x258
                 _BucketData_Wight:
000858           	.BYTE 0x258
                 _GRADE_INFO:
000ab0           	.BYTE 0x5A
                 _SOL_INFO:
000b0a           	.BYTE 0x1B0
                 _PACKER_INFO:
000cba           	.BYTE 0x24
                 _LDCELL_INFO:
000cde           	.BYTE 0x1E
                 _MEASURE_INFO:
000cfc           	.BYTE 0xC
                 _PRT_INFO:
000d08           	.BYTE 0x12
                 _SYS_INFO:
000d1a           	.BYTE 0x12
                 _ABN_INFO:
000d2c           	.BYTE 0x2
                 _GRADE_DATA:
000d2e           	.BYTE 0xC4
                 _crackCHKCNT:
000df2           	.BYTE 0x6
                 _dotCHKCNT:
000df8           	.BYTE 0x6
                 _PRT_A_OUT:
000dfe           	.BYTE 0x1
                 _PRT_B_OUT:
000dff           	.BYTE 0x1
                 _pocketSTATE:
000e00           	.BYTE 0x36
                 _sol_outcnt:
000e36           	.BYTE 0x36
                 _sol_offcnt:
000e6c           	.BYTE 0x36
                 _sol_offcnt_on:
000ea2           	.BYTE 0x36
                 _do_value:
000ed8           	.BYTE 0x9
                 _plc_prt_value:
000ee1           	.BYTE 0x1
                 _phase_a_cnt:
000ee2           	.BYTE 0x2
                 _max_scan_val:
000ee4           	.BYTE 0x2
                 _MAX_SCAN_REF:
000ee6           	.BYTE 0x2
                 _max_scan_cnt:
000ee8           	.BYTE 0x2
                 _HolderState:
000eea           	.BYTE 0x12
                 _HolderOnTime:
000efc           	.BYTE 0x12
                 _weight_ad_end_pulse:
000f0e           	.BYTE 0x2
                 _weight_cal_end_pulse:
000f10           	.BYTE 0x2
                 _zero_ad_end_pulse:
000f12           	.BYTE 0x2
                 _zero_cal_end_pulse:
000f14           	.BYTE 0x2
                 _ConvertPosition:
000f16           	.BYTE 0x2
                 _convert_end_pulse:
000f18           	.BYTE 0x2
                 _grading_end_pulse:
000f1a           	.BYTE 0x2
                 _crackchk_end_pulse:
000f1c           	.BYTE 0x2
                 _COMM_SET_Position:
000f1e           	.BYTE 0x2
                 _GradingPosition:
000f20           	.BYTE 0x2
                 _cur_z_phase_cnt:
000f22           	.BYTE 0x2
                 _weight_value:
000f24           	.BYTE 0xC
                 _zero_value:
000f30           	.BYTE 0xC
                 _ref_zero_value:
000f3c           	.BYTE 0xC
                 _ConstWeight:
000f48           	.BYTE 0xC
                 _ad_full_scan:
000f54           	.BYTE 0x4B0
                 _ResultWeight:
001404           	.BYTE 0xC
                 _zero_measure_value:
001410           	.BYTE 0x18
                 _phase_z_cnt:
001428           	.BYTE 0x4
                 _RxBuffer:
00142c           	.BYTE 0x1F4
                 _TxBuffer:
001620           	.BYTE 0x5DC
                 _COM_REV_ENABLE:
001bfc           	.BYTE 0x1
                 _COM_MOD:
001bfd           	.BYTE 0x1
                 _TxEnable:
001bfe           	.BYTE 0x1
                 _TimerMode:
001bff           	.BYTE 0x1
                 _adcnt:
001c00           	.BYTE 0x1
                 _avr_loop_cnt:
001c01           	.BYTE 0x1
                 _reformCH:
001c02           	.BYTE 0x1
                 _StopEnable:
001c03           	.BYTE 0x1
                 _A_TX_DATA:
001c04           	.BYTE 0x8
                 _A_CNT_TX_HOLD:
001c0c           	.BYTE 0x1
                 _TxLength:
001c0d           	.BYTE 0x2
                 _txcnt:
001c0f           	.BYTE 0x2
                 _revcnt:
001c11           	.BYTE 0x2
                 _RxLength:
001c13           	.BYTE 0x2
                 _tmrSPEEDCNT:
001c15           	.BYTE 0x2
                 _reformTotal:
001c17           	.BYTE 0x4
                 _reform_ADC:
001c1b           	.BYTE 0x30
                 _reformVoltage:
001c4b           	.BYTE 0x2
                 _reformWeight:
001c4d           	.BYTE 0x2
                 _reformSigned:
001c4f           	.BYTE 0x2
                 _diffVoltage:
001c51           	.BYTE 0x2
                 _prt_a_outcnt:
001c53           	.BYTE 0x1
                 _prt_a_off_enable:
001c54           	.BYTE 0x1
                 _prt_a_offcnt:
001c55           	.BYTE 0x1
                 _prt_b_outcnt:
001c56           	.BYTE 0x1
                 _prt_b_off_enable:
001c57           	.BYTE 0x1
                 _prt_b_offcnt:
001c58           	.BYTE 0x1
                 _CONTROLLER_ID:
001c59           	.BYTE 0x1
                 _led_buz_value:
001c5a           	.BYTE 0x1
                 _AccelStart:
001c5b           	.BYTE 0x1
                 _DeAccelStart:
001c5c           	.BYTE 0x1
                 _AccelStep:
001c5d           	.BYTE 0x1
                 _DeAccelStep:
001c5e           	.BYTE 0x1
                 _Sol_Correction_Count:
001c5f           	.BYTE 0x1
                 _InterLockON:
001c60           	.BYTE 0x1
                 _InterLockCnt:
001c61           	.BYTE 0x1
                 _AccelCount:
001c62           	.BYTE 0x2
                 _DeAccelCount:
001c64           	.BYTE 0x2
                 _timer_period:
001c66           	.BYTE 0x1
                 _unit_correct:
001c67           	.BYTE 0x1
                 _unit_rising:
001c68           	.BYTE 0x1
                 _unit_falling:
001c69           	.BYTE 0x1
                 _EVENT_ENABLE:
001c6a           	.BYTE 0x1
                 _Marking_Version:
001c6b           	.BYTE 0x1
                 _LifeTime_Run:
001c6c           	.BYTE 0x1
                 _CHK_ABN:
001c6d           	.BYTE 0x1
                 _abn_phase_a:
001c6e           	.BYTE 0x2
                 _abn_butket_num_temp:
001c70           	.BYTE 0x2
                 _Old_Value:
001c72           	.BYTE 0x2
                 _New_Value:
001c74           	.BYTE 0x2
                 __ADC_CH:
001c76           	.BYTE 0x8
                 _Data_Buff:
001c7e           	.BYTE 0x210
                 _old_prttype:
001e8e           	.BYTE 0x9
                 _StopCMD:
001e97           	.BYTE 0x1
                 _MACHINE_STATE:
001e98           	.BYTE 0x1
                 _Crack_Dot_Chk_Enable:
001e99           	.BYTE 0x1
                 _weight_ad_cnt:
001e9a           	.BYTE 0x1
                 _zero_ad_cnt:
001e9b           	.BYTE 0x1
                 _old_Zero:
001e9c           	.BYTE 0xC
                 _correct_data_end_pulse:
001ea8           	.BYTE 0x2
                 _voltData:
001eaa           	.BYTE 0xF0
                 _off_Correction_Count:
001f9a           	.BYTE 0x2
                 _init_off_correction:
001f9c           	.BYTE 0x2
                 _deAccelStartCount:
001f9e           	.BYTE 0x2
                 _accelStartCount:
001fa0           	.BYTE 0x2
                 _DeAccelDelay:
001fa2           	.BYTE 0x2
                 _DelayTimeCount:
001fa4           	.BYTE 0x2
                 _timerstop:
001fa6           	.BYTE 0x1
                 _deaccel_chk:
001fa7           	.BYTE 0x1
                 _accel_chk:
001fa8           	.BYTE 0x1
                 _SpeedAdjEnable:
001fa9           	.BYTE 0x1
                 _debugMode:
001faa           	.BYTE 0x1
                 _slidemotor_state:
001fab           	.BYTE 0x1
                 _ACD_DATA_BUF:
001fac           	.BYTE 0x96
                 _accel_rdy:
002042           	.BYTE 0x1
                 _deaccel_rdy:
002043           	.BYTE 0x1
                 _PackerSharedEnable:
002044           	.BYTE 0x1
                 _Marking_MOUT:
002045           	.BYTE 0x1
                 _Marking_MOUT_SNG:
002046           	.BYTE 0x8
                 
                 	.CSEG
                 ;OPTIMIZER ADDED SUBROUTINE, CALLED 2 TIMES, CODE SIZE REDUCTION:7 WORDS
                 SUBOPT_0x0:
0027c1 0fee      	LSL  R30
0027c2 1fff      	ROL  R31
0027c3 0fae      	ADD  R26,R30
0027c4 1fbf      	ADC  R27,R31
0027c5 940e 313f 	CALL __GETW1P
0027c7 01d0      	MOVW R26,R0
0027c8 93ed      	ST   X+,R30
0027c9 93fc      	ST   X,R31
0027ca e0aa      	LDI  R26,LOW(10)
0027cb 9f1a      	MUL  R17,R26
0027cc 01f0      	MOVW R30,R0
0027cd 9508      	RET
                 
                 ;OPTIMIZER ADDED SUBROUTINE, CALLED 4 TIMES, CODE SIZE REDUCTION:6 WORDS
                 SUBOPT_0x1:
0027ce e0aa      	LDI  R26,LOW(10)
0027cf 9f1a      	MUL  R17,R26
0027d0 01f0      	MOVW R30,R0
                +
0027d1 54eb     +SUBI R30 , LOW ( - _GRADE_INFO - ( 5 ) )
0027d2 4ff5     +SBCI R31 , HIGH ( - _GRADE_INFO - ( 5 ) )
                 	__ADDW1MN _GRADE_INFO,5
0027d3 9508      	RET
                 
                 ;OPTIMIZER ADDED SUBROUTINE, CALLED 12 TIMES, CODE SIZE REDUCTION:19 WORDS
                 SUBOPT_0x2:
0027d4 e0a0      	LDI  R26,LOW(0)
0027d5 e0b0      	LDI  R27,HIGH(0)
0027d6 83a0      	STD  Z+0,R26
0027d7 83b1      	STD  Z+1,R27
0027d8 9508      	RET
                 
                 ;OPTIMIZER ADDED SUBROUTINE, CALLED 19 TIMES, CODE SIZE REDUCTION:33 WORDS
                 SUBOPT_0x3:
0027d9 01df      	MOVW R26,R30
0027da 27ee      	CLR  R30
0027db 0fa0      	ADD  R26,R16
0027dc 1fbe      	ADC  R27,R30
0027dd 9508      	RET
                 
                 ;OPTIMIZER ADDED SUBROUTINE, CALLED 4 TIMES, CODE SIZE REDUCTION:6 WORDS
                 SUBOPT_0x4:
0027de e3a0      	LDI  R26,LOW(48)
0027df 9f1a      	MUL  R17,R26
0027e0 01f0      	MOVW R30,R0
                +
0027e1 5fe0     +SUBI R30 , LOW ( - _SOL_INFO - ( 6 ) )
0027e2 4ff4     +SBCI R31 , HIGH ( - _SOL_INFO - ( 6 ) )
                 	__ADDW1MN _SOL_INFO,6
0027e3 9508      	RET
                 
                 ;OPTIMIZER ADDED SUBROUTINE, CALLED 3 TIMES, CODE SIZE REDUCTION:3 WORDS
                 SUBOPT_0x5:
0027e4 0fea      	ADD  R30,R26
0027e5 1ffb      	ADC  R31,R27
0027e6 010f      	MOVW R0,R30
0027e7 2fe0      	MOV  R30,R16
0027e8 e0f0      	LDI  R31,0
0027e9 9508      	RET
                 
                 ;OPTIMIZER ADDED SUBROUTINE, CALLED 4 TIMES, CODE SIZE REDUCTION:3 WORDS
                 SUBOPT_0x6:
0027ea 0fae      	ADD  R26,R30
0027eb 1fbf      	ADC  R27,R31
0027ec 91ec      	LD   R30,X
0027ed 01d0      	MOVW R26,R0
0027ee 9508      	RET
                 
                 ;OPTIMIZER ADDED SUBROUTINE, CALLED 3 TIMES, CODE SIZE REDUCTION:13 WORDS
                 SUBOPT_0x7:
0027ef e3a0      	LDI  R26,LOW(48)
0027f0 9f1a      	MUL  R17,R26
0027f1 01f0      	MOVW R30,R0
                +
0027f2 5eea     +SUBI R30 , LOW ( - _SOL_INFO - ( 12 ) )
0027f3 4ff4     +SBCI R31 , HIGH ( - _SOL_INFO - ( 12 ) )
                 	__ADDW1MN _SOL_INFO,12
0027f4 01df      	MOVW R26,R30
0027f5 2fe0      	MOV  R30,R16
0027f6 e0f0      	LDI  R31,0
0027f7 0fee      	LSL  R30
0027f8 1fff      	ROL  R31
0027f9 9508      	RET
                 
                 ;OPTIMIZER ADDED SUBROUTINE, CALLED 2 TIMES, CODE SIZE REDUCTION:7 WORDS
                 SUBOPT_0x8:
0027fa 0fee      	LSL  R30
0027fb 1fff      	ROL  R31
0027fc 0fae      	ADD  R26,R30
0027fd 1fbf      	ADC  R27,R31
0027fe 940e 313f 	CALL __GETW1P
002800 01d0      	MOVW R26,R0
002801 93ed      	ST   X+,R30
002802 93fc      	ST   X,R31
002803 e3a0      	LDI  R26,LOW(48)
002804 9f1a      	MUL  R17,R26
002805 01f0      	MOVW R30,R0
002806 9508      	RET
                 
                 ;OPTIMIZER ADDED SUBROUTINE, CALLED 2 TIMES, CODE SIZE REDUCTION:2 WORDS
                 SUBOPT_0x9:
                +
002807 5dee     +SUBI R30 , LOW ( - _SOL_INFO - ( 24 ) )
002808 4ff4     +SBCI R31 , HIGH ( - _SOL_INFO - ( 24 ) )
                 	__ADDW1MN _SOL_INFO,24
002809 01df      	MOVW R26,R30
00280a 2fe0      	MOV  R30,R16
00280b e0f0      	LDI  R31,0
00280c 0fee      	LSL  R30
00280d 1fff      	ROL  R31
00280e 9508      	RET
                 
                 ;OPTIMIZER ADDED SUBROUTINE, CALLED 19 TIMES, CODE SIZE REDUCTION:51 WORDS
                 SUBOPT_0xA:
00280f e0f0      	LDI  R31,0
002810 0fee      	LSL  R30
002811 1fff      	ROL  R31
002812 0fea      	ADD  R30,R26
002813 1ffb      	ADC  R31,R27
002814 9508      	RET
                 
                 ;OPTIMIZER ADDED SUBROUTINE, CALLED 108 TIMES, CODE SIZE REDUCTION:211 WORDS
                 SUBOPT_0xB:
002815 0fee      	LSL  R30
002816 1fff      	ROL  R31
002817 0fae      	ADD  R26,R30
002818 1fbf      	ADC  R27,R31
002819 9508      	RET
                 
                 ;OPTIMIZER ADDED SUBROUTINE, CALLED 18 TIMES, CODE SIZE REDUCTION:65 WORDS
                 SUBOPT_0xC:
00281a 2fe1      	MOV  R30,R17
00281b ebaa      	LDI  R26,LOW(_PACKER_INFO)
00281c e0bc      	LDI  R27,HIGH(_PACKER_INFO)
00281d e0f0      	LDI  R31,0
00281e 940e 305f 	CALL __LSLW2
002820 9508      	RET
                 
                 ;OPTIMIZER ADDED SUBROUTINE, CALLED 4 TIMES, CODE SIZE REDUCTION:6 WORDS
                 SUBOPT_0xD:
002821 e0a5      	LDI  R26,LOW(5)
002822 9f1a      	MUL  R17,R26
002823 01f0      	MOVW R30,R0
                +
002824 52e1     +SUBI R30 , LOW ( - _LDCELL_INFO - ( 1 ) )
002825 4ff3     +SBCI R31 , HIGH ( - _LDCELL_INFO - ( 1 ) )
                 	__ADDW1MN _LDCELL_INFO,1
002826 9508      	RET
                 
                 ;OPTIMIZER ADDED SUBROUTINE, CALLED 3 TIMES, CODE SIZE REDUCTION:1 WORDS
                 SUBOPT_0xE:
002827 93e0 0cfc 	STS  _MEASURE_INFO,R30
002829 93f0 0cfd 	STS  _MEASURE_INFO+1,R31
00282b 9508      	RET
                 
                 ;OPTIMIZER ADDED SUBROUTINE, CALLED 3 TIMES, CODE SIZE REDUCTION:1 WORDS
                 SUBOPT_0xF:
                +
00282c 93e0 0cfe+STS _MEASURE_INFO + ( 2 ) , R30
00282e 93f0 0cff+STS _MEASURE_INFO + ( 2 ) + 1 , R31
                 	__PUTW1MN _MEASURE_INFO,2
002830 9508      	RET
                 
                 ;OPTIMIZER ADDED SUBROUTINE, CALLED 3 TIMES, CODE SIZE REDUCTION:1 WORDS
                 SUBOPT_0x10:
                +
002831 93e0 0d02+STS _MEASURE_INFO + ( 6 ) , R30
002833 93f0 0d03+STS _MEASURE_INFO + ( 6 ) + 1 , R31
                 	__PUTW1MN _MEASURE_INFO,6
002835 9508      	RET
                 
                 ;OPTIMIZER ADDED SUBROUTINE, CALLED 3 TIMES, CODE SIZE REDUCTION:1 WORDS
                 SUBOPT_0x11:
                +
002836 93e0 0d04+STS _MEASURE_INFO + ( 8 ) , R30
002838 93f0 0d05+STS _MEASURE_INFO + ( 8 ) + 1 , R31
                 	__PUTW1MN _MEASURE_INFO,8
00283a 9508      	RET
                 
                 ;OPTIMIZER ADDED SUBROUTINE, CALLED 3 TIMES, CODE SIZE REDUCTION:1 WORDS
                 SUBOPT_0x12:
                +
00283b 93e0 0d06+STS _MEASURE_INFO + ( 10 ) , R30
00283d 93f0 0d07+STS _MEASURE_INFO + ( 10 ) + 1 , R31
                 	__PUTW1MN _MEASURE_INFO,10
00283f 9508      	RET
                 
                 ;OPTIMIZER ADDED SUBROUTINE, CALLED 3 TIMES, CODE SIZE REDUCTION:1 WORDS
                 SUBOPT_0x13:
                +
002840 93e0 0d00+STS _MEASURE_INFO + ( 4 ) , R30
002842 93f0 0d01+STS _MEASURE_INFO + ( 4 ) + 1 , R31
                 	__PUTW1MN _MEASURE_INFO,4
002844 9508      	RET
                 
                 ;OPTIMIZER ADDED SUBROUTINE, CALLED 3 TIMES, CODE SIZE REDUCTION:1 WORDS
                 SUBOPT_0x14:
                +
002845 93e0 0d1c+STS _SYS_INFO + ( 2 ) , R30
002847 93f0 0d1d+STS _SYS_INFO + ( 2 ) + 1 , R31
                 	__PUTW1MN _SYS_INFO,2
002849 9508      	RET
                 
                 ;OPTIMIZER ADDED SUBROUTINE, CALLED 3 TIMES, CODE SIZE REDUCTION:1 WORDS
                 SUBOPT_0x15:
00284a 93e0 0d1a 	STS  _SYS_INFO,R30
00284c 93f0 0d1b 	STS  _SYS_INFO+1,R31
00284e 9508      	RET
                 
                 ;OPTIMIZER ADDED SUBROUTINE, CALLED 3 TIMES, CODE SIZE REDUCTION:1 WORDS
                 SUBOPT_0x16:
                +
00284f 93e0 0d1f+STS _SYS_INFO + ( 5 ) , R30
002851 93f0 0d20+STS _SYS_INFO + ( 5 ) + 1 , R31
                 	__PUTW1MN _SYS_INFO,5
002853 9508      	RET
                 
                 ;OPTIMIZER ADDED SUBROUTINE, CALLED 2 TIMES, CODE SIZE REDUCTION:1 WORDS
                 SUBOPT_0x17:
002854 e6e8      	LDI  R30,LOW(360)
002855 e0f1      	LDI  R31,HIGH(360)
                +
002856 93e0 0d21+STS _SYS_INFO + ( 7 ) , R30
002858 93f0 0d22+STS _SYS_INFO + ( 7 ) + 1 , R31
                 	__PUTW1MN _SYS_INFO,7
00285a 9508      	RET
                 
                 ;OPTIMIZER ADDED SUBROUTINE, CALLED 5 TIMES, CODE SIZE REDUCTION:5 WORDS
                 SUBOPT_0x18:
00285b e0e0      	LDI  R30,LOW(0)
00285c 93e0 0081 	STS  129,R30
00285e 9508      	RET
                 
                 ;OPTIMIZER ADDED SUBROUTINE, CALLED 7 TIMES, CODE SIZE REDUCTION:15 WORDS
                 SUBOPT_0x19:
00285f 93e0 0085 	STS  133,R30
002861 e0e0      	LDI  R30,LOW(0)
002862 93e0 0084 	STS  132,R30
002864 9508      	RET
                 
                 ;OPTIMIZER ADDED SUBROUTINE, CALLED 3 TIMES, CODE SIZE REDUCTION:3 WORDS
                 SUBOPT_0x1A:
002865 940e 03a7 	CALL _SendSPIByte
002867 e0a0      	LDI  R26,LOW(0)
002868 940c 03a7 	JMP  _SendSPIByte
                 
                 ;OPTIMIZER ADDED SUBROUTINE, CALLED 9 TIMES, CODE SIZE REDUCTION:29 WORDS
                 SUBOPT_0x1B:
00286a 93fa      	ST   -Y,R31
00286b 93ea      	ST   -Y,R30
00286c e7ee      	LDI  R30,LOW(_Data_Buff)
00286d e1fc      	LDI  R31,HIGH(_Data_Buff)
00286e 93fa      	ST   -Y,R31
00286f 93ea      	ST   -Y,R30
002870 9508      	RET
                 
                 ;OPTIMIZER ADDED SUBROUTINE, CALLED 9 TIMES, CODE SIZE REDUCTION:13 WORDS
                 SUBOPT_0x1C:
002871 e7ee      	LDI  R30,LOW(_Data_Buff)
002872 e1fc      	LDI  R31,HIGH(_Data_Buff)
002873 93fa      	ST   -Y,R31
002874 93ea      	ST   -Y,R30
002875 9508      	RET
                 
                 ;OPTIMIZER ADDED SUBROUTINE, CALLED 2 TIMES, CODE SIZE REDUCTION:12 WORDS
                 SUBOPT_0x1D:
002876 e0e0      	LDI  R30,LOW(0)
002877 93e0 1c5b 	STS  _AccelStart,R30
002879 93e0 1c5d 	STS  _AccelStep,R30
00287b 91e0 1fa0 	LDS  R30,_accelStartCount
00287d 91f0 1fa1 	LDS  R31,_accelStartCount+1
00287f 93e0 1c62 	STS  _AccelCount,R30
002881 93f0 1c63 	STS  _AccelCount+1,R31
002883 e0e0      	LDI  R30,LOW(0)
002884 93e0 1c5f 	STS  _Sol_Correction_Count,R30
002886 9508      	RET
                 
                 ;OPTIMIZER ADDED SUBROUTINE, CALLED 3 TIMES, CODE SIZE REDUCTION:1 WORDS
                 SUBOPT_0x1E:
002887 e0e0      	LDI  R30,LOW(0)
002888 93e0 2042 	STS  _accel_rdy,R30
00288a e0e1      	LDI  R30,LOW(1)
00288b 9508      	RET
                 
                 ;OPTIMIZER ADDED SUBROUTINE, CALLED 3 TIMES, CODE SIZE REDUCTION:1 WORDS
                 SUBOPT_0x1F:
00288c 91e0 1f9c 	LDS  R30,_init_off_correction
00288e 91f0 1f9d 	LDS  R31,_init_off_correction+1
002890 9508      	RET
                 
                 ;OPTIMIZER ADDED SUBROUTINE, CALLED 2 TIMES, CODE SIZE REDUCTION:1 WORDS
                 SUBOPT_0x20:
                +
002891 91e0 0d1e+LDS R30 , _SYS_INFO + ( 4 )
                 	__GETB1MN _SYS_INFO,4
002893 5feb      	SUBI R30,-LOW(5)
002894 93e0 1c5f 	STS  _Sol_Correction_Count,R30
002896 e0e1      	LDI  R30,LOW(1)
002897 9508      	RET
                 
                 ;OPTIMIZER ADDED SUBROUTINE, CALLED 5 TIMES, CODE SIZE REDUCTION:25 WORDS
                 SUBOPT_0x21:
002898 e0e0      	LDI  R30,LOW(0)
002899 93e0 0089 	STS  137,R30
00289b e4ee      	LDI  R30,LOW(78)
00289c 93e0 0088 	STS  136,R30
00289e e0e5      	LDI  R30,LOW(5)
00289f 93e0 0081 	STS  129,R30
0028a1 9508      	RET
                 
                 ;OPTIMIZER ADDED SUBROUTINE, CALLED 2 TIMES, CODE SIZE REDUCTION:7 WORDS
                 SUBOPT_0x22:
0028a2 e0e0      	LDI  R30,LOW(0)
0028a3 93e0 1c5c 	STS  _DeAccelStart,R30
0028a5 91e0 1f9e 	LDS  R30,_deAccelStartCount
0028a7 93e0 1c5e 	STS  _DeAccelStep,R30
0028a9 e0e0      	LDI  R30,LOW(0)
0028aa 93e0 1c64 	STS  _DeAccelCount,R30
0028ac 93e0 1c65 	STS  _DeAccelCount+1,R30
0028ae 9508      	RET
                 
                 ;OPTIMIZER ADDED SUBROUTINE, CALLED 6 TIMES, CODE SIZE REDUCTION:22 WORDS
                 SUBOPT_0x23:
0028af 91e0 0ee1 	LDS  R30,_plc_prt_value
0028b1 7fee      	ANDI R30,0xFE
0028b2 93e0 0ee1 	STS  _plc_prt_value,R30
0028b4 9508      	RET
                 
                 ;OPTIMIZER ADDED SUBROUTINE, CALLED 5 TIMES, CODE SIZE REDUCTION:33 WORDS
                 SUBOPT_0x24:
0028b5 93e0 8800 	STS  34816,R30
0028b7 91e0 1c5a 	LDS  R30,_led_buz_value
0028b9 7def      	ANDI R30,0xDF
0028ba 93e0 1c5a 	STS  _led_buz_value,R30
0028bc 93e0 9000 	STS  36864,R30
0028be 9508      	RET
                 
                 ;OPTIMIZER ADDED SUBROUTINE, CALLED 3 TIMES, CODE SIZE REDUCTION:1 WORDS
                 SUBOPT_0x25:
0028bf 93e0 1f9a 	STS  _off_Correction_Count,R30
0028c1 93e0 1f9b 	STS  _off_Correction_Count+1,R30
0028c3 9508      	RET
                 
                 ;OPTIMIZER ADDED SUBROUTINE, CALLED 3 TIMES, CODE SIZE REDUCTION:5 WORDS
                 SUBOPT_0x26:
0028c4 e0e1      	LDI  R30,LOW(1)
0028c5 93e0 1c6a 	STS  _EVENT_ENABLE,R30
0028c7 93e0 1fa9 	STS  _SpeedAdjEnable,R30
0028c9 9508      	RET
                 
                 ;OPTIMIZER ADDED SUBROUTINE, CALLED 6 TIMES, CODE SIZE REDUCTION:32 WORDS
                 SUBOPT_0x27:
0028ca 91e0 1c5a 	LDS  R30,_led_buz_value
0028cc 62e0      	ORI  R30,0x20
0028cd 93e0 1c5a 	STS  _led_buz_value,R30
0028cf 93e0 9000 	STS  36864,R30
0028d1 9508      	RET
                 
                 ;OPTIMIZER ADDED SUBROUTINE, CALLED 10 TIMES, CODE SIZE REDUCTION:33 WORDS
                 SUBOPT_0x28:
0028d2 93e0 0ee1 	STS  _plc_prt_value,R30
0028d4 93e0 8800 	STS  34816,R30
0028d6 9508      	RET
                 
                 ;OPTIMIZER ADDED SUBROUTINE, CALLED 3 TIMES, CODE SIZE REDUCTION:19 WORDS
                 SUBOPT_0x29:
0028d7 920a      	ST   -Y,R0
0028d8 921a      	ST   -Y,R1
0028d9 92fa      	ST   -Y,R15
0028da 936a      	ST   -Y,R22
0028db 937a      	ST   -Y,R23
0028dc 938a      	ST   -Y,R24
0028dd 939a      	ST   -Y,R25
0028de 93aa      	ST   -Y,R26
0028df 93ba      	ST   -Y,R27
0028e0 93ea      	ST   -Y,R30
0028e1 93fa      	ST   -Y,R31
0028e2 b7ef      	IN   R30,SREG
0028e3 93ea      	ST   -Y,R30
0028e4 9508      	RET
                 
                 ;OPTIMIZER ADDED SUBROUTINE, CALLED 4 TIMES, CODE SIZE REDUCTION:15 WORDS
                 SUBOPT_0x2A:
0028e5 91e0 1428 	LDS  R30,_phase_z_cnt
0028e7 91f0 1429 	LDS  R31,_phase_z_cnt+1
0028e9 9160 142a 	LDS  R22,_phase_z_cnt+2
0028eb 9170 142b 	LDS  R23,_phase_z_cnt+3
0028ed 9508      	RET
                 
                 ;OPTIMIZER ADDED SUBROUTINE, CALLED 4 TIMES, CODE SIZE REDUCTION:6 WORDS
                 SUBOPT_0x2B:
0028ee e0e0      	LDI  R30,LOW(0)
0028ef 93e0 0ee2 	STS  _phase_a_cnt,R30
0028f1 93e0 0ee3 	STS  _phase_a_cnt+1,R30
0028f3 9508      	RET
                 
                 ;OPTIMIZER ADDED SUBROUTINE, CALLED 22 TIMES, CODE SIZE REDUCTION:39 WORDS
                 SUBOPT_0x2C:
0028f4 91a0 0ee2 	LDS  R26,_phase_a_cnt
0028f6 91b0 0ee3 	LDS  R27,_phase_a_cnt+1
0028f8 9508      	RET
                 
                 ;OPTIMIZER ADDED SUBROUTINE, CALLED 2 TIMES, CODE SIZE REDUCTION:10 WORDS
                 SUBOPT_0x2D:
0028f9 91a0 1428 	LDS  R26,_phase_z_cnt
0028fb 91b0 1429 	LDS  R27,_phase_z_cnt+1
0028fd 9180 142a 	LDS  R24,_phase_z_cnt+2
0028ff 9190 142b 	LDS  R25,_phase_z_cnt+3
                +
002901 30a1     +CPI R26 , LOW ( 0x1 )
002902 e0e0     +LDI R30 , HIGH ( 0x1 )
002903 07be     +CPC R27 , R30
002904 e0e0     +LDI R30 , BYTE3 ( 0x1 )
002905 078e     +CPC R24 , R30
002906 e0e0     +LDI R30 , BYTE4 ( 0x1 )
002907 079e     +CPC R25 , R30
                 	__CPD2N 0x1
002908 9508      	RET
                 
                 ;OPTIMIZER ADDED SUBROUTINE, CALLED 2 TIMES, CODE SIZE REDUCTION:5 WORDS
                 SUBOPT_0x2E:
002909 e2a8      	LDI  R26,LOW(_phase_z_cnt)
00290a e1b4      	LDI  R27,HIGH(_phase_z_cnt)
00290b 940e 3149 	CALL __GETD1P_INC
                +
00290d 5fef     +SUBI R30 , LOW ( - 1 )
00290e 4fff     +SBCI R31 , HIGH ( - 1 )
00290f 4f6f     +SBCI R22 , BYTE3 ( - 1 )
002910 4f7f     +SBCI R23 , BYTE4 ( - 1 )
                 	__SUBD1N -1
002911 940e 3153 	CALL __PUTDP1_DEC
002913 9508      	RET
                 
                 ;OPTIMIZER ADDED SUBROUTINE, CALLED 15 TIMES, CODE SIZE REDUCTION:25 WORDS
                 SUBOPT_0x2F:
002914 91e0 1c5a 	LDS  R30,_led_buz_value
002916 93e0 9000 	STS  36864,R30
002918 9508      	RET
                 
                 ;OPTIMIZER ADDED SUBROUTINE, CALLED 23 TIMES, CODE SIZE REDUCTION:41 WORDS
                 SUBOPT_0x30:
002919 91e0 0ee2 	LDS  R30,_phase_a_cnt
00291b 91f0 0ee3 	LDS  R31,_phase_a_cnt+1
00291d 9508      	RET
                 
                 ;OPTIMIZER ADDED SUBROUTINE, CALLED 2 TIMES, CODE SIZE REDUCTION:3 WORDS
                 SUBOPT_0x31:
                +
00291e 91e0 0d1f+LDS R30 , _SYS_INFO + ( 5 )
002920 91f0 0d20+LDS R31 , _SYS_INFO + ( 5 ) + 1
                 	__GETW1MN _SYS_INFO,5
002922 dfd1      	RCALL SUBOPT_0x2C
002923 17ea      	CP   R30,R26
002924 07fb      	CPC  R31,R27
002925 9508      	RET
                 
                 ;OPTIMIZER ADDED SUBROUTINE, CALLED 2 TIMES, CODE SIZE REDUCTION:2 WORDS
                 SUBOPT_0x32:
002926 91e0 1c5a 	LDS  R30,_led_buz_value
002928 7def      	ANDI R30,0xDF
002929 93e0 1c5a 	STS  _led_buz_value,R30
00292b cfe8      	RJMP SUBOPT_0x2F
                 
                 ;OPTIMIZER ADDED SUBROUTINE, CALLED 2 TIMES, CODE SIZE REDUCTION:21 WORDS
                 SUBOPT_0x33:
00292c e0e2      	LDI  R30,LOW(2)
00292d 93e0 1c04 	STS  _A_TX_DATA,R30
00292f e0e0      	LDI  R30,LOW(0)
                +
002930 93e0 1c05+STS _A_TX_DATA + ( 1 ) , R30
                 	__PUTB1MN _A_TX_DATA,1
002932 e0e4      	LDI  R30,LOW(4)
                +
002933 93e0 1c06+STS _A_TX_DATA + ( 2 ) , R30
                 	__PUTB1MN _A_TX_DATA,2
002935 eee1      	LDI  R30,LOW(225)
                +
002936 93e0 1c07+STS _A_TX_DATA + ( 3 ) , R30
                 	__PUTB1MN _A_TX_DATA,3
002938 e0e1      	LDI  R30,LOW(1)
                +
002939 93e0 1c08+STS _A_TX_DATA + ( 4 ) , R30
                 	__PUTB1MN _A_TX_DATA,4
00293b 91e0 0ee3 	LDS  R30,_phase_a_cnt+1
                +
00293d 93e0 1c09+STS _A_TX_DATA + ( 5 ) , R30
                 	__PUTB1MN _A_TX_DATA,5
00293f 91e0 0ee2 	LDS  R30,_phase_a_cnt
                +
002941 93e0 1c0a+STS _A_TX_DATA + ( 6 ) , R30
                 	__PUTB1MN _A_TX_DATA,6
002943 e0e3      	LDI  R30,LOW(3)
                +
002944 93e0 1c0b+STS _A_TX_DATA + ( 7 ) , R30
                 	__PUTB1MN _A_TX_DATA,7
002946 9508      	RET
                 
                 ;OPTIMIZER ADDED SUBROUTINE, CALLED 2 TIMES, CODE SIZE REDUCTION:26 WORDS
                 SUBOPT_0x34:
002947 e2e0      	LDI  R30,LOW(_TxBuffer)
002948 e1f6      	LDI  R31,HIGH(_TxBuffer)
002949 93fa      	ST   -Y,R31
00294a 93ea      	ST   -Y,R30
00294b e0e4      	LDI  R30,LOW(_A_TX_DATA)
00294c e1fc      	LDI  R31,HIGH(_A_TX_DATA)
00294d 93fa      	ST   -Y,R31
00294e 93ea      	ST   -Y,R30
00294f e0a8      	LDI  R26,LOW(8)
002950 e0b0      	LDI  R27,0
002951 940e 27af 	CALL _memcpy
002953 e0e1      	LDI  R30,LOW(1)
002954 93e0 1bfe 	STS  _TxEnable,R30
002956 e0e1      	LDI  R30,LOW(1)
002957 e0f0      	LDI  R31,HIGH(1)
002958 93e0 1c0f 	STS  _txcnt,R30
00295a 93f0 1c10 	STS  _txcnt+1,R31
00295c e0e8      	LDI  R30,LOW(8)
00295d e0f0      	LDI  R31,HIGH(8)
00295e 93e0 1c0d 	STS  _TxLength,R30
002960 93f0 1c0e 	STS  _TxLength+1,R31
002962 91e0 1620 	LDS  R30,_TxBuffer
002964 93e0 00ce 	STS  206,R30
002966 9508      	RET
                 
                 ;OPTIMIZER ADDED SUBROUTINE, CALLED 2 TIMES, CODE SIZE REDUCTION:1 WORDS
                 SUBOPT_0x35:
002967 dfb1      	RCALL SUBOPT_0x30
002968 2766      	CLR  R22
002969 2777      	CLR  R23
00296a 940e 314e 	CALL __PUTDP1
00296c 9508      	RET
                 
                 ;OPTIMIZER ADDED SUBROUTINE, CALLED 2 TIMES, CODE SIZE REDUCTION:5 WORDS
                 SUBOPT_0x36:
00296d 91a0 1c6e 	LDS  R26,_abn_phase_a
00296f 91b0 1c6f 	LDS  R27,_abn_phase_a+1
002971 0fae      	ADD  R26,R30
002972 1fbf      	ADC  R27,R31
002973 dfa5      	RCALL SUBOPT_0x30
002974 17ea      	CP   R30,R26
002975 07fb      	CPC  R31,R27
002976 9508      	RET
                 
                 ;OPTIMIZER ADDED SUBROUTINE, CALLED 3 TIMES, CODE SIZE REDUCTION:1 WORDS
                 SUBOPT_0x37:
                +
002977 91e0 0d06+LDS R30 , _MEASURE_INFO + ( 10 )
002979 91f0 0d07+LDS R31 , _MEASURE_INFO + ( 10 ) + 1
                 	__GETW1MN _MEASURE_INFO,10
00297b 9508      	RET
                 
                 ;OPTIMIZER ADDED SUBROUTINE, CALLED 10 TIMES, CODE SIZE REDUCTION:15 WORDS
                 SUBOPT_0x38:
00297c 93e0 1c5a 	STS  _led_buz_value,R30
00297e cf95      	RJMP SUBOPT_0x2F
                 
                 ;OPTIMIZER ADDED SUBROUTINE, CALLED 3 TIMES, CODE SIZE REDUCTION:9 WORDS
                 SUBOPT_0x39:
00297f 91e0 0d2c 	LDS  R30,_ABN_INFO
002981 91f0 0d2d 	LDS  R31,_ABN_INFO+1
002983 e0a0      	LDI  R26,LOW(_BucketData)
002984 e0b6      	LDI  R27,HIGH(_BucketData)
002985 ce8f      	RJMP SUBOPT_0xB
                 
                 ;OPTIMIZER ADDED SUBROUTINE, CALLED 4 TIMES, CODE SIZE REDUCTION:3 WORDS
                 SUBOPT_0x3A:
002986 85ea      	LDD  R30,Y+10
002987 85fb      	LDD  R31,Y+10+1
002988 940e 305f 	CALL __LSLW2
00298a 9508      	RET
                 
                 ;OPTIMIZER ADDED SUBROUTINE, CALLED 2 TIMES, CODE SIZE REDUCTION:4 WORDS
                 SUBOPT_0x3B:
00298b 0fae      	ADD  R26,R30
00298c 1fbf      	ADC  R27,R31
00298d 940e 3149 	CALL __GETD1P_INC
00298f 9731      	SBIW R30,1
002990 4060      	SBCI R22,0
002991 4070      	SBCI R23,0
002992 940e 3153 	CALL __PUTDP1_DEC
002994 9508      	RET
                 
                 ;OPTIMIZER ADDED SUBROUTINE, CALLED 20 TIMES, CODE SIZE REDUCTION:111 WORDS
                 SUBOPT_0x3C:
002995 940e 3149 	CALL __GETD1P_INC
                +
002997 5fef     +SUBI R30 , LOW ( - 1 )
002998 4fff     +SBCI R31 , HIGH ( - 1 )
002999 4f6f     +SBCI R22 , BYTE3 ( - 1 )
00299a 4f7f     +SBCI R23 , BYTE4 ( - 1 )
                 	__SUBD1N -1
00299b 940e 3153 	CALL __PUTDP1_DEC
00299d 9508      	RET
                 
                 ;OPTIMIZER ADDED SUBROUTINE, CALLED 7 TIMES, CODE SIZE REDUCTION:9 WORDS
                 SUBOPT_0x3D:
00299e 0fae      	ADD  R26,R30
00299f 1fbf      	ADC  R27,R31
0029a0 940e 3143 	CALL __GETD1P
0029a2 9508      	RET
                 
                 ;OPTIMIZER ADDED SUBROUTINE, CALLED 2 TIMES, CODE SIZE REDUCTION:5 WORDS
                 SUBOPT_0x3E:
0029a3 91a0 0d2c 	LDS  R26,_ABN_INFO
0029a5 91b0 0d2d 	LDS  R27,_ABN_INFO+1
0029a7 0faa      	LSL  R26
0029a8 1fbb      	ROL  R27
                +
0029a9 5aa4     +SUBI R26 , LOW ( - _BucketData_Wight - ( 4 ) )
0029aa 4fb7     +SBCI R27 , HIGH ( - _BucketData_Wight - ( 4 ) )
                 	__ADDW2MN _BucketData_Wight,4
0029ab 940e 313f 	CALL __GETW1P
0029ad 9508      	RET
                 
                 ;OPTIMIZER ADDED SUBROUTINE, CALLED 5 TIMES, CODE SIZE REDUCTION:9 WORDS
                 SUBOPT_0x3F:
0029ae e0ea      	LDI  R30,LOW(10)
0029af 940e 30a4 	CALL __MULB1W2U
                +
0029b1 54eb     +SUBI R30 , LOW ( - _GRADE_INFO - ( 5 ) )
0029b2 4ff5     +SBCI R31 , HIGH ( - _GRADE_INFO - ( 5 ) )
                 	__ADDW1MN _GRADE_INFO,5
0029b3 9508      	RET
                 
                 ;OPTIMIZER ADDED SUBROUTINE, CALLED 4 TIMES, CODE SIZE REDUCTION:6 WORDS
                 SUBOPT_0x40:
0029b4 01f8      	MOVW R30,R16
0029b5 e0a0      	LDI  R26,LOW(_BucketData)
0029b6 e0b6      	LDI  R27,HIGH(_BucketData)
0029b7 ce5d      	RJMP SUBOPT_0xB
                 
                 ;OPTIMIZER ADDED SUBROUTINE, CALLED 2 TIMES, CODE SIZE REDUCTION:2 WORDS
                 SUBOPT_0x41:
0029b8 01f8      	MOVW R30,R16
0029b9 e0a0      	LDI  R26,LOW(_BucketData)
0029ba e0b6      	LDI  R27,HIGH(_BucketData)
0029bb 0fee      	LSL  R30
0029bc 1fff      	ROL  R31
0029bd 0fea      	ADD  R30,R26
0029be 1ffb      	ADC  R31,R27
0029bf 9508      	RET
                 
                 ;OPTIMIZER ADDED SUBROUTINE, CALLED 15 TIMES, CODE SIZE REDUCTION:25 WORDS
                 SUBOPT_0x42:
0029c0 e0e0      	LDI  R30,LOW(0)
0029c1 e0f0      	LDI  R31,HIGH(0)
0029c2 93ed      	ST   X+,R30
0029c3 93fc      	ST   X,R31
0029c4 9508      	RET
                 
                 ;OPTIMIZER ADDED SUBROUTINE, CALLED 3 TIMES, CODE SIZE REDUCTION:1 WORDS
                 SUBOPT_0x43:
0029c5 91a0 0cfc 	LDS  R26,_MEASURE_INFO
0029c7 91b0 0cfd 	LDS  R27,_MEASURE_INFO+1
0029c9 9508      	RET
                 
                 ;OPTIMIZER ADDED SUBROUTINE, CALLED 8 TIMES, CODE SIZE REDUCTION:11 WORDS
                 SUBOPT_0x44:
0029ca df29      	RCALL SUBOPT_0x2C
0029cb 17ae      	CP   R26,R30
0029cc 07bf      	CPC  R27,R31
0029cd 9508      	RET
                 
                 ;OPTIMIZER ADDED SUBROUTINE, CALLED 2 TIMES, CODE SIZE REDUCTION:11 WORDS
                 SUBOPT_0x45:
0029ce 2788      	CLR  R24
0029cf 2799      	CLR  R25
                +
0029d0 efeb     +LDI R30 , LOW ( 0x2FB )
0029d1 e0f2     +LDI R31 , HIGH ( 0x2FB )
0029d2 e060     +LDI R22 , BYTE3 ( 0x2FB )
0029d3 e070     +LDI R23 , BYTE4 ( 0x2FB )
                 	__GETD1N 0x2FB
0029d4 940e 30af 	CALL __MULD12
0029d6 01df      	MOVW R26,R30
0029d7 01cb      	MOVW R24,R22
                +
0029d8 e1e0     +LDI R30 , LOW ( 0x2710 )
0029d9 e2f7     +LDI R31 , HIGH ( 0x2710 )
0029da e060     +LDI R22 , BYTE3 ( 0x2710 )
0029db e070     +LDI R23 , BYTE4 ( 0x2710 )
                 	__GETD1N 0x2710
0029dc 940e 30ff 	CALL __DIVD21
0029de 9508      	RET
                 
                 ;OPTIMIZER ADDED SUBROUTINE, CALLED 4 TIMES, CODE SIZE REDUCTION:6 WORDS
                 SUBOPT_0x46:
0029df 91e0 0ee2 	LDS  R30,_phase_a_cnt
0029e1 1bea      	SUB  R30,R26
0029e2 2f5e      	MOV  R21,R30
0029e3 2fa5      	MOV  R26,R21
0029e4 9508      	RET
                 
                 ;OPTIMIZER ADDED SUBROUTINE, CALLED 6 TIMES, CODE SIZE REDUCTION:7 WORDS
                 SUBOPT_0x47:
0029e5 940e 305f 	CALL __LSLW2
0029e7 0fea      	ADD  R30,R26
0029e8 1ffb      	ADC  R31,R27
0029e9 9508      	RET
                 
                 ;OPTIMIZER ADDED SUBROUTINE, CALLED 3 TIMES, CODE SIZE REDUCTION:1 WORDS
                 SUBOPT_0x48:
0029ea 2fe5      	MOV  R30,R21
0029eb e1a0      	LDI  R26,LOW(_zero_measure_value)
0029ec e1b4      	LDI  R27,HIGH(_zero_measure_value)
0029ed e0f0      	LDI  R31,0
0029ee 9508      	RET
                 
                 ;OPTIMIZER ADDED SUBROUTINE, CALLED 6 TIMES, CODE SIZE REDUCTION:7 WORDS
                 SUBOPT_0x49:
0029ef 940e 3072 	CALL __CWD1
0029f1 940e 30ff 	CALL __DIVD21
0029f3 9508      	RET
                 
                 ;OPTIMIZER ADDED SUBROUTINE, CALLED 3 TIMES, CODE SIZE REDUCTION:1 WORDS
                 SUBOPT_0x4A:
0029f4 e3a0      	LDI  R26,LOW(_zero_value)
0029f5 e0bf      	LDI  R27,HIGH(_zero_value)
0029f6 ce18      	RJMP SUBOPT_0xA
                 
                 ;OPTIMIZER ADDED SUBROUTINE, CALLED 6 TIMES, CODE SIZE REDUCTION:7 WORDS
                 SUBOPT_0x4B:
0029f7 940e 305f 	CALL __LSLW2
0029f9 cfa4      	RJMP SUBOPT_0x3D
                 
                 ;OPTIMIZER ADDED SUBROUTINE, CALLED 4 TIMES, CODE SIZE REDUCTION:33 WORDS
                 SUBOPT_0x4C:
                +
0029fa efab     +LDI R26 , LOW ( 0x2FB )
0029fb e0b2     +LDI R27 , HIGH ( 0x2FB )
0029fc e080     +LDI R24 , BYTE3 ( 0x2FB )
0029fd e090     +LDI R25 , BYTE4 ( 0x2FB )
                 	__GETD2N 0x2FB
0029fe 940e 30af 	CALL __MULD12
002a00 01df      	MOVW R26,R30
002a01 01cb      	MOVW R24,R22
                +
002a02 e1e0     +LDI R30 , LOW ( 0x2710 )
002a03 e2f7     +LDI R31 , HIGH ( 0x2710 )
002a04 e060     +LDI R22 , BYTE3 ( 0x2710 )
002a05 e070     +LDI R23 , BYTE4 ( 0x2710 )
                 	__GETD1N 0x2710
002a06 940e 30ff 	CALL __DIVD21
002a08 9508      	RET
                 
                 ;OPTIMIZER ADDED SUBROUTINE, CALLED 6 TIMES, CODE SIZE REDUCTION:37 WORDS
                 SUBOPT_0x4D:
002a09 940e 305f 	CALL __LSLW2
002a0b 0fae      	ADD  R26,R30
002a0c 1fbf      	ADC  R27,R31
                +
002a0d e0e0     +LDI R30 , LOW ( 0x0 )
002a0e e0f0     +LDI R31 , HIGH ( 0x0 )
002a0f e060     +LDI R22 , BYTE3 ( 0x0 )
002a10 e070     +LDI R23 , BYTE4 ( 0x0 )
                 	__GETD1N 0x0
002a11 940e 314e 	CALL __PUTDP1
002a13 9508      	RET
                 
                 ;OPTIMIZER ADDED SUBROUTINE, CALLED 2 TIMES, CODE SIZE REDUCTION:3 WORDS
                 SUBOPT_0x4E:
002a14 df04      	RCALL SUBOPT_0x30
002a15 91a0 0f20 	LDS  R26,_GradingPosition
002a17 91b0 0f21 	LDS  R27,_GradingPosition+1
002a19 17ea      	CP   R30,R26
002a1a 07fb      	CPC  R31,R27
002a1b 9508      	RET
                 
                 ;OPTIMIZER ADDED SUBROUTINE, CALLED 2 TIMES, CODE SIZE REDUCTION:1 WORDS
                 SUBOPT_0x4F:
002a1c 91e0 0f1a 	LDS  R30,_grading_end_pulse
002a1e 91f0 0f1b 	LDS  R31,_grading_end_pulse+1
002a20 cfa9      	RJMP SUBOPT_0x44
                 
                 ;OPTIMIZER ADDED SUBROUTINE, CALLED 3 TIMES, CODE SIZE REDUCTION:1 WORDS
                 SUBOPT_0x50:
002a21 e0a1      	LDI  R26,LOW(1)
002a22 940e 3046 	CALL __LSLB12
002a24 87ee      	STD  Y+14,R30
002a25 9508      	RET
                 
                 ;OPTIMIZER ADDED SUBROUTINE, CALLED 4 TIMES, CODE SIZE REDUCTION:3 WORDS
                 SUBOPT_0x51:
002a26 efa2      	LDI  R26,LOW(_crackCHKCNT)
002a27 e0bd      	LDI  R27,HIGH(_crackCHKCNT)
002a28 0fa0      	ADD  R26,R16
002a29 1fb1      	ADC  R27,R17
002a2a 9508      	RET
                 
                 ;OPTIMIZER ADDED SUBROUTINE, CALLED 2 TIMES, CODE SIZE REDUCTION:3 WORDS
                 SUBOPT_0x52:
002a2b e0a1      	LDI  R26,LOW(1)
002a2c 940e 3046 	CALL __LSLB12
002a2e 91a0 1fac 	LDS  R26,_ACD_DATA_BUF
002a30 2bea      	OR   R30,R26
002a31 93e0 1fac 	STS  _ACD_DATA_BUF,R30
002a33 9508      	RET
                 
                 ;OPTIMIZER ADDED SUBROUTINE, CALLED 2 TIMES, CODE SIZE REDUCTION:3 WORDS
                 SUBOPT_0x53:
002a34 dee4      	RCALL SUBOPT_0x30
002a35 e5a4      	LDI  R26,LOW(_ad_full_scan)
002a36 e0bf      	LDI  R27,HIGH(_ad_full_scan)
002a37 0fee      	LSL  R30
002a38 1fff      	ROL  R31
002a39 0fea      	ADD  R30,R26
002a3a 1ffb      	ADC  R31,R27
002a3b 9508      	RET
                 
                 ;OPTIMIZER ADDED SUBROUTINE, CALLED 5 TIMES, CODE SIZE REDUCTION:13 WORDS
                 SUBOPT_0x54:
002a3c dedc      	RCALL SUBOPT_0x30
002a3d e5a4      	LDI  R26,LOW(_ad_full_scan)
002a3e e0bf      	LDI  R27,HIGH(_ad_full_scan)
002a3f cdd5      	RJMP SUBOPT_0xB
                 
                 ;OPTIMIZER ADDED SUBROUTINE, CALLED 9 TIMES, CODE SIZE REDUCTION:13 WORDS
                 SUBOPT_0x55:
002a40 940e 313f 	CALL __GETW1P
002a42 2766      	CLR  R22
002a43 2777      	CLR  R23
002a44 9508      	RET
                 
                 ;OPTIMIZER ADDED SUBROUTINE, CALLED 3 TIMES, CODE SIZE REDUCTION:5 WORDS
                 SUBOPT_0x56:
                +
002a45 91e0 0d2b+LDS R30 , _SYS_INFO + ( 17 )
                 	__GETB1MN _SYS_INFO,17
002a47 e0f0      	LDI  R31,0
002a48 55e4      	SUBI R30,LOW(-_ACD_DATA_BUF)
002a49 4ef0      	SBCI R31,HIGH(-_ACD_DATA_BUF)
002a4a 81a0      	LD   R26,Z
002a4b 9508      	RET
                 
                 ;OPTIMIZER ADDED SUBROUTINE, CALLED 18 TIMES, CODE SIZE REDUCTION:48 WORDS
                 SUBOPT_0x57:
002a4c 91ed      	LD   R30,X+
002a4d 91fd      	LD   R31,X+
002a4e 9631      	ADIW R30,1
002a4f 93fe      	ST   -X,R31
002a50 93ee      	ST   -X,R30
002a51 9508      	RET
                 
                 ;OPTIMIZER ADDED SUBROUTINE, CALLED 2 TIMES, CODE SIZE REDUCTION:3 WORDS
                 SUBOPT_0x58:
002a52 91e0 1428 	LDS  R30,_phase_z_cnt
002a54 91f0 1429 	LDS  R31,_phase_z_cnt+1
002a56 93e0 0f22 	STS  _cur_z_phase_cnt,R30
002a58 93f0 0f23 	STS  _cur_z_phase_cnt+1,R31
002a5a 9508      	RET
                 
                 ;OPTIMIZER ADDED SUBROUTINE, CALLED 2 TIMES, CODE SIZE REDUCTION:5 WORDS
                 SUBOPT_0x59:
002a5b de89      	RCALL SUBOPT_0x2A
002a5c 91a0 0f22 	LDS  R26,_cur_z_phase_cnt
002a5e 91b0 0f23 	LDS  R27,_cur_z_phase_cnt+1
002a60 2788      	CLR  R24
002a61 2799      	CLR  R25
002a62 940e 3173 	CALL __CPD21
002a64 9508      	RET
                 
                 ;OPTIMIZER ADDED SUBROUTINE, CALLED 4 TIMES, CODE SIZE REDUCTION:3 WORDS
                 SUBOPT_0x5A:
002a65 2fef      	MOV  R30,R31
002a66 e0f0      	LDI  R31,0
                +
002a67 93e0 1621+STS _TxBuffer + ( 1 ) , R30
                 	__PUTB1MN _TxBuffer,1
002a69 9508      	RET
                 
                 ;OPTIMIZER ADDED SUBROUTINE, CALLED 6 TIMES, CODE SIZE REDUCTION:12 WORDS
                 SUBOPT_0x5B:
                +
002a6a 93e0 1622+STS _TxBuffer + ( 2 ) , R30
                 	__PUTB1MN _TxBuffer,2
002a6c e1e0      	LDI  R30,LOW(16)
                +
002a6d 93e0 1623+STS _TxBuffer + ( 3 ) , R30
                 	__PUTB1MN _TxBuffer,3
002a6f 9508      	RET
                 
                 ;OPTIMIZER ADDED SUBROUTINE, CALLED 2 TIMES, CODE SIZE REDUCTION:1 WORDS
                 SUBOPT_0x5C:
                +
002a70 93e0 1624+STS _TxBuffer + ( 4 ) , R30
                 	__PUTB1MN _TxBuffer,4
                +
002a72 e2e5     +LDI R30 , LOW ( _TxBuffer + ( 5 ) )
002a73 e1f6     +LDI R31 , HIGH ( _TxBuffer + ( 5 ) )
                 	__POINTW1MN _TxBuffer,5
002a74 93fa      	ST   -Y,R31
002a75 93ea      	ST   -Y,R30
002a76 9508      	RET
                 
                 ;OPTIMIZER ADDED SUBROUTINE, CALLED 2 TIMES, CODE SIZE REDUCTION:8 WORDS
                 SUBOPT_0x5D:
                +
002a77 5deb     +SUBI R30 , LOW ( - _TxBuffer - ( 5 ) )
002a78 4ef9     +SBCI R31 , HIGH ( - _TxBuffer - ( 5 ) )
                 	__ADDW1MN _TxBuffer,5
002a79 e0a3      	LDI  R26,LOW(3)
002a7a 83a0      	STD  Z+0,R26
002a7b e0e1      	LDI  R30,LOW(1)
002a7c 93e0 1bfe 	STS  _TxEnable,R30
002a7e e0e1      	LDI  R30,LOW(1)
002a7f e0f0      	LDI  R31,HIGH(1)
002a80 93e0 1c0f 	STS  _txcnt,R30
002a82 93f0 1c10 	STS  _txcnt+1,R31
002a84 9508      	RET
                 
                 ;OPTIMIZER ADDED SUBROUTINE, CALLED 2 TIMES, CODE SIZE REDUCTION:7 WORDS
                 SUBOPT_0x5E:
002a85 01f9      	MOVW R30,R18
002a86 9636      	ADIW R30,6
002a87 93e0 1c0d 	STS  _TxLength,R30
002a89 93f0 1c0e 	STS  _TxLength+1,R31
002a8b 91e0 1620 	LDS  R30,_TxBuffer
002a8d 93e0 00ce 	STS  206,R30
002a8f ce1f      	RJMP SUBOPT_0x23
                 
                 ;OPTIMIZER ADDED SUBROUTINE, CALLED 10 TIMES, CODE SIZE REDUCTION:42 WORDS
                 SUBOPT_0x5F:
002a90 e0e2      	LDI  R30,LOW(2)
002a91 93e0 1620 	STS  _TxBuffer,R30
002a93 e0e0      	LDI  R30,LOW(0)
                +
002a94 93e0 1621+STS _TxBuffer + ( 1 ) , R30
                 	__PUTB1MN _TxBuffer,1
002a96 e0e2      	LDI  R30,LOW(2)
002a97 9508      	RET
                 
                 ;OPTIMIZER ADDED SUBROUTINE, CALLED 10 TIMES, CODE SIZE REDUCTION:105 WORDS
                 SUBOPT_0x60:
                +
002a98 93e0 1624+STS _TxBuffer + ( 4 ) , R30
                 	__PUTB1MN _TxBuffer,4
002a9a e0e3      	LDI  R30,LOW(3)
                +
002a9b 93e0 1625+STS _TxBuffer + ( 5 ) , R30
                 	__PUTB1MN _TxBuffer,5
002a9d e0e1      	LDI  R30,LOW(1)
002a9e 93e0 1bfe 	STS  _TxEnable,R30
002aa0 e0e1      	LDI  R30,LOW(1)
002aa1 e0f0      	LDI  R31,HIGH(1)
002aa2 93e0 1c0f 	STS  _txcnt,R30
002aa4 93f0 1c10 	STS  _txcnt+1,R31
002aa6 9508      	RET
                 
                 ;OPTIMIZER ADDED SUBROUTINE, CALLED 2 TIMES, CODE SIZE REDUCTION:1 WORDS
                 SUBOPT_0x61:
002aa7 93aa      	ST   -Y,R26
002aa8 93ba      	ST   -Y,R27
002aa9 93ea      	ST   -Y,R30
002aaa 93fa      	ST   -Y,R31
002aab b7ef      	IN   R30,SREG
002aac 93ea      	ST   -Y,R30
002aad 9508      	RET
                 
                 ;OPTIMIZER ADDED SUBROUTINE, CALLED 2 TIMES, CODE SIZE REDUCTION:1 WORDS
                 SUBOPT_0x62:
002aae e0e0      	LDI  R30,LOW(0)
002aaf 83e9      	STD  Y+1,R30
002ab0 83ea      	STD  Y+2,R30
002ab1 83eb      	STD  Y+3,R30
002ab2 9508      	RET
                 
                 ;OPTIMIZER ADDED SUBROUTINE, CALLED 9 TIMES, CODE SIZE REDUCTION:13 WORDS
                 SUBOPT_0x63:
002ab3 e0f0      	LDI  R31,0
002ab4 30e1      	CPI  R30,LOW(0x1)
002ab5 e0a0      	LDI  R26,HIGH(0x1)
002ab6 07fa      	CPC  R31,R26
002ab7 9508      	RET
                 
                 ;OPTIMIZER ADDED SUBROUTINE, CALLED 11 TIMES, CODE SIZE REDUCTION:57 WORDS
                 SUBOPT_0x64:
002ab8 91a0 1c17 	LDS  R26,_reformTotal
002aba 91b0 1c18 	LDS  R27,_reformTotal+1
002abc 9180 1c19 	LDS  R24,_reformTotal+2
002abe 9190 1c1a 	LDS  R25,_reformTotal+3
002ac0 9508      	RET
                 
                 ;OPTIMIZER ADDED SUBROUTINE, CALLED 8 TIMES, CODE SIZE REDUCTION:11 WORDS
                 SUBOPT_0x65:
002ac1 91e0 1c00 	LDS  R30,_adcnt
002ac3 e1ab      	LDI  R26,LOW(_reform_ADC)
002ac4 e1bc      	LDI  R27,HIGH(_reform_ADC)
002ac5 9508      	RET
                 
                 ;OPTIMIZER ADDED SUBROUTINE, CALLED 2 TIMES, CODE SIZE REDUCTION:9 WORDS
                 SUBOPT_0x66:
002ac6 dff1      	RCALL SUBOPT_0x64
002ac7 940e 3035 	CALL __SUBD21
002ac9 93a0 1c17 	STS  _reformTotal,R26
002acb 93b0 1c18 	STS  _reformTotal+1,R27
002acd 9380 1c19 	STS  _reformTotal+2,R24
002acf 9390 1c1a 	STS  _reformTotal+3,R25
002ad1 cfef      	RJMP SUBOPT_0x65
                 
                 ;OPTIMIZER ADDED SUBROUTINE, CALLED 3 TIMES, CODE SIZE REDUCTION:15 WORDS
                 SUBOPT_0x67:
002ad2 91e0 1c00 	LDS  R30,_adcnt
002ad4 5fef      	SUBI R30,-LOW(1)
002ad5 93e0 1c00 	STS  _adcnt,R30
002ad7 50e1      	SUBI R30,LOW(1)
002ad8 e1ab      	LDI  R26,LOW(_reform_ADC)
002ad9 e1bc      	LDI  R27,HIGH(_reform_ADC)
002ada e0f0      	LDI  R31,0
002adb cd39      	RJMP SUBOPT_0xB
                 
                 ;OPTIMIZER ADDED SUBROUTINE, CALLED 2 TIMES, CODE SIZE REDUCTION:15 WORDS
                 SUBOPT_0x68:
002adc dfdb      	RCALL SUBOPT_0x64
002add 940e 302b 	CALL __ADDD12
002adf 93e0 1c17 	STS  _reformTotal,R30
002ae1 93f0 1c18 	STS  _reformTotal+1,R31
002ae3 9360 1c19 	STS  _reformTotal+2,R22
002ae5 9370 1c1a 	STS  _reformTotal+3,R23
002ae7 91e0 1c01 	LDS  R30,_avr_loop_cnt
002ae9 91a0 1c00 	LDS  R26,_adcnt
002aeb 940e 3104 	CALL __MODB21U
002aed 93e0 1c00 	STS  _adcnt,R30
002aef 9508      	RET
                 
                 ;OPTIMIZER ADDED SUBROUTINE, CALLED 6 TIMES, CODE SIZE REDUCTION:22 WORDS
                 SUBOPT_0x69:
002af0 91e0 1c02 	LDS  R30,_reformCH
002af2 e3a0      	LDI  R26,LOW(_zero_value)
002af3 e0bf      	LDI  R27,HIGH(_zero_value)
002af4 e0f0      	LDI  R31,0
002af5 cd1f      	RJMP SUBOPT_0xB
                 
                 ;OPTIMIZER ADDED SUBROUTINE, CALLED 3 TIMES, CODE SIZE REDUCTION:5 WORDS
                 SUBOPT_0x6A:
002af6 940e 313f 	CALL __GETW1P
002af8 91a0 1c4b 	LDS  R26,_reformVoltage
002afa 91b0 1c4c 	LDS  R27,_reformVoltage+1
002afc 9508      	RET
                 
                 ;OPTIMIZER ADDED SUBROUTINE, CALLED 6 TIMES, CODE SIZE REDUCTION:7 WORDS
                 SUBOPT_0x6B:
002afd 91e0 1c02 	LDS  R30,_reformCH
002aff e4a8      	LDI  R26,LOW(_ConstWeight)
002b00 e0bf      	LDI  R27,HIGH(_ConstWeight)
002b01 9508      	RET
                 
                 ;OPTIMIZER ADDED SUBROUTINE, CALLED 2 TIMES, CODE SIZE REDUCTION:7 WORDS
                 SUBOPT_0x6C:
002b02 2766      	CLR  R22
002b03 2777      	CLR  R23
002b04 940e 30af 	CALL __MULD12
002b06 01df      	MOVW R26,R30
002b07 01cb      	MOVW R24,R22
                +
002b08 eee8     +LDI R30 , LOW ( 0x3E8 )
002b09 e0f3     +LDI R31 , HIGH ( 0x3E8 )
002b0a e060     +LDI R22 , BYTE3 ( 0x3E8 )
002b0b e070     +LDI R23 , BYTE4 ( 0x3E8 )
                 	__GETD1N 0x3E8
002b0c 940e 30ff 	CALL __DIVD21
002b0e 9508      	RET
                 
                 ;OPTIMIZER ADDED SUBROUTINE, CALLED 2 TIMES, CODE SIZE REDUCTION:9 WORDS
                 SUBOPT_0x6D:
                +
002b0f eee4     +LDI R30 , LOW ( 0x72E4 )
002b10 e7f2     +LDI R31 , HIGH ( 0x72E4 )
002b11 e060     +LDI R22 , BYTE3 ( 0x72E4 )
002b12 e070     +LDI R23 , BYTE4 ( 0x72E4 )
                 	__GETD1N 0x72E4
002b13 940e 30af 	CALL __MULD12
002b15 01df      	MOVW R26,R30
002b16 01cb      	MOVW R24,R22
                +
002b17 eae0     +LDI R30 , LOW ( 0x186A0 )
002b18 e8f6     +LDI R31 , HIGH ( 0x186A0 )
002b19 e061     +LDI R22 , BYTE3 ( 0x186A0 )
002b1a e070     +LDI R23 , BYTE4 ( 0x186A0 )
                 	__GETD1N 0x186A0
002b1b 940e 30ff 	CALL __DIVD21
002b1d 9508      	RET
                 
                 ;OPTIMIZER ADDED SUBROUTINE, CALLED 4 TIMES, CODE SIZE REDUCTION:6 WORDS
                 SUBOPT_0x6E:
002b1e 91e0 1c5a 	LDS  R30,_led_buz_value
002b20 77ef      	ANDI R30,0x7F
002b21 ce5a      	RJMP SUBOPT_0x38
                 
                 ;OPTIMIZER ADDED SUBROUTINE, CALLED 7 TIMES, CODE SIZE REDUCTION:51 WORDS
                 SUBOPT_0x6F:
002b22 85eb      	LDD  R30,Y+11
002b23 e2a8      	LDI  R26,LOW(40)
002b24 9fea      	MUL  R30,R26
002b25 01f0      	MOVW R30,R0
002b26 55e6      	SUBI R30,LOW(-_voltData)
002b27 4ef1      	SBCI R31,HIGH(-_voltData)
002b28 01df      	MOVW R26,R30
002b29 81ee      	LDD  R30,Y+6
002b2a e0f0      	LDI  R31,0
002b2b cce9      	RJMP SUBOPT_0xB
                 
                 ;OPTIMIZER ADDED SUBROUTINE, CALLED 6 TIMES, CODE SIZE REDUCTION:7 WORDS
                 SUBOPT_0x70:
                +
002b2c 81af     +LDD R26 , Y + 7
002b2d 85b8     +LDD R27 , Y + 7 + 1
002b2e 8589     +LDD R24 , Y + 7 + 2
002b2f 859a     +LDD R25 , Y + 7 + 3
                 	__GETD2S 7
002b30 9508      	RET
                 
                 ;OPTIMIZER ADDED SUBROUTINE, CALLED 4 TIMES, CODE SIZE REDUCTION:9 WORDS
                 SUBOPT_0x71:
002b31 940e 302b 	CALL __ADDD12
                +
002b33 83ef     +STD Y + 7 , R30
002b34 87f8     +STD Y + 7 + 1 , R31
002b35 8769     +STD Y + 7 + 2 , R22
002b36 877a     +STD Y + 7 + 3 , R23
                 	__PUTD1S 7
002b37 9508      	RET
                 
                 ;OPTIMIZER ADDED SUBROUTINE, CALLED 2 TIMES, CODE SIZE REDUCTION:2 WORDS
                 SUBOPT_0x72:
002b38 91e0 1e9a 	LDS  R30,_weight_ad_cnt
002b3a e0f0      	LDI  R31,0
002b3b dff0      	RCALL SUBOPT_0x70
002b3c ceb2      	RJMP SUBOPT_0x49
                 
                 ;OPTIMIZER ADDED SUBROUTINE, CALLED 3 TIMES, CODE SIZE REDUCTION:1 WORDS
                 SUBOPT_0x73:
002b3d dfee      	RCALL SUBOPT_0x70
002b3e cff2      	RJMP SUBOPT_0x71
                 
                 ;OPTIMIZER ADDED SUBROUTINE, CALLED 5 TIMES, CODE SIZE REDUCTION:13 WORDS
                 SUBOPT_0x74:
002b3f 81ec      	LDD  R30,Y+4
002b40 e2a4      	LDI  R26,LOW(_weight_value)
002b41 e0bf      	LDI  R27,HIGH(_weight_value)
002b42 e0f0      	LDI  R31,0
002b43 ccd1      	RJMP SUBOPT_0xB
                 
                 ;OPTIMIZER ADDED SUBROUTINE, CALLED 3 TIMES, CODE SIZE REDUCTION:3 WORDS
                 SUBOPT_0x75:
002b44 900d      	LD   R0,X+
002b45 901c      	LD   R1,X
002b46 81ec      	LDD  R30,Y+4
002b47 e3a0      	LDI  R26,LOW(_zero_value)
002b48 e0bf      	LDI  R27,HIGH(_zero_value)
002b49 9508      	RET
                 
                 ;OPTIMIZER ADDED SUBROUTINE, CALLED 4 TIMES, CODE SIZE REDUCTION:9 WORDS
                 SUBOPT_0x76:
002b4a 81ec      	LDD  R30,Y+4
002b4b e3a0      	LDI  R26,LOW(_zero_value)
002b4c e0bf      	LDI  R27,HIGH(_zero_value)
002b4d e0f0      	LDI  R31,0
002b4e ccc6      	RJMP SUBOPT_0xB
                 
                 ;OPTIMIZER ADDED SUBROUTINE, CALLED 2 TIMES, CODE SIZE REDUCTION:1 WORDS
                 SUBOPT_0x77:
002b4f 940e 313f 	CALL __GETW1P
002b51 01d0      	MOVW R26,R0
002b52 93ed      	ST   X+,R30
002b53 93fc      	ST   X,R31
002b54 01f8      	MOVW R30,R16
002b55 9508      	RET
                 
                 ;OPTIMIZER ADDED SUBROUTINE, CALLED 2 TIMES, CODE SIZE REDUCTION:1 WORDS
                 SUBOPT_0x78:
002b56 940e 313f 	CALL __GETW1P
002b58 2fef      	MOV  R30,R31
002b59 e0f0      	LDI  R31,0
002b5a 93e0 00ce 	STS  206,R30
002b5c 9508      	RET
                 
                 ;OPTIMIZER ADDED SUBROUTINE, CALLED 4 TIMES, CODE SIZE REDUCTION:3 WORDS
                 SUBOPT_0x79:
002b5d 940e 306d 	CALL __ASRW8
002b5f 93e0 00ce 	STS  206,R30
002b61 9508      	RET
                 
                 ;OPTIMIZER ADDED SUBROUTINE, CALLED 3 TIMES, CODE SIZE REDUCTION:1 WORDS
                 SUBOPT_0x7A:
                +
002b62 91e0 0ab2+LDS R30 , _GRADE_INFO + ( 2 )
002b64 91f0 0ab3+LDS R31 , _GRADE_INFO + ( 2 ) + 1
                 	__GETW1MN _GRADE_INFO,2
002b66 9508      	RET
                 
                 ;OPTIMIZER ADDED SUBROUTINE, CALLED 3 TIMES, CODE SIZE REDUCTION:1 WORDS
                 SUBOPT_0x7B:
                +
002b67 91e0 0abc+LDS R30 , _GRADE_INFO + ( 12 )
002b69 91f0 0abd+LDS R31 , _GRADE_INFO + ( 12 ) + 1
                 	__GETW1MN _GRADE_INFO,12
002b6b 9508      	RET
                 
                 ;OPTIMIZER ADDED SUBROUTINE, CALLED 3 TIMES, CODE SIZE REDUCTION:1 WORDS
                 SUBOPT_0x7C:
                +
002b6c 91e0 0ac6+LDS R30 , _GRADE_INFO + ( 22 )
002b6e 91f0 0ac7+LDS R31 , _GRADE_INFO + ( 22 ) + 1
                 	__GETW1MN _GRADE_INFO,22
002b70 9508      	RET
                 
                 ;OPTIMIZER ADDED SUBROUTINE, CALLED 3 TIMES, CODE SIZE REDUCTION:1 WORDS
                 SUBOPT_0x7D:
                +
002b71 91e0 0ad0+LDS R30 , _GRADE_INFO + ( 32 )
002b73 91f0 0ad1+LDS R31 , _GRADE_INFO + ( 32 ) + 1
                 	__GETW1MN _GRADE_INFO,32
002b75 9508      	RET
                 
                 ;OPTIMIZER ADDED SUBROUTINE, CALLED 3 TIMES, CODE SIZE REDUCTION:1 WORDS
                 SUBOPT_0x7E:
                +
002b76 91e0 0ada+LDS R30 , _GRADE_INFO + ( 42 )
002b78 91f0 0adb+LDS R31 , _GRADE_INFO + ( 42 ) + 1
                 	__GETW1MN _GRADE_INFO,42
002b7a 9508      	RET
                 
                 ;OPTIMIZER ADDED SUBROUTINE, CALLED 3 TIMES, CODE SIZE REDUCTION:1 WORDS
                 SUBOPT_0x7F:
                +
002b7b 91e0 0ae4+LDS R30 , _GRADE_INFO + ( 52 )
002b7d 91f0 0ae5+LDS R31 , _GRADE_INFO + ( 52 ) + 1
                 	__GETW1MN _GRADE_INFO,52
002b7f 9508      	RET
                 
                 ;OPTIMIZER ADDED SUBROUTINE, CALLED 3 TIMES, CODE SIZE REDUCTION:1 WORDS
                 SUBOPT_0x80:
002b80 8ded      	LDD  R30,Y+29
002b81 e0a1      	LDI  R26,LOW(1)
002b82 940e 3046 	CALL __LSLB12
002b84 9508      	RET
                 
                 ;OPTIMIZER ADDED SUBROUTINE, CALLED 4 TIMES, CODE SIZE REDUCTION:3 WORDS
                 SUBOPT_0x81:
002b85 8ded      	LDD  R30,Y+29
002b86 e0f0      	LDI  R31,0
002b87 50e8      	SUBI R30,LOW(-_dotCHKCNT)
002b88 4ff2      	SBCI R31,HIGH(-_dotCHKCNT)
002b89 9508      	RET
                 
                 ;OPTIMIZER ADDED SUBROUTINE, CALLED 4 TIMES, CODE SIZE REDUCTION:6 WORDS
                 SUBOPT_0x82:
                +
002b8a 91e0 0d2b+LDS R30 , _SYS_INFO + ( 17 )
                 	__GETB1MN _SYS_INFO,17
002b8c e0f0      	LDI  R31,0
002b8d 55e4      	SUBI R30,LOW(-_ACD_DATA_BUF)
002b8e 4ef0      	SBCI R31,HIGH(-_ACD_DATA_BUF)
002b8f 9508      	RET
                 
                 ;OPTIMIZER ADDED SUBROUTINE, CALLED 2 TIMES, CODE SIZE REDUCTION:1 WORDS
                 SUBOPT_0x83:
                +
002b90 91e0 0b00+LDS R30 , _GRADE_INFO + ( 80 )
002b92 91f0 0b01+LDS R31 , _GRADE_INFO + ( 80 ) + 1
                 	__GETW1MN _GRADE_INFO,80
002b94 172e      	CP   R18,R30
002b95 073f      	CPC  R19,R31
002b96 9508      	RET
                 
                 ;OPTIMIZER ADDED SUBROUTINE, CALLED 2 TIMES, CODE SIZE REDUCTION:19 WORDS
                 SUBOPT_0x84:
                +
002b97 91a0 0da6+LDS R26 , _GRADE_DATA + ( 120 )
002b99 91b0 0da7+LDS R27 , _GRADE_DATA + ( 120 ) + 1
002b9b 9180 0da8+LDS R24 , _GRADE_DATA + ( 120 ) + 2
002b9d 9190 0da9+LDS R25 , _GRADE_DATA + ( 120 ) + 3
                 	__GETD2MN _GRADE_DATA,120
002b9f 01f9      	MOVW R30,R18
002ba0 940e 3072 	CALL __CWD1
002ba2 940e 302b 	CALL __ADDD12
                +
002ba4 93e0 0da6+STS _GRADE_DATA + ( 120 ) , R30
002ba6 93f0 0da7+STS _GRADE_DATA + ( 120 ) + 1 , R31
002ba8 9360 0da8+STS _GRADE_DATA + ( 120 ) + 2 , R22
002baa 9370 0da9+STS _GRADE_DATA + ( 120 ) + 3 , R23
                 	__PUTD1MN _GRADE_DATA,120
                +
002bac 91e0 0b05+LDS R30 , _GRADE_INFO + ( 85 )
                 	__GETB1MN _GRADE_INFO,85
002bae 30e0      	CPI  R30,0
002baf 9508      	RET
                 
                 ;OPTIMIZER ADDED SUBROUTINE, CALLED 2 TIMES, CODE SIZE REDUCTION:5 WORDS
                 SUBOPT_0x85:
                +
002bb0 91a0 0b08+LDS R26 , _GRADE_INFO + ( 88 )
002bb2 91b0 0b09+LDS R27 , _GRADE_INFO + ( 88 ) + 1
                 	__GETW2MN _GRADE_INFO,88
                +
002bb4 91e0 0b06+LDS R30 , _GRADE_INFO + ( 86 )
002bb6 91f0 0b07+LDS R31 , _GRADE_INFO + ( 86 ) + 1
                 	__GETW1MN _GRADE_INFO,86
002bb8 17ae      	CP   R26,R30
002bb9 07bf      	CPC  R27,R31
002bba 9508      	RET
                 
                 ;OPTIMIZER ADDED SUBROUTINE, CALLED 2 TIMES, CODE SIZE REDUCTION:6 WORDS
                 SUBOPT_0x86:
                +
002bbb 91e0 0b05+LDS R30 , _GRADE_INFO + ( 85 )
                 	__GETB1MN _GRADE_INFO,85
                +
002bbd 93e0 1e96+STS _old_prttype + ( 8 ) , R30
                 	__PUTB1MN _old_prttype,8
002bbf e0e0      	LDI  R30,LOW(0)
                +
002bc0 93e0 0b05+STS _GRADE_INFO + ( 85 ) , R30
                 	__PUTB1MN _GRADE_INFO,85
                +
002bc2 e0e8     +LDI R30 , LOW ( _GRADE_INFO + ( 88 ) )
002bc3 e0fb     +LDI R31 , HIGH ( _GRADE_INFO + ( 88 ) )
                 	__POINTW1MN _GRADE_INFO,88
002bc4 cc0f      	RJMP SUBOPT_0x2
                 
                 ;OPTIMIZER ADDED SUBROUTINE, CALLED 8 TIMES, CODE SIZE REDUCTION:18 WORDS
                 SUBOPT_0x87:
002bc5 01f9      	MOVW R30,R18
002bc6 940e 3072 	CALL __CWD1
002bc8 940e 302b 	CALL __ADDD12
002bca 9508      	RET
                 
                 ;OPTIMIZER ADDED SUBROUTINE, CALLED 5 TIMES, CODE SIZE REDUCTION:5 WORDS
                 SUBOPT_0x88:
002bcb 940e 305f 	CALL __LSLW2
002bcd 0fae      	ADD  R26,R30
002bce 1fbf      	ADC  R27,R31
002bcf 9508      	RET
                 
                 ;OPTIMIZER ADDED SUBROUTINE, CALLED 2 TIMES, CODE SIZE REDUCTION:3 WORDS
                 SUBOPT_0x89:
                +
002bd0 93e0 0dda+STS _GRADE_DATA + ( 172 ) , R30
002bd2 93f0 0ddb+STS _GRADE_DATA + ( 172 ) + 1 , R31
002bd4 9360 0ddc+STS _GRADE_DATA + ( 172 ) + 2 , R22
002bd6 9370 0ddd+STS _GRADE_DATA + ( 172 ) + 3 , R23
                 	__PUTD1MN _GRADE_DATA,172
002bd8 9508      	RET
                 
                 ;OPTIMIZER ADDED SUBROUTINE, CALLED 2 TIMES, CODE SIZE REDUCTION:1 WORDS
                 SUBOPT_0x8A:
002bd9 e5a8      	LDI  R26,LOW(_BucketData_Wight)
002bda e0b8      	LDI  R27,HIGH(_BucketData_Wight)
002bdb 0fee      	LSL  R30
002bdc 1fff      	ROL  R31
002bdd 0fea      	ADD  R30,R26
002bde 1ffb      	ADC  R31,R27
002bdf 9508      	RET
                 
                 ;OPTIMIZER ADDED SUBROUTINE, CALLED 5 TIMES, CODE SIZE REDUCTION:5 WORDS
                 SUBOPT_0x8B:
                +
002be0 e5ae     +LDI R26 , LOW ( _GRADE_DATA + ( 48 ) )
002be1 e0bd     +LDI R27 , HIGH ( _GRADE_DATA + ( 48 ) )
                 	__POINTW2MN _GRADE_DATA,48
002be2 2fe1      	MOV  R30,R17
002be3 e0f0      	LDI  R31,0
002be4 9508      	RET
                 
                 ;OPTIMIZER ADDED SUBROUTINE, CALLED 3 TIMES, CODE SIZE REDUCTION:7 WORDS
                 SUBOPT_0x8C:
002be5 e0aa      	LDI  R26,LOW(10)
002be6 9f1a      	MUL  R17,R26
002be7 01f0      	MOVW R30,R0
                +
002be8 54ec     +SUBI R30 , LOW ( - _GRADE_INFO - ( 4 ) )
002be9 4ff5     +SBCI R31 , HIGH ( - _GRADE_INFO - ( 4 ) )
                 	__ADDW1MN _GRADE_INFO,4
002bea 81e0      	LD   R30,Z
002beb e0f0      	LDI  R31,0
002bec 9508      	RET
                 
                 ;OPTIMIZER ADDED SUBROUTINE, CALLED 4 TIMES, CODE SIZE REDUCTION:6 WORDS
                 SUBOPT_0x8D:
002bed 940e 3072 	CALL __CWD1
002bef 940e 310a 	CALL __MODD21
002bf1 01af      	MOVW R20,R30
002bf2 9508      	RET
                 
                 ;OPTIMIZER ADDED SUBROUTINE, CALLED 3 TIMES, CODE SIZE REDUCTION:1 WORDS
                 SUBOPT_0x8E:
                +
002bf3 50e1     +SUBI R30 , LOW ( 1 )
002bf4 40f0     +SBCI R31 , HIGH ( 1 )
002bf5 4060     +SBCI R22 , BYTE3 ( 1 )
002bf6 4070     +SBCI R23 , BYTE4 ( 1 )
                 	__SUBD1N 1
002bf7 9508      	RET
                 
                 ;OPTIMIZER ADDED SUBROUTINE, CALLED 2 TIMES, CODE SIZE REDUCTION:2 WORDS
                 SUBOPT_0x8F:
002bf8 2fe1      	MOV  R30,R17
002bf9 e0f0      	LDI  R31,0
002bfa 9631      	ADIW R30,1
002bfb 2ffe      	MOV  R31,R30
002bfc e0e0      	LDI  R30,0
                +
002bfd 2b4e     +OR R20 , R30
002bfe 2b5f     +OR R21 , R31
                 	__ORWRR 20,21,30,31
002bff 9508      	RET
                 
                 ;OPTIMIZER ADDED SUBROUTINE, CALLED 7 TIMES, CODE SIZE REDUCTION:9 WORDS
                 SUBOPT_0x90:
002c00 0fee      	LSL  R30
002c01 1fff      	ROL  R31
002c02 0fea      	ADD  R30,R26
002c03 1ffb      	ADC  R31,R27
002c04 9508      	RET
                 
                 ;OPTIMIZER ADDED SUBROUTINE, CALLED 2 TIMES, CODE SIZE REDUCTION:4 WORDS
                 SUBOPT_0x91:
                +
002c05 93e0 0de2+STS _GRADE_DATA + ( 180 ) , R30
002c07 93f0 0de3+STS _GRADE_DATA + ( 180 ) + 1 , R31
002c09 9360 0de4+STS _GRADE_DATA + ( 180 ) + 2 , R22
002c0b 9370 0de5+STS _GRADE_DATA + ( 180 ) + 3 , R23
                 	__PUTD1MN _GRADE_DATA,180
002c0d e0e0      	LDI  R30,LOW(0)
002c0e 9508      	RET
                 
                 ;OPTIMIZER ADDED SUBROUTINE, CALLED 4 TIMES, CODE SIZE REDUCTION:3 WORDS
                 SUBOPT_0x92:
002c0f 93e0 1c15 	STS  _tmrSPEEDCNT,R30
002c11 93e0 1c16 	STS  _tmrSPEEDCNT+1,R30
002c13 9508      	RET
                 
                 ;OPTIMIZER ADDED SUBROUTINE, CALLED 14 TIMES, CODE SIZE REDUCTION:75 WORDS
                 SUBOPT_0x93:
002c14 93e0 1c0d 	STS  _TxLength,R30
002c16 93f0 1c0e 	STS  _TxLength+1,R31
002c18 91e0 1620 	LDS  R30,_TxBuffer
002c1a 93e0 00ce 	STS  206,R30
002c1c 9508      	RET
                 
                 ;OPTIMIZER ADDED SUBROUTINE, CALLED 3 TIMES, CODE SIZE REDUCTION:7 WORDS
                 SUBOPT_0x94:
002c1d e0a6      	LDI  R26,LOW(6)
002c1e 9f1a      	MUL  R17,R26
002c1f 01f0      	MOVW R30,R0
002c20 50e0      	SUBI R30,LOW(-_pocketSTATE)
002c21 4ff2      	SBCI R31,HIGH(-_pocketSTATE)
002c22 cbb6      	RJMP SUBOPT_0x3
                 
                 ;OPTIMIZER ADDED SUBROUTINE, CALLED 5 TIMES, CODE SIZE REDUCTION:17 WORDS
                 SUBOPT_0x95:
002c23 e0a6      	LDI  R26,LOW(6)
002c24 9f1a      	MUL  R17,R26
002c25 01f0      	MOVW R30,R0
002c26 5cea      	SUBI R30,LOW(-_sol_outcnt)
002c27 4ff1      	SBCI R31,HIGH(-_sol_outcnt)
002c28 cbb0      	RJMP SUBOPT_0x3
                 
                 ;OPTIMIZER ADDED SUBROUTINE, CALLED 3 TIMES, CODE SIZE REDUCTION:1 WORDS
                 SUBOPT_0x96:
002c29 0fae      	ADD  R26,R30
002c2a 1fbf      	ADC  R27,R31
002c2b 940e 313f 	CALL __GETW1P
002c2d 9508      	RET
                 
                 ;OPTIMIZER ADDED SUBROUTINE, CALLED 3 TIMES, CODE SIZE REDUCTION:1 WORDS
                 SUBOPT_0x97:
002c2e 2fa2      	MOV  R26,R18
002c2f e0b0      	LDI  R27,0
002c30 17ae      	CP   R26,R30
002c31 07bf      	CPC  R27,R31
002c32 9508      	RET
                 
                 ;OPTIMIZER ADDED SUBROUTINE, CALLED 3 TIMES, CODE SIZE REDUCTION:9 WORDS
                 SUBOPT_0x98:
002c33 93ec      	ST   X,R30
002c34 e0a6      	LDI  R26,LOW(6)
002c35 9f1a      	MUL  R17,R26
002c36 01f0      	MOVW R30,R0
002c37 55ee      	SUBI R30,LOW(-_sol_offcnt_on)
002c38 4ff1      	SBCI R31,HIGH(-_sol_offcnt_on)
002c39 cb9f      	RJMP SUBOPT_0x3
                 
                 ;OPTIMIZER ADDED SUBROUTINE, CALLED 3 TIMES, CODE SIZE REDUCTION:13 WORDS
                 SUBOPT_0x99:
002c3a 0fae      	ADD  R26,R30
002c3b 1fbf      	ADC  R27,R31
002c3c 9612      	ADIW R26,2
002c3d 91ec      	LD   R30,X
002c3e e0f0      	LDI  R31,0
002c3f 9731      	SBIW R30,1
002c40 2fa0      	MOV  R26,R16
002c41 e0b0      	LDI  R27,0
002c42 17ea      	CP   R30,R26
002c43 07fb      	CPC  R31,R27
002c44 9508      	RET
                 
                 ;OPTIMIZER ADDED SUBROUTINE, CALLED 6 TIMES, CODE SIZE REDUCTION:17 WORDS
                 SUBOPT_0x9A:
002c45 2fe1      	MOV  R30,R17
002c46 eeaa      	LDI  R26,LOW(_HolderState)
002c47 e0be      	LDI  R27,HIGH(_HolderState)
002c48 e0f0      	LDI  R31,0
002c49 cbcb      	RJMP SUBOPT_0xB
                 
                 ;OPTIMIZER ADDED SUBROUTINE, CALLED 3 TIMES, CODE SIZE REDUCTION:9 WORDS
                 SUBOPT_0x9B:
002c4a 2fe1      	MOV  R30,R17
002c4b e0f0      	LDI  R31,0
002c4c 52e8      	SUBI R30,LOW(-_do_value)
002c4d 4ff1      	SBCI R31,HIGH(-_do_value)
002c4e 01bf      	MOVW R22,R30
002c4f 8120      	LD   R18,Z
002c50 cb8d      	RJMP SUBOPT_0x4
                 
                 ;OPTIMIZER ADDED SUBROUTINE, CALLED 3 TIMES, CODE SIZE REDUCTION:7 WORDS
                 SUBOPT_0x9C:
002c51 e0a6      	LDI  R26,LOW(6)
002c52 9f1a      	MUL  R17,R26
002c53 01f0      	MOVW R30,R0
002c54 59e4      	SUBI R30,LOW(-_sol_offcnt)
002c55 4ff1      	SBCI R31,HIGH(-_sol_offcnt)
002c56 cb82      	RJMP SUBOPT_0x3
                 
                 ;OPTIMIZER ADDED SUBROUTINE, CALLED 3 TIMES, CODE SIZE REDUCTION:5 WORDS
                 SUBOPT_0x9D:
002c57 2fe1      	MOV  R30,R17
002c58 efac      	LDI  R26,LOW(_HolderOnTime)
002c59 e0be      	LDI  R27,HIGH(_HolderOnTime)
002c5a e0f0      	LDI  R31,0
002c5b cbb9      	RJMP SUBOPT_0xB
                 
                 ;OPTIMIZER ADDED SUBROUTINE, CALLED 5 TIMES, CODE SIZE REDUCTION:5 WORDS
                 SUBOPT_0x9E:
002c5c e0b0      	LDI  R27,0
002c5d 52a8      	SUBI R26,LOW(-_do_value)
002c5e 4fb1      	SBCI R27,HIGH(-_do_value)
002c5f 91ec      	LD   R30,X
002c60 9508      	RET
                 
                 ;OPTIMIZER ADDED SUBROUTINE, CALLED 2 TIMES, CODE SIZE REDUCTION:9 WORDS
                 SUBOPT_0x9F:
002c61 91e0 1c53 	LDS  R30,_prt_a_outcnt
002c63 5fef      	SUBI R30,-LOW(1)
002c64 93e0 1c53 	STS  _prt_a_outcnt,R30
                +
002c66 91e0 0d0e+LDS R30 , _PRT_INFO + ( 6 )
002c68 91f0 0d0f+LDS R31 , _PRT_INFO + ( 6 ) + 1
                 	__GETW1MN _PRT_INFO,6
002c6a 91a0 1c53 	LDS  R26,_prt_a_outcnt
002c6c e0b0      	LDI  R27,0
002c6d 17ae      	CP   R26,R30
002c6e 07bf      	CPC  R27,R31
002c6f 9508      	RET
                 
                 ;OPTIMIZER ADDED SUBROUTINE, CALLED 2 TIMES, CODE SIZE REDUCTION:9 WORDS
                 SUBOPT_0xA0:
002c70 e0e0      	LDI  R30,LOW(0)
002c71 93e0 1c53 	STS  _prt_a_outcnt,R30
002c73 e0ea      	LDI  R30,LOW(10)
002c74 93e0 0dfe 	STS  _PRT_A_OUT,R30
002c76 e0e1      	LDI  R30,LOW(1)
002c77 93e0 1c54 	STS  _prt_a_off_enable,R30
002c79 91e0 0ee1 	LDS  R30,_plc_prt_value
002c7b 61e0      	ORI  R30,0x10
002c7c 93e0 0ee1 	STS  _plc_prt_value,R30
002c7e 9508      	RET
                 
                 ;OPTIMIZER ADDED SUBROUTINE, CALLED 2 TIMES, CODE SIZE REDUCTION:9 WORDS
                 SUBOPT_0xA1:
002c7f 91e0 1c55 	LDS  R30,_prt_a_offcnt
002c81 5fef      	SUBI R30,-LOW(1)
002c82 93e0 1c55 	STS  _prt_a_offcnt,R30
                +
002c84 91e0 0d10+LDS R30 , _PRT_INFO + ( 8 )
002c86 91f0 0d11+LDS R31 , _PRT_INFO + ( 8 ) + 1
                 	__GETW1MN _PRT_INFO,8
002c88 91a0 1c55 	LDS  R26,_prt_a_offcnt
002c8a e0b0      	LDI  R27,0
002c8b 17ae      	CP   R26,R30
002c8c 07bf      	CPC  R27,R31
002c8d 9508      	RET
                 
                 ;OPTIMIZER ADDED SUBROUTINE, CALLED 2 TIMES, CODE SIZE REDUCTION:3 WORDS
                 SUBOPT_0xA2:
002c8e e0e0      	LDI  R30,LOW(0)
002c8f 93e0 1c55 	STS  _prt_a_offcnt,R30
002c91 91e0 0ee1 	LDS  R30,_plc_prt_value
002c93 7eef      	ANDI R30,0xEF
002c94 93e0 0ee1 	STS  _plc_prt_value,R30
002c96 9508      	RET
                 
                 ;OPTIMIZER ADDED SUBROUTINE, CALLED 8 TIMES, CODE SIZE REDUCTION:11 WORDS
                 SUBOPT_0xA3:
002c97 95e0      	COM  R30
002c98 91a0 0ee1 	LDS  R26,_plc_prt_value
002c9a 23ea      	AND  R30,R26
002c9b 9508      	RET
                 
                 ;OPTIMIZER ADDED SUBROUTINE, CALLED 6 TIMES, CODE SIZE REDUCTION:7 WORDS
                 SUBOPT_0xA4:
002c9c 91e0 0ed8 	LDS  R30,_do_value
002c9e 93e0 8900 	STS  35072,R30
002ca0 9508      	RET
                 
                 ;OPTIMIZER ADDED SUBROUTINE, CALLED 6 TIMES, CODE SIZE REDUCTION:7 WORDS
                 SUBOPT_0xA5:
                +
002ca1 91e0 0ed9+LDS R30 , _do_value + ( 1 )
                 	__GETB1MN _do_value,1
002ca3 93e0 8a00 	STS  35328,R30
002ca5 9508      	RET
                 
                 ;OPTIMIZER ADDED SUBROUTINE, CALLED 6 TIMES, CODE SIZE REDUCTION:7 WORDS
                 SUBOPT_0xA6:
                +
002ca6 91e0 0eda+LDS R30 , _do_value + ( 2 )
                 	__GETB1MN _do_value,2
002ca8 93e0 8b00 	STS  35584,R30
002caa 9508      	RET
                 
                 ;OPTIMIZER ADDED SUBROUTINE, CALLED 6 TIMES, CODE SIZE REDUCTION:7 WORDS
                 SUBOPT_0xA7:
                +
002cab 91e0 0edb+LDS R30 , _do_value + ( 3 )
                 	__GETB1MN _do_value,3
002cad 93e0 8c00 	STS  35840,R30
002caf 9508      	RET
                 
                 ;OPTIMIZER ADDED SUBROUTINE, CALLED 6 TIMES, CODE SIZE REDUCTION:7 WORDS
                 SUBOPT_0xA8:
                +
002cb0 91e0 0edc+LDS R30 , _do_value + ( 4 )
                 	__GETB1MN _do_value,4
002cb2 93e0 8d00 	STS  36096,R30
002cb4 9508      	RET
                 
                 ;OPTIMIZER ADDED SUBROUTINE, CALLED 6 TIMES, CODE SIZE REDUCTION:7 WORDS
                 SUBOPT_0xA9:
                +
002cb5 91e0 0edd+LDS R30 , _do_value + ( 5 )
                 	__GETB1MN _do_value,5
002cb7 93e0 8e00 	STS  36352,R30
002cb9 9508      	RET
                 
                 ;OPTIMIZER ADDED SUBROUTINE, CALLED 6 TIMES, CODE SIZE REDUCTION:7 WORDS
                 SUBOPT_0xAA:
                +
002cba 91e0 0ede+LDS R30 , _do_value + ( 6 )
                 	__GETB1MN _do_value,6
002cbc 93e0 8f00 	STS  36608,R30
002cbe 9508      	RET
                 
                 ;OPTIMIZER ADDED SUBROUTINE, CALLED 10 TIMES, CODE SIZE REDUCTION:15 WORDS
                 SUBOPT_0xAB:
002cbf 91e0 0ee1 	LDS  R30,_plc_prt_value
002cc1 93e0 8800 	STS  34816,R30
002cc3 9508      	RET
                 
                 ;OPTIMIZER ADDED SUBROUTINE, CALLED 3 TIMES, CODE SIZE REDUCTION:3 WORDS
                 SUBOPT_0xAC:
002cc4 9731      	SBIW R30,1
002cc5 e0a0      	LDI  R26,LOW(_BucketData)
002cc6 e0b6      	LDI  R27,HIGH(_BucketData)
002cc7 cb4d      	RJMP SUBOPT_0xB
                 
                 ;OPTIMIZER ADDED SUBROUTINE, CALLED 3 TIMES, CODE SIZE REDUCTION:1 WORDS
                 SUBOPT_0xAD:
002cc8 e5a8      	LDI  R26,LOW(_BucketData_Wight)
002cc9 e0b8      	LDI  R27,HIGH(_BucketData_Wight)
002cca cb4a      	RJMP SUBOPT_0xB
                 
                 ;OPTIMIZER ADDED SUBROUTINE, CALLED 5 TIMES, CODE SIZE REDUCTION:21 WORDS
                 SUBOPT_0xAE:
                +
002ccb 91e0 0d12+LDS R30 , _PRT_INFO + ( 10 )
002ccd 91f0 0d13+LDS R31 , _PRT_INFO + ( 10 ) + 1
                 	__GETW1MN _PRT_INFO,10
002ccf e0a0      	LDI  R26,LOW(_BucketData)
002cd0 e0b6      	LDI  R27,HIGH(_BucketData)
002cd1 cb43      	RJMP SUBOPT_0xB
                 
                 ;OPTIMIZER ADDED SUBROUTINE, CALLED 3 TIMES, CODE SIZE REDUCTION:9 WORDS
                 SUBOPT_0xAF:
002cd2 940e 313f 	CALL __GETW1P
002cd4 940e 3064 	CALL __LSRW4
002cd6 2fef      	MOV  R30,R31
002cd7 70e3      	ANDI R30,LOW(0x3)
002cd8 70f0      	ANDI R31,HIGH(0x3)
002cd9 019f      	MOVW R18,R30
002cda 9508      	RET
                 
                 ;OPTIMIZER ADDED SUBROUTINE, CALLED 3 TIMES, CODE SIZE REDUCTION:1 WORDS
                 SUBOPT_0xB0:
002cdb 940e 313f 	CALL __GETW1P
002cdd 2fef      	MOV  R30,R31
002cde e0f0      	LDI  R31,0
002cdf 9508      	RET
                 
                 ;OPTIMIZER ADDED SUBROUTINE, CALLED 3 TIMES, CODE SIZE REDUCTION:3 WORDS
                 SUBOPT_0xB1:
002ce0 91ed      	LD   R30,X+
002ce1 91fd      	LD   R31,X+
002ce2 70ff      	ANDI R31,HIGH(0xFFF)
002ce3 93fe      	ST   -X,R31
002ce4 93ee      	ST   -X,R30
002ce5 9508      	RET
                 
                 ;OPTIMIZER ADDED SUBROUTINE, CALLED 2 TIMES, CODE SIZE REDUCTION:3 WORDS
                 SUBOPT_0xB2:
                +
002ce6 91e0 0d18+LDS R30 , _PRT_INFO + ( 16 )
002ce8 91f0 0d19+LDS R31 , _PRT_INFO + ( 16 ) + 1
                 	__GETW1MN _PRT_INFO,16
002cea e0a0      	LDI  R26,LOW(_BucketData)
002ceb e0b6      	LDI  R27,HIGH(_BucketData)
002cec cb28      	RJMP SUBOPT_0xB
                 
                 ;OPTIMIZER ADDED SUBROUTINE, CALLED 2 TIMES, CODE SIZE REDUCTION:5 WORDS
                 SUBOPT_0xB3:
002ced 0fae      	ADD  R26,R30
002cee 1fbf      	ADC  R27,R31
002cef 9613      	ADIW R26,3
002cf0 91ec      	LD   R30,X
002cf1 e0f0      	LDI  R31,0
002cf2 9735      	SBIW R30,5
002cf3 e0a0      	LDI  R26,LOW(_BucketData)
002cf4 e0b6      	LDI  R27,HIGH(_BucketData)
002cf5 cb1f      	RJMP SUBOPT_0xB
                 
                 ;OPTIMIZER ADDED SUBROUTINE, CALLED 6 TIMES, CODE SIZE REDUCTION:22 WORDS
                 SUBOPT_0xB4:
002cf6 940e 313f 	CALL __GETW1P
002cf8 70ff      	ANDI R31,HIGH(0xFFF)
002cf9 01bf      	MOVW R22,R30
002cfa e3a0      	LDI  R26,LOW(48)
002cfb 9f1a      	MUL  R17,R26
002cfc 01f0      	MOVW R30,R0
002cfd 9508      	RET
                 
                 ;OPTIMIZER ADDED SUBROUTINE, CALLED 6 TIMES, CODE SIZE REDUCTION:12 WORDS
                 SUBOPT_0xB5:
002cfe 01df      	MOVW R26,R30
002cff 940e 313f 	CALL __GETW1P
002d01 17e6      	CP   R30,R22
002d02 07f7      	CPC  R31,R23
002d03 9508      	RET
                 
                 ;OPTIMIZER ADDED SUBROUTINE, CALLED 6 TIMES, CODE SIZE REDUCTION:7 WORDS
                 SUBOPT_0xB6:
002d04 eaa0      	LDI  R26,LOW(160)
002d05 83a0      	STD  Z+0,R26
002d06 cb13      	RJMP SUBOPT_0xC
                 
                 ;OPTIMIZER ADDED SUBROUTINE, CALLED 2 TIMES, CODE SIZE REDUCTION:5 WORDS
                 SUBOPT_0xB7:
002d07 0fae      	ADD  R26,R30
002d08 1fbf      	ADC  R27,R31
002d09 9613      	ADIW R26,3
002d0a 91ec      	LD   R30,X
002d0b e0f0      	LDI  R31,0
002d0c 9734      	SBIW R30,4
002d0d e0a0      	LDI  R26,LOW(_BucketData)
002d0e e0b6      	LDI  R27,HIGH(_BucketData)
002d0f cb05      	RJMP SUBOPT_0xB
                 
                 ;OPTIMIZER ADDED SUBROUTINE, CALLED 2 TIMES, CODE SIZE REDUCTION:5 WORDS
                 SUBOPT_0xB8:
002d10 0fae      	ADD  R26,R30
002d11 1fbf      	ADC  R27,R31
002d12 9613      	ADIW R26,3
002d13 91ec      	LD   R30,X
002d14 e0f0      	LDI  R31,0
002d15 9733      	SBIW R30,3
002d16 e0a0      	LDI  R26,LOW(_BucketData)
002d17 e0b6      	LDI  R27,HIGH(_BucketData)
002d18 cafc      	RJMP SUBOPT_0xB
                 
                 ;OPTIMIZER ADDED SUBROUTINE, CALLED 2 TIMES, CODE SIZE REDUCTION:5 WORDS
                 SUBOPT_0xB9:
002d19 0fae      	ADD  R26,R30
002d1a 1fbf      	ADC  R27,R31
002d1b 9613      	ADIW R26,3
002d1c 91ec      	LD   R30,X
002d1d e0f0      	LDI  R31,0
002d1e 9732      	SBIW R30,2
002d1f e0a0      	LDI  R26,LOW(_BucketData)
002d20 e0b6      	LDI  R27,HIGH(_BucketData)
002d21 caf3      	RJMP SUBOPT_0xB
                 
                 ;OPTIMIZER ADDED SUBROUTINE, CALLED 2 TIMES, CODE SIZE REDUCTION:2 WORDS
                 SUBOPT_0xBA:
002d22 0fae      	ADD  R26,R30
002d23 1fbf      	ADC  R27,R31
002d24 9613      	ADIW R26,3
002d25 91ec      	LD   R30,X
002d26 e0f0      	LDI  R31,0
002d27 cf9c      	RJMP SUBOPT_0xAC
                 
                 ;OPTIMIZER ADDED SUBROUTINE, CALLED 2 TIMES, CODE SIZE REDUCTION:5 WORDS
                 SUBOPT_0xBB:
002d28 0fae      	ADD  R26,R30
002d29 1fbf      	ADC  R27,R31
002d2a 9613      	ADIW R26,3
002d2b 91ec      	LD   R30,X
002d2c e0f0      	LDI  R31,0
002d2d 9730      	SBIW R30,0
002d2e e0a0      	LDI  R26,LOW(_BucketData)
002d2f e0b6      	LDI  R27,HIGH(_BucketData)
002d30 cae4      	RJMP SUBOPT_0xB
                 
                 ;OPTIMIZER ADDED SUBROUTINE, CALLED 6 TIMES, CODE SIZE REDUCTION:12 WORDS
                 SUBOPT_0xBC:
002d31 940e 313f 	CALL __GETW1P
002d33 01d0      	MOVW R26,R0
002d34 93ed      	ST   X+,R30
002d35 93fc      	ST   X,R31
002d36 9508      	RET
                 
                 ;OPTIMIZER ADDED SUBROUTINE, CALLED 3 TIMES, CODE SIZE REDUCTION:1 WORDS
                 SUBOPT_0xBD:
                +
002d37 91a0 0d21+LDS R26 , _SYS_INFO + ( 7 )
002d39 91b0 0d22+LDS R27 , _SYS_INFO + ( 7 ) + 1
                 	__GETW2MN _SYS_INFO,7
002d3b 9508      	RET
                 
                 ;OPTIMIZER ADDED SUBROUTINE, CALLED 2 TIMES, CODE SIZE REDUCTION:4 WORDS
                 SUBOPT_0xBE:
                +
002d3c 91e0 0b00+LDS R30 , _GRADE_INFO + ( 80 )
002d3e 91f0 0b01+LDS R31 , _GRADE_INFO + ( 80 ) + 1
                 	__GETW1MN _GRADE_INFO,80
002d40 9731      	SBIW R30,1
002d41 93e0 0ab0 	STS  _GRADE_INFO,R30
002d43 93f0 0ab1 	STS  _GRADE_INFO+1,R31
002d45 9508      	RET
                 
                 ;OPTIMIZER ADDED SUBROUTINE, CALLED 3 TIMES, CODE SIZE REDUCTION:1 WORDS
                 SUBOPT_0xBF:
                +
002d46 91e0 0d02+LDS R30 , _MEASURE_INFO + ( 6 )
002d48 91f0 0d03+LDS R31 , _MEASURE_INFO + ( 6 ) + 1
                 	__GETW1MN _MEASURE_INFO,6
002d4a 9508      	RET
                 
                 ;OPTIMIZER ADDED SUBROUTINE, CALLED 2 TIMES, CODE SIZE REDUCTION:3 WORDS
                 SUBOPT_0xC0:
002d4b 940e 30d5 	CALL __DIVW21
002d4d 01df      	MOVW R26,R30
002d4e 91e0 1c66 	LDS  R30,_timer_period
002d50 e0f0      	LDI  R31,0
002d51 940e 30d5 	CALL __DIVW21
002d53 9508      	RET
                 
                 ;OPTIMIZER ADDED SUBROUTINE, CALLED 10 TIMES, CODE SIZE REDUCTION:24 WORDS
                 SUBOPT_0xC1:
002d54 81ee      	LDD  R30,Y+6
002d55 81ff      	LDD  R31,Y+6+1
002d56 9631      	ADIW R30,1
002d57 83ee      	STD  Y+6,R30
002d58 83ff      	STD  Y+6+1,R31
002d59 9508      	RET
                 
                 ;OPTIMIZER ADDED SUBROUTINE, CALLED 2 TIMES, CODE SIZE REDUCTION:12 WORDS
                 SUBOPT_0xC2:
002d5a e0e0      	LDI  R30,LOW(0)
002d5b 93e0 1c17 	STS  _reformTotal,R30
002d5d 93e0 1c18 	STS  _reformTotal+1,R30
002d5f 93e0 1c19 	STS  _reformTotal+2,R30
002d61 93e0 1c1a 	STS  _reformTotal+3,R30
002d63 93e0 1c4b 	STS  _reformVoltage,R30
002d65 93e0 1c4c 	STS  _reformVoltage+1,R30
002d67 93e0 1c00 	STS  _adcnt,R30
002d69 9508      	RET
                 
                 ;OPTIMIZER ADDED SUBROUTINE, CALLED 2 TIMES, CODE SIZE REDUCTION:1 WORDS
                 SUBOPT_0xC3:
002d6a 940e 313f 	CALL __GETW1P
002d6c dd4b      	RCALL SUBOPT_0x64
002d6d 2766      	CLR  R22
002d6e 2777      	CLR  R23
002d6f 9508      	RET
                 
                 ;OPTIMIZER ADDED SUBROUTINE, CALLED 4 TIMES, CODE SIZE REDUCTION:6 WORDS
                 SUBOPT_0xC4:
002d70 91e0 1c5a 	LDS  R30,_led_buz_value
002d72 68e0      	ORI  R30,0x80
002d73 cc08      	RJMP SUBOPT_0x38
                 
                 ;OPTIMIZER ADDED SUBROUTINE, CALLED 14 TIMES, CODE SIZE REDUCTION:23 WORDS
                 SUBOPT_0xC5:
002d74 e3a2      	LDI  R26,LOW(50)
002d75 e0b0      	LDI  R27,0
002d76 940c 3021 	JMP  _delay_ms
                 
                 ;OPTIMIZER ADDED SUBROUTINE, CALLED 4 TIMES, CODE SIZE REDUCTION:6 WORDS
                 SUBOPT_0xC6:
002d78 93e0 1bff 	STS  _TimerMode,R30
002d7a e0e0      	LDI  R30,LOW(0)
002d7b cae3      	RJMP SUBOPT_0x19
                 
                 ;OPTIMIZER ADDED SUBROUTINE, CALLED 4 TIMES, CODE SIZE REDUCTION:6 WORDS
                 SUBOPT_0xC7:
002d7c 93e0 0088 	STS  136,R30
002d7e e0e5      	LDI  R30,LOW(5)
002d7f 93e0 0081 	STS  129,R30
002d81 9508      	RET
                 
                 ;OPTIMIZER ADDED SUBROUTINE, CALLED 4 TIMES, CODE SIZE REDUCTION:6 WORDS
                 SUBOPT_0xC8:
                +
002d82 93e0 1623+STS _TxBuffer + ( 3 ) , R30
                 	__PUTB1MN _TxBuffer,3
002d84 e0e1      	LDI  R30,LOW(1)
002d85 cd12      	RJMP SUBOPT_0x60
                 
                 ;OPTIMIZER ADDED SUBROUTINE, CALLED 9 TIMES, CODE SIZE REDUCTION:13 WORDS
                 SUBOPT_0xC9:
002d86 e0e6      	LDI  R30,LOW(6)
002d87 e0f0      	LDI  R31,HIGH(6)
002d88 ce8b      	RJMP SUBOPT_0x93
                 
                 ;OPTIMIZER ADDED SUBROUTINE, CALLED 2 TIMES, CODE SIZE REDUCTION:2 WORDS
                 SUBOPT_0xCA:
002d89 91e0 1c01 	LDS  R30,_avr_loop_cnt
002d8b 85ac      	LDD  R26,Y+12
002d8c 85bd      	LDD  R27,Y+12+1
002d8d e0f0      	LDI  R31,0
002d8e 17ae      	CP   R26,R30
002d8f 07bf      	CPC  R27,R31
002d90 9508      	RET
                 
                 ;OPTIMIZER ADDED SUBROUTINE, CALLED 2 TIMES, CODE SIZE REDUCTION:1 WORDS
                 SUBOPT_0xCB:
002d91 85ec      	LDD  R30,Y+12
002d92 85fd      	LDD  R31,Y+12+1
002d93 e1ab      	LDI  R26,LOW(_reform_ADC)
002d94 e1bc      	LDI  R27,HIGH(_reform_ADC)
002d95 ce6a      	RJMP SUBOPT_0x90
                 
                 ;OPTIMIZER ADDED SUBROUTINE, CALLED 2 TIMES, CODE SIZE REDUCTION:3 WORDS
                 SUBOPT_0xCC:
002d96 85ea      	LDD  R30,Y+10
002d97 85fb      	LDD  R31,Y+10+1
002d98 2766      	CLR  R22
002d99 2777      	CLR  R23
002d9a dd1d      	RCALL SUBOPT_0x64
002d9b 940e 302b 	CALL __ADDD12
002d9d 9508      	RET
                 
                 ;OPTIMIZER ADDED SUBROUTINE, CALLED 3 TIMES, CODE SIZE REDUCTION:9 WORDS
                 SUBOPT_0xCD:
002d9e 93e0 1c17 	STS  _reformTotal,R30
002da0 93f0 1c18 	STS  _reformTotal+1,R31
002da2 9360 1c19 	STS  _reformTotal+2,R22
002da4 9370 1c1a 	STS  _reformTotal+3,R23
002da6 9508      	RET
                 
                 ;OPTIMIZER ADDED SUBROUTINE, CALLED 17 TIMES, CODE SIZE REDUCTION:61 WORDS
                 SUBOPT_0xCE:
002da7 940e 182a 	CALL _BuzzerOn
002da9 eca8      	LDI  R26,LOW(200)
002daa e0b0      	LDI  R27,0
002dab 940c 3021 	JMP  _delay_ms
                 
                 ;OPTIMIZER ADDED SUBROUTINE, CALLED 27 TIMES, CODE SIZE REDUCTION:49 WORDS
                 SUBOPT_0xCF:
002dad e6a4      	LDI  R26,LOW(100)
002dae e0b0      	LDI  R27,0
002daf 940c 3021 	JMP  _delay_ms
                 
                 ;OPTIMIZER ADDED SUBROUTINE, CALLED 8 TIMES, CODE SIZE REDUCTION:11 WORDS
                 SUBOPT_0xD0:
                +
002db1 91e0 142d+LDS R30 , _RxBuffer + ( 1 )
                 	__GETB1MN _RxBuffer,1
002db3 ccff      	RJMP SUBOPT_0x63
                 
                 ;OPTIMIZER ADDED SUBROUTINE, CALLED 19 TIMES, CODE SIZE REDUCTION:51 WORDS
                 SUBOPT_0xD1:
002db4 e0b0      	LDI  R27,0
002db5 e0e0      	LDI  R30,LOW(256)
002db6 e0f1      	LDI  R31,HIGH(256)
002db7 940e 30aa 	CALL __MULW12
002db9 9508      	RET
                 
                 ;OPTIMIZER ADDED SUBROUTINE, CALLED 2 TIMES, CODE SIZE REDUCTION:1 WORDS
                 SUBOPT_0xD2:
002dba e0e0      	LDI  R30,LOW(0)
002dbb 93e0 0089 	STS  137,R30
002dbd e1ef      	LDI  R30,LOW(31)
002dbe cfbd      	RJMP SUBOPT_0xC7
                 
                 ;OPTIMIZER ADDED SUBROUTINE, CALLED 3 TIMES, CODE SIZE REDUCTION:5 WORDS
                 SUBOPT_0xD3:
002dbf e0e2      	LDI  R30,LOW(2)
002dc0 93e0 1620 	STS  _TxBuffer,R30
002dc2 e0e0      	LDI  R30,LOW(0)
                +
002dc3 93e0 1621+STS _TxBuffer + ( 1 ) , R30
                 	__PUTB1MN _TxBuffer,1
002dc5 9508      	RET
                 
                 ;OPTIMIZER ADDED SUBROUTINE, CALLED 5 TIMES, CODE SIZE REDUCTION:13 WORDS
                 SUBOPT_0xD4:
002dc6 e0e1      	LDI  R30,LOW(1)
002dc7 e0f0      	LDI  R31,HIGH(1)
002dc8 93e0 1c0f 	STS  _txcnt,R30
002dca 93f0 1c10 	STS  _txcnt+1,R31
002dcc 9508      	RET
                 
                 ;OPTIMIZER ADDED SUBROUTINE, CALLED 4 TIMES, CODE SIZE REDUCTION:3 WORDS
                 SUBOPT_0xD5:
002dcd 93ec      	ST   X,R30
002dce 81ea      	LDD  R30,Y+2
002dcf e0f0      	LDI  R31,0
002dd0 9730      	SBIW R30,0
002dd1 9508      	RET
                 
                 ;OPTIMIZER ADDED SUBROUTINE, CALLED 2 TIMES, CODE SIZE REDUCTION:7 WORDS
                 SUBOPT_0xD6:
002dd2 81ea      	LDD  R30,Y+2
002dd3 e0f0      	LDI  R31,0
002dd4 52e8      	SUBI R30,LOW(-_do_value)
002dd5 4ff1      	SBCI R31,HIGH(-_do_value)
002dd6 010f      	MOVW R0,R30
002dd7 81a0      	LD   R26,Z
002dd8 2fe1      	MOV  R30,R17
002dd9 95e0      	COM  R30
002dda 23ea      	AND  R30,R26
002ddb 01d0      	MOVW R26,R0
002ddc cff0      	RJMP SUBOPT_0xD5
                 
                 ;OPTIMIZER ADDED SUBROUTINE, CALLED 7 TIMES, CODE SIZE REDUCTION:15 WORDS
                 SUBOPT_0xD7:
002ddd 91e0 0ee1 	LDS  R30,_plc_prt_value
002ddf 61e0      	ORI  R30,0x10
002de0 93e0 0ee1 	STS  _plc_prt_value,R30
002de2 9508      	RET
                 
                 ;OPTIMIZER ADDED SUBROUTINE, CALLED 7 TIMES, CODE SIZE REDUCTION:15 WORDS
                 SUBOPT_0xD8:
002de3 91e0 0ee1 	LDS  R30,_plc_prt_value
002de5 7eef      	ANDI R30,0xEF
002de6 93e0 0ee1 	STS  _plc_prt_value,R30
002de8 9508      	RET
                 
                 ;OPTIMIZER ADDED SUBROUTINE, CALLED 4 TIMES, CODE SIZE REDUCTION:3 WORDS
                 SUBOPT_0xD9:
                +
002de9 e0e0     +LDI R30 , LOW ( 0x0 )
002dea e0f0     +LDI R31 , HIGH ( 0x0 )
002deb e060     +LDI R22 , BYTE3 ( 0x0 )
002dec e070     +LDI R23 , BYTE4 ( 0x0 )
                 	__GETD1N 0x0
002ded 9508      	RET
                 
                 ;OPTIMIZER ADDED SUBROUTINE, CALLED 2 TIMES, CODE SIZE REDUCTION:4 WORDS
                 SUBOPT_0xDA:
002dee 93e0 1428 	STS  _phase_z_cnt,R30
002df0 93e0 1429 	STS  _phase_z_cnt+1,R30
002df2 93e0 142a 	STS  _phase_z_cnt+2,R30
002df4 93e0 142b 	STS  _phase_z_cnt+3,R30
002df6 e0e0      	LDI  R30,LOW(0)
002df7 9508      	RET
                 
                 ;OPTIMIZER ADDED SUBROUTINE, CALLED 12 TIMES, CODE SIZE REDUCTION:19 WORDS
                 SUBOPT_0xDB:
002df8 93e0 9000 	STS  36864,R30
002dfa cf79      	RJMP SUBOPT_0xC5
                 
                 ;OPTIMIZER ADDED SUBROUTINE, CALLED 2 TIMES, CODE SIZE REDUCTION:2 WORDS
                 SUBOPT_0xDC:
002dfb 93e0 1bff 	STS  _TimerMode,R30
002dfd 91e0 0ee1 	LDS  R30,_plc_prt_value
002dff 60e1      	ORI  R30,1
002e00 cad1      	RJMP SUBOPT_0x28
                 
                 ;OPTIMIZER ADDED SUBROUTINE, CALLED 2 TIMES, CODE SIZE REDUCTION:1 WORDS
                 SUBOPT_0xDD:
002e01 93e0 1c6b 	STS  _Marking_Version,R30
002e03 e1a2      	LDI  R26,LOW(18)
002e04 e0b0      	LDI  R27,0
002e05 940c 04d4 	JMP  _PUT_USR_INFO_DATA
                 
                 ;OPTIMIZER ADDED SUBROUTINE, CALLED 26 TIMES, CODE SIZE REDUCTION:72 WORDS
                 SUBOPT_0xDE:
002e07 85e8      	LDD  R30,Y+8
002e08 85f9      	LDD  R31,Y+8+1
002e09 9631      	ADIW R30,1
002e0a 87e8      	STD  Y+8,R30
002e0b 87f9      	STD  Y+8+1,R31
002e0c 9508      	RET
                 
                 ;OPTIMIZER ADDED SUBROUTINE, CALLED 4 TIMES, CODE SIZE REDUCTION:3 WORDS
                 SUBOPT_0xDF:
002e0d 85a8      	LDD  R26,Y+8
002e0e 85b9      	LDD  R27,Y+8+1
002e0f cb9e      	RJMP SUBOPT_0x3F
                 
                 ;OPTIMIZER ADDED SUBROUTINE, CALLED 4 TIMES, CODE SIZE REDUCTION:6 WORDS
                 SUBOPT_0xE0:
                +
002e10 93e0 1623+STS _TxBuffer + ( 3 ) , R30
                 	__PUTB1MN _TxBuffer,3
002e12 e0e2      	LDI  R30,LOW(2)
                +
002e13 93e0 1624+STS _TxBuffer + ( 4 ) , R30
                 	__PUTB1MN _TxBuffer,4
002e15 9508      	RET
                 
                 ;OPTIMIZER ADDED SUBROUTINE, CALLED 4 TIMES, CODE SIZE REDUCTION:6 WORDS
                 SUBOPT_0xE1:
002e16 e0e1      	LDI  R30,LOW(1)
002e17 93e0 1bfe 	STS  _TxEnable,R30
002e19 cfac      	RJMP SUBOPT_0xD4
                 
                 ;OPTIMIZER ADDED SUBROUTINE, CALLED 10 TIMES, CODE SIZE REDUCTION:42 WORDS
                 SUBOPT_0xE2:
002e1a 81ae      	LDD  R26,Y+6
002e1b 81bf      	LDD  R27,Y+6+1
002e1c e0e2      	LDI  R30,LOW(2)
002e1d 940e 30a4 	CALL __MULB1W2U
002e1f 0fe4      	ADD  R30,R20
002e20 1ff5      	ADC  R31,R21
002e21 9508      	RET
                 
                 ;OPTIMIZER ADDED SUBROUTINE, CALLED 4 TIMES, CODE SIZE REDUCTION:6 WORDS
                 SUBOPT_0xE3:
002e22 9631      	ADIW R30,1
002e23 83ec      	STD  Y+4,R30
002e24 83fd      	STD  Y+4+1,R31
002e25 cff4      	RJMP SUBOPT_0xE2
                 
                 ;OPTIMIZER ADDED SUBROUTINE, CALLED 2 TIMES, CODE SIZE REDUCTION:2 WORDS
                 SUBOPT_0xE4:
002e26 83ea      	STD  Y+2,R30
002e27 83fb      	STD  Y+2+1,R31
002e28 85a8      	LDD  R26,Y+8
002e29 85b9      	LDD  R27,Y+8+1
002e2a e3e0      	LDI  R30,LOW(48)
002e2b 940e 30a4 	CALL __MULB1W2U
002e2d 9508      	RET
                 
                 ;OPTIMIZER ADDED SUBROUTINE, CALLED 4 TIMES, CODE SIZE REDUCTION:12 WORDS
                 SUBOPT_0xE5:
                +
002e2e 5eea     +SUBI R30 , LOW ( - _SOL_INFO - ( 12 ) )
002e2f 4ff4     +SBCI R31 , HIGH ( - _SOL_INFO - ( 12 ) )
                 	__ADDW1MN _SOL_INFO,12
002e30 01df      	MOVW R26,R30
002e31 81ee      	LDD  R30,Y+6
002e32 81ff      	LDD  R31,Y+6+1
002e33 c9e1      	RJMP SUBOPT_0xB
                 
                 ;OPTIMIZER ADDED SUBROUTINE, CALLED 3 TIMES, CODE SIZE REDUCTION:19 WORDS
                 SUBOPT_0xE6:
002e34 81ea      	LDD  R30,Y+2
002e35 81fb      	LDD  R31,Y+2+1
002e36 5de4      	SUBI R30,LOW(-_RxBuffer)
002e37 4efb      	SBCI R31,HIGH(-_RxBuffer)
002e38 81e0      	LD   R30,Z
002e39 e0f0      	LDI  R31,0
002e3a 93ed      	ST   X+,R30
002e3b 93fc      	ST   X,R31
002e3c 85a8      	LDD  R26,Y+8
002e3d 85b9      	LDD  R27,Y+8+1
002e3e e3e0      	LDI  R30,LOW(48)
002e3f 940e 30a4 	CALL __MULB1W2U
002e41 9508      	RET
                 
                 ;OPTIMIZER ADDED SUBROUTINE, CALLED 3 TIMES, CODE SIZE REDUCTION:15 WORDS
                 SUBOPT_0xE7:
002e42 91ed      	LD   R30,X+
002e43 91fd      	LD   R31,X+
002e44 2ffe      	MOV  R31,R30
002e45 e0e0      	LDI  R30,0
002e46 93fe      	ST   -X,R31
002e47 93ee      	ST   -X,R30
002e48 85a8      	LDD  R26,Y+8
002e49 85b9      	LDD  R27,Y+8+1
002e4a e3e0      	LDI  R30,LOW(48)
002e4b 940e 30a4 	CALL __MULB1W2U
002e4d 9508      	RET
                 
                 ;OPTIMIZER ADDED SUBROUTINE, CALLED 3 TIMES, CODE SIZE REDUCTION:3 WORDS
                 SUBOPT_0xE8:
002e4e 01df      	MOVW R26,R30
002e4f 81ee      	LDD  R30,Y+6
002e50 81ff      	LDD  R31,Y+6+1
002e51 cdae      	RJMP SUBOPT_0x90
                 
                 ;OPTIMIZER ADDED SUBROUTINE, CALLED 7 TIMES, CODE SIZE REDUCTION:81 WORDS
                 SUBOPT_0xE9:
002e52 010f      	MOVW R0,R30
002e53 01df      	MOVW R26,R30
002e54 940e 313f 	CALL __GETW1P
002e56 01df      	MOVW R26,R30
002e57 81ec      	LDD  R30,Y+4
002e58 81fd      	LDD  R31,Y+4+1
002e59 5de4      	SUBI R30,LOW(-_RxBuffer)
002e5a 4efb      	SBCI R31,HIGH(-_RxBuffer)
002e5b 81e0      	LD   R30,Z
002e5c e0f0      	LDI  R31,0
002e5d 2bea      	OR   R30,R26
002e5e 2bfb      	OR   R31,R27
002e5f 01d0      	MOVW R26,R0
002e60 93ed      	ST   X+,R30
002e61 93fc      	ST   X,R31
002e62 9508      	RET
                 
                 ;OPTIMIZER ADDED SUBROUTINE, CALLED 17 TIMES, CODE SIZE REDUCTION:29 WORDS
                 SUBOPT_0xEA:
002e63 81ec      	LDD  R30,Y+4
002e64 81fd      	LDD  R31,Y+4+1
002e65 9631      	ADIW R30,1
002e66 01af      	MOVW R20,R30
002e67 9508      	RET
                 
                 ;OPTIMIZER ADDED SUBROUTINE, CALLED 4 TIMES, CODE SIZE REDUCTION:12 WORDS
                 SUBOPT_0xEB:
                +
002e68 5dee     +SUBI R30 , LOW ( - _SOL_INFO - ( 24 ) )
002e69 4ff4     +SBCI R31 , HIGH ( - _SOL_INFO - ( 24 ) )
                 	__ADDW1MN _SOL_INFO,24
002e6a 01df      	MOVW R26,R30
002e6b 81ee      	LDD  R30,Y+6
002e6c 81ff      	LDD  R31,Y+6+1
002e6d c9a7      	RJMP SUBOPT_0xB
                 
                 ;OPTIMIZER ADDED SUBROUTINE, CALLED 12 TIMES, CODE SIZE REDUCTION:52 WORDS
                 SUBOPT_0xEC:
002e6e 85a8      	LDD  R26,Y+8
002e6f 85b9      	LDD  R27,Y+8+1
002e70 e0e2      	LDI  R30,LOW(2)
002e71 940e 30a4 	CALL __MULB1W2U
002e73 0fe4      	ADD  R30,R20
002e74 1ff5      	ADC  R31,R21
002e75 9508      	RET
                 
                 ;OPTIMIZER ADDED SUBROUTINE, CALLED 2 TIMES, CODE SIZE REDUCTION:3 WORDS
                 SUBOPT_0xED:
002e76 83ea      	STD  Y+2,R30
002e77 83fb      	STD  Y+2+1,R31
002e78 85e8      	LDD  R30,Y+8
002e79 85f9      	LDD  R31,Y+8+1
002e7a ebaa      	LDI  R26,LOW(_PACKER_INFO)
002e7b e0bc      	LDI  R27,HIGH(_PACKER_INFO)
002e7c 940e 305f 	CALL __LSLW2
002e7e 9508      	RET
                 
                 ;OPTIMIZER ADDED SUBROUTINE, CALLED 10 TIMES, CODE SIZE REDUCTION:24 WORDS
                 SUBOPT_0xEE:
002e7f 81ea      	LDD  R30,Y+2
002e80 81fb      	LDD  R31,Y+2+1
002e81 5de4      	SUBI R30,LOW(-_RxBuffer)
002e82 4efb      	SBCI R31,HIGH(-_RxBuffer)
002e83 81e0      	LD   R30,Z
002e84 9508      	RET
                 
                 ;OPTIMIZER ADDED SUBROUTINE, CALLED 2 TIMES, CODE SIZE REDUCTION:2 WORDS
                 SUBOPT_0xEF:
002e85 93ec      	ST   X,R30
002e86 85e8      	LDD  R30,Y+8
002e87 85f9      	LDD  R31,Y+8+1
002e88 ebaa      	LDI  R26,LOW(_PACKER_INFO)
002e89 e0bc      	LDI  R27,HIGH(_PACKER_INFO)
002e8a cb5a      	RJMP SUBOPT_0x47
                 
                 ;OPTIMIZER ADDED SUBROUTINE, CALLED 4 TIMES, CODE SIZE REDUCTION:6 WORDS
                 SUBOPT_0xF0:
002e8b 81ec      	LDD  R30,Y+4
002e8c 81fd      	LDD  R31,Y+4+1
002e8d 5de4      	SUBI R30,LOW(-_RxBuffer)
002e8e 4efb      	SBCI R31,HIGH(-_RxBuffer)
002e8f 81e0      	LD   R30,Z
002e90 9508      	RET
                 
                 ;OPTIMIZER ADDED SUBROUTINE, CALLED 2 TIMES, CODE SIZE REDUCTION:2 WORDS
                 SUBOPT_0xF1:
002e91 01fa      	MOVW R30,R20
                +
002e92 5de3     +SUBI R30 , LOW ( - _RxBuffer - ( 1 ) )
002e93 4efb     +SBCI R31 , HIGH ( - _RxBuffer - ( 1 ) )
                 	__ADDW1MN _RxBuffer,1
002e94 81e0      	LD   R30,Z
002e95 e0f0      	LDI  R31,0
002e96 2bea      	OR   R30,R26
002e97 2bfb      	OR   R31,R27
002e98 9508      	RET
                 
                 ;OPTIMIZER ADDED SUBROUTINE, CALLED 2 TIMES, CODE SIZE REDUCTION:2 WORDS
                 SUBOPT_0xF2:
002e99 01fa      	MOVW R30,R20
                +
002e9a 5de2     +SUBI R30 , LOW ( - _RxBuffer - ( 2 ) )
002e9b 4efb     +SBCI R31 , HIGH ( - _RxBuffer - ( 2 ) )
                 	__ADDW1MN _RxBuffer,2
002e9c 81e0      	LD   R30,Z
002e9d e0f0      	LDI  R31,0
002e9e 93ed      	ST   X+,R30
002e9f 93fc      	ST   X,R31
002ea0 9508      	RET
                 
                 ;OPTIMIZER ADDED SUBROUTINE, CALLED 2 TIMES, CODE SIZE REDUCTION:2 WORDS
                 SUBOPT_0xF3:
002ea1 01fa      	MOVW R30,R20
                +
002ea2 5de1     +SUBI R30 , LOW ( - _RxBuffer - ( 3 ) )
002ea3 4efb     +SBCI R31 , HIGH ( - _RxBuffer - ( 3 ) )
                 	__ADDW1MN _RxBuffer,3
002ea4 81e0      	LD   R30,Z
002ea5 e0f0      	LDI  R31,0
002ea6 2bea      	OR   R30,R26
002ea7 2bfb      	OR   R31,R27
002ea8 9508      	RET
                 
                 ;OPTIMIZER ADDED SUBROUTINE, CALLED 3 TIMES, CODE SIZE REDUCTION:1 WORDS
                 SUBOPT_0xF4:
002ea9 93e0 0d2c 	STS  _ABN_INFO,R30
002eab 93f0 0d2d 	STS  _ABN_INFO+1,R31
002ead 9508      	RET
                 
                 ;OPTIMIZER ADDED SUBROUTINE, CALLED 2 TIMES, CODE SIZE REDUCTION:3 WORDS
                 SUBOPT_0xF5:
002eae e0ac      	LDI  R26,LOW(12)
002eaf e0b0      	LDI  R27,0
002eb0 940e 04d4 	CALL _PUT_USR_INFO_DATA
002eb2 e0ad      	LDI  R26,LOW(13)
002eb3 e0b0      	LDI  R27,0
002eb4 940c 04d4 	JMP  _PUT_USR_INFO_DATA
                 
                 ;OPTIMIZER ADDED SUBROUTINE, CALLED 2 TIMES, CODE SIZE REDUCTION:8 WORDS
                 SUBOPT_0xF6:
002eb6 83ea      	STD  Y+2,R30
002eb7 83fb      	STD  Y+2+1,R31
002eb8 5ee0      	SUBI R30,LOW(-_TxBuffer)
002eb9 4ef9      	SBCI R31,HIGH(-_TxBuffer)
                +
002eba 2f7e     +MOV R23 , R30
002ebb 2f8f     +MOV R24 , R31
                 	__PUTW1R 23,24
002ebc 85a8      	LDD  R26,Y+8
002ebd 85b9      	LDD  R27,Y+8+1
002ebe e3e0      	LDI  R30,LOW(48)
002ebf 940e 30a4 	CALL __MULB1W2U
002ec1 9508      	RET
                 
                 ;OPTIMIZER ADDED SUBROUTINE, CALLED 3 TIMES, CODE SIZE REDUCTION:29 WORDS
                 SUBOPT_0xF7:
002ec2 940e 313f 	CALL __GETW1P
002ec4 940e 306d 	CALL __ASRW8
                +
002ec6 2fa7     +MOV R26 , R23
002ec7 2fb8     +MOV R27 , R24
                 	__GETW2R 23,24
002ec8 93ec      	ST   X,R30
002ec9 81ec      	LDD  R30,Y+4
002eca 81fd      	LDD  R31,Y+4+1
002ecb 5ee0      	SUBI R30,LOW(-_TxBuffer)
002ecc 4ef9      	SBCI R31,HIGH(-_TxBuffer)
                +
002ecd 2f7e     +MOV R23 , R30
002ece 2f8f     +MOV R24 , R31
                 	__PUTW1R 23,24
002ecf 85a8      	LDD  R26,Y+8
002ed0 85b9      	LDD  R27,Y+8+1
002ed1 e3e0      	LDI  R30,LOW(48)
002ed2 940e 30a4 	CALL __MULB1W2U
002ed4 9508      	RET
                 
                 ;OPTIMIZER ADDED SUBROUTINE, CALLED 3 TIMES, CODE SIZE REDUCTION:1 WORDS
                 SUBOPT_0xF8:
002ed5 91ec      	LD   R30,X
                +
002ed6 2fa7     +MOV R26 , R23
002ed7 2fb8     +MOV R27 , R24
                 	__GETW2R 23,24
002ed8 93ec      	ST   X,R30
002ed9 9508      	RET
                 
                 ;OPTIMIZER ADDED SUBROUTINE, CALLED 4 TIMES, CODE SIZE REDUCTION:9 WORDS
                 SUBOPT_0xF9:
002eda 83ea      	STD  Y+2,R30
002edb 83fb      	STD  Y+2+1,R31
002edc 5ee0      	SUBI R30,LOW(-_TxBuffer)
002edd 4ef9      	SBCI R31,HIGH(-_TxBuffer)
002ede 9508      	RET
                 
                 ;OPTIMIZER ADDED SUBROUTINE, CALLED 2 TIMES, CODE SIZE REDUCTION:4 WORDS
                 SUBOPT_0xFA:
002edf 85e8      	LDD  R30,Y+8
002ee0 85f9      	LDD  R31,Y+8+1
002ee1 ebaa      	LDI  R26,LOW(_PACKER_INFO)
002ee2 e0bc      	LDI  R27,HIGH(_PACKER_INFO)
002ee3 940e 305f 	CALL __LSLW2
002ee5 0fae      	ADD  R26,R30
002ee6 1fbf      	ADC  R27,R31
002ee7 9613      	ADIW R26,3
002ee8 9508      	RET
                 
                 ;OPTIMIZER ADDED SUBROUTINE, CALLED 5 TIMES, CODE SIZE REDUCTION:9 WORDS
                 SUBOPT_0xFB:
002ee9 93ec      	ST   X,R30
002eea 81ec      	LDD  R30,Y+4
002eeb 81fd      	LDD  R31,Y+4+1
002eec 5ee0      	SUBI R30,LOW(-_TxBuffer)
002eed 4ef9      	SBCI R31,HIGH(-_TxBuffer)
002eee 9508      	RET
                 
                 ;OPTIMIZER ADDED SUBROUTINE, CALLED 6 TIMES, CODE SIZE REDUCTION:7 WORDS
                 SUBOPT_0xFC:
002eef 940e 306d 	CALL __ASRW8
002ef1 93ec      	ST   X,R30
002ef2 01fa      	MOVW R30,R20
002ef3 9508      	RET
                 
                 ;OPTIMIZER ADDED SUBROUTINE, CALLED 4 TIMES, CODE SIZE REDUCTION:3 WORDS
                 SUBOPT_0xFD:
002ef4 83ea      	STD  Y+2,R30
002ef5 83fb      	STD  Y+2+1,R31
002ef6 cf77      	RJMP SUBOPT_0xEC
                 
                 ;OPTIMIZER ADDED SUBROUTINE, CALLED 4 TIMES, CODE SIZE REDUCTION:9 WORDS
                 SUBOPT_0xFE:
002ef7 9631      	ADIW R30,1
002ef8 83ec      	STD  Y+4,R30
002ef9 83fd      	STD  Y+4+1,R31
002efa 85a8      	LDD  R26,Y+8
002efb 85b9      	LDD  R27,Y+8+1
002efc 9716      	SBIW R26,6
002efd 9508      	RET
                 
                 ;OPTIMIZER ADDED SUBROUTINE, CALLED 3 TIMES, CODE SIZE REDUCTION:9 WORDS
                 SUBOPT_0xFF:
002efe 85a8      	LDD  R26,Y+8
002eff 85b9      	LDD  R27,Y+8+1
002f00 e0ea      	LDI  R30,LOW(10)
002f01 940e 30a4 	CALL __MULB1W2U
002f03 55e0      	SUBI R30,LOW(-_GRADE_INFO)
002f04 4ff5      	SBCI R31,HIGH(-_GRADE_INFO)
002f05 01df      	MOVW R26,R30
002f06 9508      	RET
                 
                 ;OPTIMIZER ADDED SUBROUTINE, CALLED 3 TIMES, CODE SIZE REDUCTION:15 WORDS
                 SUBOPT_0x100:
002f07 91ed      	LD   R30,X+
002f08 91fd      	LD   R31,X+
002f09 2ffe      	MOV  R31,R30
002f0a e0e0      	LDI  R30,0
002f0b 93fe      	ST   -X,R31
002f0c 93ee      	ST   -X,R30
002f0d 85a8      	LDD  R26,Y+8
002f0e 85b9      	LDD  R27,Y+8+1
002f0f e0ea      	LDI  R30,LOW(10)
002f10 940e 30a4 	CALL __MULB1W2U
002f12 9508      	RET
                 
                 ;OPTIMIZER ADDED SUBROUTINE, CALLED 3 TIMES, CODE SIZE REDUCTION:9 WORDS
                 SUBOPT_0x101:
002f13 85a8      	LDD  R26,Y+8
002f14 85b9      	LDD  R27,Y+8+1
002f15 e0ea      	LDI  R30,LOW(10)
002f16 940e 30a4 	CALL __MULB1W2U
                +
002f18 54ee     +SUBI R30 , LOW ( - _GRADE_INFO - ( 2 ) )
002f19 4ff5     +SBCI R31 , HIGH ( - _GRADE_INFO - ( 2 ) )
                 	__ADDW1MN _GRADE_INFO,2
002f1a 01df      	MOVW R26,R30
002f1b 9508      	RET
                 
                 ;OPTIMIZER ADDED SUBROUTINE, CALLED 3 TIMES, CODE SIZE REDUCTION:1 WORDS
                 SUBOPT_0x102:
002f1c 83ec      	STD  Y+4,R30
002f1d 83fd      	STD  Y+4+1,R31
002f1e 85a8      	LDD  R26,Y+8
002f1f 85b9      	LDD  R27,Y+8+1
002f20 9508      	RET
                 
                 ;OPTIMIZER ADDED SUBROUTINE, CALLED 3 TIMES, CODE SIZE REDUCTION:5 WORDS
                 SUBOPT_0x103:
002f21 e0ea      	LDI  R30,LOW(10)
002f22 940e 30a4 	CALL __MULB1W2U
                +
002f24 54ea     +SUBI R30 , LOW ( - _GRADE_INFO - ( 6 ) )
002f25 4ff5     +SBCI R31 , HIGH ( - _GRADE_INFO - ( 6 ) )
                 	__ADDW1MN _GRADE_INFO,6
002f26 01df      	MOVW R26,R30
002f27 9508      	RET
                 
                 ;OPTIMIZER ADDED SUBROUTINE, CALLED 3 TIMES, CODE SIZE REDUCTION:1 WORDS
                 SUBOPT_0x104:
002f28 85e8      	LDD  R30,Y+8
002f29 85f9      	LDD  R31,Y+8+1
002f2a 0fe4      	ADD  R30,R20
002f2b 1ff5      	ADC  R31,R21
002f2c 9508      	RET
                 
                 ;OPTIMIZER ADDED SUBROUTINE, CALLED 3 TIMES, CODE SIZE REDUCTION:1 WORDS
                 SUBOPT_0x105:
002f2d 81e0      	LD   R30,Z
                +
002f2e 2fa7     +MOV R26 , R23
002f2f 2fb8     +MOV R27 , R24
                 	__GETW2R 23,24
002f30 93ec      	ST   X,R30
002f31 9508      	RET
                 
                 ;OPTIMIZER ADDED SUBROUTINE, CALLED 3 TIMES, CODE SIZE REDUCTION:7 WORDS
                 SUBOPT_0x106:
002f32 81ea      	LDD  R30,Y+2
002f33 81fb      	LDD  R31,Y+2+1
002f34 9631      	ADIW R30,1
002f35 01af      	MOVW R20,R30
002f36 e0e0      	LDI  R30,LOW(0)
002f37 87e8      	STD  Y+8,R30
002f38 87e9      	STD  Y+8+1,R30
002f39 9508      	RET
                 
                 ;OPTIMIZER ADDED SUBROUTINE, CALLED 5 TIMES, CODE SIZE REDUCTION:5 WORDS
                 SUBOPT_0x107:
002f3a 83ea      	STD  Y+2,R30
002f3b 83fb      	STD  Y+2+1,R31
002f3c 85a8      	LDD  R26,Y+8
002f3d 85b9      	LDD  R27,Y+8+1
002f3e 9508      	RET
                 
                 ;OPTIMIZER ADDED SUBROUTINE, CALLED 4 TIMES, CODE SIZE REDUCTION:9 WORDS
                 SUBOPT_0x108:
002f3f 85e8      	LDD  R30,Y+8
002f40 85f9      	LDD  R31,Y+8+1
002f41 ebaa      	LDI  R26,LOW(_PACKER_INFO)
002f42 e0bc      	LDI  R27,HIGH(_PACKER_INFO)
002f43 cc87      	RJMP SUBOPT_0x88
                 
                 ;OPTIMIZER ADDED SUBROUTINE, CALLED 2 TIMES, CODE SIZE REDUCTION:5 WORDS
                 SUBOPT_0x109:
002f44 e3e0      	LDI  R30,LOW(48)
002f45 940e 30a4 	CALL __MULB1W2U
                +
002f47 5de2     +SUBI R30 , LOW ( - _SOL_INFO - ( 36 ) )
002f48 4ff4     +SBCI R31 , HIGH ( - _SOL_INFO - ( 36 ) )
                 	__ADDW1MN _SOL_INFO,36
002f49 01df      	MOVW R26,R30
002f4a 81ee      	LDD  R30,Y+6
002f4b 81ff      	LDD  R31,Y+6+1
002f4c c8c8      	RJMP SUBOPT_0xB
                 
                 ;OPTIMIZER ADDED SUBROUTINE, CALLED 2 TIMES, CODE SIZE REDUCTION:2 WORDS
                 SUBOPT_0x10A:
                +
002f4d 5de2     +SUBI R30 , LOW ( - _SOL_INFO - ( 36 ) )
002f4e 4ff4     +SBCI R31 , HIGH ( - _SOL_INFO - ( 36 ) )
                 	__ADDW1MN _SOL_INFO,36
002f4f 01df      	MOVW R26,R30
002f50 81ee      	LDD  R30,Y+6
002f51 81ff      	LDD  R31,Y+6+1
002f52 c8c2      	RJMP SUBOPT_0xB
                 
                 ;OPTIMIZER ADDED SUBROUTINE, CALLED 2 TIMES, CODE SIZE REDUCTION:4 WORDS
                 SUBOPT_0x10B:
002f53 e3e0      	LDI  R30,LOW(48)
002f54 940e 30a4 	CALL __MULB1W2U
                +
002f56 5fe0     +SUBI R30 , LOW ( - _SOL_INFO - ( 6 ) )
002f57 4ff4     +SBCI R31 , HIGH ( - _SOL_INFO - ( 6 ) )
                 	__ADDW1MN _SOL_INFO,6
002f58 81ae      	LDD  R26,Y+6
002f59 81bf      	LDD  R27,Y+6+1
002f5a 0fae      	ADD  R26,R30
002f5b 1fbf      	ADC  R27,R31
002f5c 9508      	RET
                 
                 ;OPTIMIZER ADDED SUBROUTINE, CALLED 4 TIMES, CODE SIZE REDUCTION:24 WORDS
                 SUBOPT_0x10C:
002f5d 85a8      	LDD  R26,Y+8
002f5e 85b9      	LDD  R27,Y+8+1
002f5f e0e2      	LDI  R30,LOW(2)
002f60 940e 30a4 	CALL __MULB1W2U
002f62 81a8      	LD   R26,Y
002f63 81b9      	LDD  R27,Y+1
002f64 0fea      	ADD  R30,R26
002f65 1ffb      	ADC  R31,R27
002f66 cfd3      	RJMP SUBOPT_0x107
                 
                 ;OPTIMIZER ADDED SUBROUTINE, CALLED 2 TIMES, CODE SIZE REDUCTION:4 WORDS
                 SUBOPT_0x10D:
002f67 e0e2      	LDI  R30,LOW(2)
002f68 940e 30a4 	CALL __MULB1W2U
002f6a 81a8      	LD   R26,Y
002f6b 81b9      	LDD  R27,Y+1
002f6c 0fea      	ADD  R30,R26
002f6d 1ffb      	ADC  R31,R27
002f6e cf88      	RJMP SUBOPT_0xFE
                 
                 ;OPTIMIZER ADDED SUBROUTINE, CALLED 2 TIMES, CODE SIZE REDUCTION:2 WORDS
                 SUBOPT_0x10E:
002f6f 940e 306d 	CALL __ASRW8
002f71 93ec      	ST   X,R30
002f72 81ac      	LDD  R26,Y+4
002f73 81bd      	LDD  R27,Y+4+1
002f74 5ea0      	SUBI R26,LOW(-_TxBuffer)
002f75 4eb9      	SBCI R27,HIGH(-_TxBuffer)
002f76 9508      	RET
                 
                 ;OPTIMIZER ADDED SUBROUTINE, CALLED 4 TIMES, CODE SIZE REDUCTION:9 WORDS
                 SUBOPT_0x10F:
002f77 81ea      	LDD  R30,Y+2
002f78 81fb      	LDD  R31,Y+2+1
002f79 5ee0      	SUBI R30,LOW(-_TxBuffer)
002f7a 4ef9      	SBCI R31,HIGH(-_TxBuffer)
                +
002f7b 2f7e     +MOV R23 , R30
002f7c 2f8f     +MOV R24 , R31
                 	__PUTW1R 23,24
002f7d 9508      	RET
                 
                 ;OPTIMIZER ADDED SUBROUTINE, CALLED 3 TIMES, CODE SIZE REDUCTION:9 WORDS
                 SUBOPT_0x110:
002f7e 940e 313f 	CALL __GETW1P
002f80 940e 306d 	CALL __ASRW8
                +
002f82 2fa7     +MOV R26 , R23
002f83 2fb8     +MOV R27 , R24
                 	__GETW2R 23,24
002f84 cf64      	RJMP SUBOPT_0xFB
                 
                 ;OPTIMIZER ADDED SUBROUTINE, CALLED 4 TIMES, CODE SIZE REDUCTION:12 WORDS
                 SUBOPT_0x111:
                +
002f85 2f7e     +MOV R23 , R30
002f86 2f8f     +MOV R24 , R31
                 	__PUTW1R 23,24
002f87 85a8      	LDD  R26,Y+8
002f88 85b9      	LDD  R27,Y+8+1
002f89 e0ea      	LDI  R30,LOW(10)
002f8a 940e 30a4 	CALL __MULB1W2U
002f8c 9508      	RET
                 
                 ;OPTIMIZER ADDED SUBROUTINE, CALLED 5 TIMES, CODE SIZE REDUCTION:21 WORDS
                 SUBOPT_0x112:
002f8d 81ec      	LDD  R30,Y+4
002f8e 81fd      	LDD  R31,Y+4+1
002f8f 9631      	ADIW R30,1
002f90 83e8      	ST   Y,R30
002f91 83f9      	STD  Y+1,R31
002f92 e0e0      	LDI  R30,LOW(0)
002f93 87e8      	STD  Y+8,R30
002f94 87e9      	STD  Y+8+1,R30
002f95 9508      	RET
                 
                 ;OPTIMIZER ADDED SUBROUTINE, CALLED 3 TIMES, CODE SIZE REDUCTION:13 WORDS
                 SUBOPT_0x113:
002f96 e0e2      	LDI  R30,LOW(2)
002f97 940e 30a4 	CALL __MULB1W2U
002f99 81a8      	LD   R26,Y
002f9a 81b9      	LDD  R27,Y+1
002f9b 0fea      	ADD  R30,R26
002f9c 1ffb      	ADC  R31,R27
002f9d 9631      	ADIW R30,1
002f9e 83ec      	STD  Y+4,R30
002f9f 83fd      	STD  Y+4+1,R31
002fa0 9508      	RET
                 
                 ;OPTIMIZER ADDED SUBROUTINE, CALLED 3 TIMES, CODE SIZE REDUCTION:9 WORDS
                 SUBOPT_0x114:
002fa1 85e8      	LDD  R30,Y+8
002fa2 85f9      	LDD  R31,Y+8+1
002fa3 81a8      	LD   R26,Y
002fa4 81b9      	LDD  R27,Y+1
002fa5 0fea      	ADD  R30,R26
002fa6 1ffb      	ADC  R31,R27
002fa7 cf32      	RJMP SUBOPT_0xF9
                 
                 ;OPTIMIZER ADDED SUBROUTINE, CALLED 3 TIMES, CODE SIZE REDUCTION:9 WORDS
                 SUBOPT_0x115:
002fa8 81ea      	LDD  R30,Y+2
002fa9 81fb      	LDD  R31,Y+2+1
002faa 9631      	ADIW R30,1
002fab 83e8      	ST   Y,R30
002fac 83f9      	STD  Y+1,R31
002fad e0e0      	LDI  R30,LOW(0)
002fae 87e8      	STD  Y+8,R30
002faf 87e9      	STD  Y+8+1,R30
002fb0 9508      	RET
                 
                 ;OPTIMIZER ADDED SUBROUTINE, CALLED 3 TIMES, CODE SIZE REDUCTION:3 WORDS
                 SUBOPT_0x116:
002fb1 81ec      	LDD  R30,Y+4
002fb2 81fd      	LDD  R31,Y+4+1
002fb3 9631      	ADIW R30,1
002fb4 83e8      	ST   Y,R30
002fb5 83f9      	STD  Y+1,R31
002fb6 9508      	RET
                 
                 ;OPTIMIZER ADDED SUBROUTINE, CALLED 2 TIMES, CODE SIZE REDUCTION:1 WORDS
                 SUBOPT_0x117:
002fb7 efef      	LDI  R30,LOW(255)
002fb8 93ea      	ST   -Y,R30
                +
002fb9 91e0 142d+LDS R30 , _RxBuffer + ( 1 )
                 	__GETB1MN _RxBuffer,1
002fbb 50e1      	SUBI R30,LOW(1)
002fbc 93ea      	ST   -Y,R30
002fbd 9508      	RET
                 
                 ;OPTIMIZER ADDED SUBROUTINE, CALLED 2 TIMES, CODE SIZE REDUCTION:5 WORDS
                 SUBOPT_0x118:
002fbe e0e1      	LDI  R30,LOW(1)
002fbf 93ea      	ST   -Y,R30
                +
002fc0 91e0 142e+LDS R30 , _RxBuffer + ( 2 )
                 	__GETB1MN _RxBuffer,2
002fc2 50e1      	SUBI R30,LOW(1)
002fc3 2fae      	MOV  R26,R30
002fc4 940e 1a15 	CALL _ExtPort_TEST
002fc6 cde6      	RJMP SUBOPT_0xCF
                 
                 ;OPTIMIZER ADDED SUBROUTINE, CALLED 2 TIMES, CODE SIZE REDUCTION:5 WORDS
                 SUBOPT_0x119:
002fc7 e0e0      	LDI  R30,LOW(0)
002fc8 93ea      	ST   -Y,R30
                +
002fc9 91e0 142e+LDS R30 , _RxBuffer + ( 2 )
                 	__GETB1MN _RxBuffer,2
002fcb 50e1      	SUBI R30,LOW(1)
002fcc 2fae      	MOV  R26,R30
002fcd 940e 1a15 	CALL _ExtPort_TEST
002fcf cddd      	RJMP SUBOPT_0xCF
                 
                 ;OPTIMIZER ADDED SUBROUTINE, CALLED 3 TIMES, CODE SIZE REDUCTION:3 WORDS
                 SUBOPT_0x11A:
002fd0 efef      	LDI  R30,LOW(255)
002fd1 93ea      	ST   -Y,R30
                +
002fd2 91e0 142d+LDS R30 , _RxBuffer + ( 1 )
                 	__GETB1MN _RxBuffer,1
002fd4 93ea      	ST   -Y,R30
002fd5 9508      	RET
                 
                 ;OPTIMIZER ADDED SUBROUTINE, CALLED 2 TIMES, CODE SIZE REDUCTION:1 WORDS
                 SUBOPT_0x11B:
002fd6 e0e2      	LDI  R30,LOW(2)
002fd7 93ea      	ST   -Y,R30
                +
002fd8 91e0 142d+LDS R30 , _RxBuffer + ( 1 )
                 	__GETB1MN _RxBuffer,1
002fda 50e1      	SUBI R30,LOW(1)
002fdb 93ea      	ST   -Y,R30
002fdc 9508      	RET
                 
                 ;OPTIMIZER ADDED SUBROUTINE, CALLED 9 TIMES, CODE SIZE REDUCTION:37 WORDS
                 SUBOPT_0x11C:
002fdd e0e1      	LDI  R30,LOW(1)
002fde 93ea      	ST   -Y,R30
002fdf e0a0      	LDI  R26,LOW(0)
002fe0 940e 1a15 	CALL _ExtPort_TEST
002fe2 cdca      	RJMP SUBOPT_0xCF
                 
                 ;OPTIMIZER ADDED SUBROUTINE, CALLED 9 TIMES, CODE SIZE REDUCTION:37 WORDS
                 SUBOPT_0x11D:
002fe3 e0e0      	LDI  R30,LOW(0)
002fe4 93ea      	ST   -Y,R30
002fe5 e0a0      	LDI  R26,LOW(0)
002fe6 940e 1a15 	CALL _ExtPort_TEST
002fe8 cdc4      	RJMP SUBOPT_0xCF
                 
                 ;OPTIMIZER ADDED SUBROUTINE, CALLED 2 TIMES, CODE SIZE REDUCTION:1 WORDS
                 SUBOPT_0x11E:
002fe9 e0e3      	LDI  R30,LOW(3)
002fea 93ea      	ST   -Y,R30
                +
002feb 91e0 142d+LDS R30 , _RxBuffer + ( 1 )
                 	__GETB1MN _RxBuffer,1
002fed 50e1      	SUBI R30,LOW(1)
002fee 93ea      	ST   -Y,R30
002fef 9508      	RET
                 
                 ;OPTIMIZER ADDED SUBROUTINE, CALLED 2 TIMES, CODE SIZE REDUCTION:1 WORDS
                 SUBOPT_0x11F:
002ff0 e1e0      	LDI  R30,LOW(16)
002ff1 93ea      	ST   -Y,R30
                +
002ff2 91e0 142d+LDS R30 , _RxBuffer + ( 1 )
                 	__GETB1MN _RxBuffer,1
002ff4 50e1      	SUBI R30,LOW(1)
002ff5 93ea      	ST   -Y,R30
002ff6 9508      	RET
                 
                 ;OPTIMIZER ADDED SUBROUTINE, CALLED 2 TIMES, CODE SIZE REDUCTION:1 WORDS
                 SUBOPT_0x120:
002ff7 e2e0      	LDI  R30,LOW(32)
002ff8 93ea      	ST   -Y,R30
                +
002ff9 91e0 142d+LDS R30 , _RxBuffer + ( 1 )
                 	__GETB1MN _RxBuffer,1
002ffb 50e1      	SUBI R30,LOW(1)
002ffc 93ea      	ST   -Y,R30
002ffd 9508      	RET
                 
                 ;OPTIMIZER ADDED SUBROUTINE, CALLED 2 TIMES, CODE SIZE REDUCTION:1 WORDS
                 SUBOPT_0x121:
002ffe e3e0      	LDI  R30,LOW(48)
002fff 93ea      	ST   -Y,R30
                +
003000 91e0 142d+LDS R30 , _RxBuffer + ( 1 )
                 	__GETB1MN _RxBuffer,1
003002 50e1      	SUBI R30,LOW(1)
003003 93ea      	ST   -Y,R30
003004 9508      	RET
                 
                 ;OPTIMIZER ADDED SUBROUTINE, CALLED 2 TIMES, CODE SIZE REDUCTION:1 WORDS
                 SUBOPT_0x122:
003005 e4e0      	LDI  R30,LOW(64)
003006 93ea      	ST   -Y,R30
                +
003007 91e0 142d+LDS R30 , _RxBuffer + ( 1 )
                 	__GETB1MN _RxBuffer,1
003009 50e1      	SUBI R30,LOW(1)
00300a 93ea      	ST   -Y,R30
00300b 9508      	RET
                 
                 ;OPTIMIZER ADDED SUBROUTINE, CALLED 2 TIMES, CODE SIZE REDUCTION:1 WORDS
                 SUBOPT_0x123:
00300c e5e0      	LDI  R30,LOW(80)
00300d 93ea      	ST   -Y,R30
                +
00300e 91e0 142d+LDS R30 , _RxBuffer + ( 1 )
                 	__GETB1MN _RxBuffer,1
003010 50e1      	SUBI R30,LOW(1)
003011 93ea      	ST   -Y,R30
003012 9508      	RET
                 
                 ;OPTIMIZER ADDED SUBROUTINE, CALLED 2 TIMES, CODE SIZE REDUCTION:1 WORDS
                 SUBOPT_0x124:
003013 e6e0      	LDI  R30,LOW(96)
003014 93ea      	ST   -Y,R30
                +
003015 91e0 142d+LDS R30 , _RxBuffer + ( 1 )
                 	__GETB1MN _RxBuffer,1
003017 50e1      	SUBI R30,LOW(1)
003018 93ea      	ST   -Y,R30
003019 9508      	RET
                 
                 ;OPTIMIZER ADDED SUBROUTINE, CALLED 2 TIMES, CODE SIZE REDUCTION:1 WORDS
                 SUBOPT_0x125:
00301a e7e0      	LDI  R30,LOW(112)
00301b 93ea      	ST   -Y,R30
                +
00301c 91e0 142d+LDS R30 , _RxBuffer + ( 1 )
                 	__GETB1MN _RxBuffer,1
00301e 50e1      	SUBI R30,LOW(1)
00301f 93ea      	ST   -Y,R30
003020 9508      	RET
                 
                 
                 	.CSEG
                 _delay_ms:
003021 9610      	adiw r26,0
003022 f039      	breq __delay_ms1
                 __delay_ms0:
                +
003023 ea80     +LDI R24 , LOW ( 0xFA0 )
003024 e09f     +LDI R25 , HIGH ( 0xFA0 )
                +__DELAY_USW_LOOP :
003025 9701     +SBIW R24 , 1
003026 f7f1     +BRNE __DELAY_USW_LOOP
                 	__DELAY_USW 0xFA0
003027 95a8      	wdr
003028 9711      	sbiw r26,1
003029 f7c9      	brne __delay_ms0
                 __delay_ms1:
00302a 9508      	ret
                 
                 __ADDD12:
00302b 0fea      	ADD  R30,R26
00302c 1ffb      	ADC  R31,R27
00302d 1f68      	ADC  R22,R24
00302e 1f79      	ADC  R23,R25
00302f 9508      	RET
                 
                 __SUBD12:
003030 1bea      	SUB  R30,R26
003031 0bfb      	SBC  R31,R27
003032 0b68      	SBC  R22,R24
003033 0b79      	SBC  R23,R25
003034 9508      	RET
                 
                 __SUBD21:
003035 1bae      	SUB  R26,R30
003036 0bbf      	SBC  R27,R31
003037 0b86      	SBC  R24,R22
003038 0b97      	SBC  R25,R23
003039 9508      	RET
                 
                 __ANEGW1:
00303a 95f1      	NEG  R31
00303b 95e1      	NEG  R30
00303c 40f0      	SBCI R31,0
00303d 9508      	RET
                 
                 __ANEGD1:
00303e 95f0      	COM  R31
00303f 9560      	COM  R22
003040 9570      	COM  R23
003041 95e1      	NEG  R30
003042 4fff      	SBCI R31,-1
003043 4f6f      	SBCI R22,-1
003044 4f7f      	SBCI R23,-1
003045 9508      	RET
                 
                 __LSLB12:
003046 23ee      	TST  R30
003047 2e0e      	MOV  R0,R30
003048 2fea      	MOV  R30,R26
003049 f019      	BREQ __LSLB12R
                 __LSLB12L:
00304a 0fee      	LSL  R30
00304b 940a      	DEC  R0
00304c f7e9      	BRNE __LSLB12L
                 __LSLB12R:
00304d 9508      	RET
                 
                 __LSRB12:
00304e 23ee      	TST  R30
00304f 2e0e      	MOV  R0,R30
003050 2fea      	MOV  R30,R26
003051 f019      	BREQ __LSRB12R
                 __LSRB12L:
003052 95e6      	LSR  R30
003053 940a      	DEC  R0
003054 f7e9      	BRNE __LSRB12L
                 __LSRB12R:
003055 9508      	RET
                 
                 __ASRW12:
003056 23ee      	TST  R30
003057 2e0e      	MOV  R0,R30
003058 01fd      	MOVW R30,R26
003059 f021      	BREQ __ASRW12R
                 __ASRW12L:
00305a 95f5      	ASR  R31
00305b 95e7      	ROR  R30
00305c 940a      	DEC  R0
00305d f7e1      	BRNE __ASRW12L
                 __ASRW12R:
00305e 9508      	RET
                 
                 __LSLW2:
00305f 0fee      	LSL  R30
003060 1fff      	ROL  R31
003061 0fee      	LSL  R30
003062 1fff      	ROL  R31
003063 9508      	RET
                 
                 __LSRW4:
003064 95f6      	LSR  R31
003065 95e7      	ROR  R30
                 __LSRW3:
003066 95f6      	LSR  R31
003067 95e7      	ROR  R30
                 __LSRW2:
003068 95f6      	LSR  R31
003069 95e7      	ROR  R30
00306a 95f6      	LSR  R31
00306b 95e7      	ROR  R30
00306c 9508      	RET
                 
                 __ASRW8:
00306d 2fef      	MOV  R30,R31
00306e 27ff      	CLR  R31
00306f fde7      	SBRC R30,7
003070 efff      	SER  R31
003071 9508      	RET
                 
                 __CWD1:
003072 2f6f      	MOV  R22,R31
003073 0f66      	ADD  R22,R22
003074 0b66      	SBC  R22,R22
003075 2f76      	MOV  R23,R22
003076 9508      	RET
                 
                 __CWD2:
003077 2f8b      	MOV  R24,R27
003078 0f88      	ADD  R24,R24
003079 0b88      	SBC  R24,R24
00307a 2f98      	MOV  R25,R24
00307b 9508      	RET
                 
                 __MULW12U:
00307c 9ffa      	MUL  R31,R26
00307d 2df0      	MOV  R31,R0
00307e 9feb      	MUL  R30,R27
00307f 0df0      	ADD  R31,R0
003080 9fea      	MUL  R30,R26
003081 2de0      	MOV  R30,R0
003082 0df1      	ADD  R31,R1
003083 9508      	RET
                 
                 __MULD12U:
003084 9f7a      	MUL  R23,R26
003085 2d70      	MOV  R23,R0
003086 9f6b      	MUL  R22,R27
003087 0d70      	ADD  R23,R0
003088 9ff8      	MUL  R31,R24
003089 0d70      	ADD  R23,R0
00308a 9fe9      	MUL  R30,R25
00308b 0d70      	ADD  R23,R0
00308c 9f6a      	MUL  R22,R26
00308d 2d60      	MOV  R22,R0
00308e 0d71      	ADD  R23,R1
00308f 9ffb      	MUL  R31,R27
003090 0d60      	ADD  R22,R0
003091 1d71      	ADC  R23,R1
003092 9fe8      	MUL  R30,R24
003093 0d60      	ADD  R22,R0
003094 1d71      	ADC  R23,R1
003095 2788      	CLR  R24
003096 9ffa      	MUL  R31,R26
003097 2df0      	MOV  R31,R0
003098 0d61      	ADD  R22,R1
003099 1f78      	ADC  R23,R24
00309a 9feb      	MUL  R30,R27
00309b 0df0      	ADD  R31,R0
00309c 1d61      	ADC  R22,R1
00309d 1f78      	ADC  R23,R24
00309e 9fea      	MUL  R30,R26
00309f 2de0      	MOV  R30,R0
0030a0 0df1      	ADD  R31,R1
0030a1 1f68      	ADC  R22,R24
0030a2 1f78      	ADC  R23,R24
0030a3 9508      	RET
                 
                 __MULB1W2U:
0030a4 2f6e      	MOV  R22,R30
0030a5 9f6a      	MUL  R22,R26
0030a6 01f0      	MOVW R30,R0
0030a7 9f6b      	MUL  R22,R27
0030a8 0df0      	ADD  R31,R0
0030a9 9508      	RET
                 
                 __MULW12:
0030aa d073      	RCALL __CHKSIGNW
0030ab dfd0      	RCALL __MULW12U
0030ac f40e      	BRTC __MULW121
0030ad df8c      	RCALL __ANEGW1
                 __MULW121:
0030ae 9508      	RET
                 
                 __MULD12:
0030af d07c      	RCALL __CHKSIGND
0030b0 dfd3      	RCALL __MULD12U
0030b1 f40e      	BRTC __MULD121
0030b2 df8b      	RCALL __ANEGD1
                 __MULD121:
0030b3 9508      	RET
                 
                 __DIVB21U:
0030b4 2400      	CLR  R0
0030b5 e098      	LDI  R25,8
                 __DIVB21U1:
0030b6 0faa      	LSL  R26
0030b7 1c00      	ROL  R0
0030b8 1a0e      	SUB  R0,R30
0030b9 f410      	BRCC __DIVB21U2
0030ba 0e0e      	ADD  R0,R30
0030bb c001      	RJMP __DIVB21U3
                 __DIVB21U2:
0030bc 60a1      	SBR  R26,1
                 __DIVB21U3:
0030bd 959a      	DEC  R25
0030be f7b9      	BRNE __DIVB21U1
0030bf 2fea      	MOV  R30,R26
0030c0 2da0      	MOV  R26,R0
0030c1 9508      	RET
                 
                 __DIVW21U:
0030c2 2400      	CLR  R0
0030c3 2411      	CLR  R1
0030c4 e190      	LDI  R25,16
                 __DIVW21U1:
0030c5 0faa      	LSL  R26
0030c6 1fbb      	ROL  R27
0030c7 1c00      	ROL  R0
0030c8 1c11      	ROL  R1
0030c9 1a0e      	SUB  R0,R30
0030ca 0a1f      	SBC  R1,R31
0030cb f418      	BRCC __DIVW21U2
0030cc 0e0e      	ADD  R0,R30
0030cd 1e1f      	ADC  R1,R31
0030ce c001      	RJMP __DIVW21U3
                 __DIVW21U2:
0030cf 60a1      	SBR  R26,1
                 __DIVW21U3:
0030d0 959a      	DEC  R25
0030d1 f799      	BRNE __DIVW21U1
0030d2 01fd      	MOVW R30,R26
0030d3 01d0      	MOVW R26,R0
0030d4 9508      	RET
                 
                 __DIVW21:
0030d5 d048      	RCALL __CHKSIGNW
0030d6 dfeb      	RCALL __DIVW21U
0030d7 f40e      	BRTC __DIVW211
0030d8 df61      	RCALL __ANEGW1
                 __DIVW211:
0030d9 9508      	RET
                 
                 __DIVD21U:
0030da 933f      	PUSH R19
0030db 934f      	PUSH R20
0030dc 935f      	PUSH R21
0030dd 2400      	CLR  R0
0030de 2411      	CLR  R1
0030df 2744      	CLR  R20
0030e0 2755      	CLR  R21
0030e1 e230      	LDI  R19,32
                 __DIVD21U1:
0030e2 0faa      	LSL  R26
0030e3 1fbb      	ROL  R27
0030e4 1f88      	ROL  R24
0030e5 1f99      	ROL  R25
0030e6 1c00      	ROL  R0
0030e7 1c11      	ROL  R1
0030e8 1f44      	ROL  R20
0030e9 1f55      	ROL  R21
0030ea 1a0e      	SUB  R0,R30
0030eb 0a1f      	SBC  R1,R31
0030ec 0b46      	SBC  R20,R22
0030ed 0b57      	SBC  R21,R23
0030ee f428      	BRCC __DIVD21U2
0030ef 0e0e      	ADD  R0,R30
0030f0 1e1f      	ADC  R1,R31
0030f1 1f46      	ADC  R20,R22
0030f2 1f57      	ADC  R21,R23
0030f3 c001      	RJMP __DIVD21U3
                 __DIVD21U2:
0030f4 60a1      	SBR  R26,1
                 __DIVD21U3:
0030f5 953a      	DEC  R19
0030f6 f759      	BRNE __DIVD21U1
0030f7 01fd      	MOVW R30,R26
0030f8 01bc      	MOVW R22,R24
0030f9 01d0      	MOVW R26,R0
0030fa 01ca      	MOVW R24,R20
0030fb 915f      	POP  R21
0030fc 914f      	POP  R20
0030fd 913f      	POP  R19
0030fe 9508      	RET
                 
                 __DIVD21:
0030ff d02c      	RCALL __CHKSIGND
003100 dfd9      	RCALL __DIVD21U
003101 f40e      	BRTC __DIVD211
003102 df3b      	RCALL __ANEGD1
                 __DIVD211:
003103 9508      	RET
                 
                 __MODB21U:
003104 dfaf      	RCALL __DIVB21U
003105 2fea      	MOV  R30,R26
003106 9508      	RET
                 
                 __MODW21U:
003107 dfba      	RCALL __DIVW21U
003108 01fd      	MOVW R30,R26
003109 9508      	RET
                 
                 __MODD21:
00310a 94e8      	CLT
00310b ff97      	SBRS R25,7
00310c c009      	RJMP __MODD211
00310d 95a0      	COM  R26
00310e 95b0      	COM  R27
00310f 9580      	COM  R24
003110 9590      	COM  R25
003111 5faf      	SUBI R26,-1
003112 4fbf      	SBCI R27,-1
003113 4f8f      	SBCI R24,-1
003114 4f9f      	SBCI R25,-1
003115 9468      	SET
                 __MODD211:
003116 fd77      	SBRC R23,7
003117 df26      	RCALL __ANEGD1
003118 dfc1      	RCALL __DIVD21U
003119 01fd      	MOVW R30,R26
00311a 01bc      	MOVW R22,R24
00311b f40e      	BRTC __MODD212
00311c df21      	RCALL __ANEGD1
                 __MODD212:
00311d 9508      	RET
                 
                 __CHKSIGNW:
00311e 94e8      	CLT
00311f fff7      	SBRS R31,7
003120 c002      	RJMP __CHKSW1
003121 df18      	RCALL __ANEGW1
003122 9468      	SET
                 __CHKSW1:
003123 ffb7      	SBRS R27,7
003124 c006      	RJMP __CHKSW2
003125 95a0      	COM  R26
003126 95b0      	COM  R27
003127 9611      	ADIW R26,1
003128 f800      	BLD  R0,0
003129 9403      	INC  R0
00312a fa00      	BST  R0,0
                 __CHKSW2:
00312b 9508      	RET
                 
                 __CHKSIGND:
00312c 94e8      	CLT
00312d ff77      	SBRS R23,7
00312e c002      	RJMP __CHKSD1
00312f df0e      	RCALL __ANEGD1
003130 9468      	SET
                 __CHKSD1:
003131 ff97      	SBRS R25,7
003132 c00b      	RJMP __CHKSD2
003133 2400      	CLR  R0
003134 95a0      	COM  R26
003135 95b0      	COM  R27
003136 9580      	COM  R24
003137 9590      	COM  R25
003138 9611      	ADIW R26,1
003139 1d80      	ADC  R24,R0
00313a 1d90      	ADC  R25,R0
00313b f800      	BLD  R0,0
00313c 9403      	INC  R0
00313d fa00      	BST  R0,0
                 __CHKSD2:
00313e 9508      	RET
                 
                 __GETW1P:
00313f 91ed      	LD   R30,X+
003140 91fc      	LD   R31,X
003141 9711      	SBIW R26,1
003142 9508      	RET
                 
                 __GETD1P:
003143 91ed      	LD   R30,X+
003144 91fd      	LD   R31,X+
003145 916d      	LD   R22,X+
003146 917c      	LD   R23,X
003147 9713      	SBIW R26,3
003148 9508      	RET
                 
                 __GETD1P_INC:
003149 91ed      	LD   R30,X+
00314a 91fd      	LD   R31,X+
00314b 916d      	LD   R22,X+
00314c 917d      	LD   R23,X+
00314d 9508      	RET
                 
                 __PUTDP1:
00314e 93ed      	ST   X+,R30
00314f 93fd      	ST   X+,R31
003150 936d      	ST   X+,R22
003151 937c      	ST   X,R23
003152 9508      	RET
                 
                 __PUTDP1_DEC:
003153 937e      	ST   -X,R23
003154 936e      	ST   -X,R22
003155 93fe      	ST   -X,R31
003156 93ee      	ST   -X,R30
003157 9508      	RET
                 
                 __SWAPD12:
003158 2e18      	MOV  R1,R24
003159 2f86      	MOV  R24,R22
00315a 2d61      	MOV  R22,R1
00315b 2e19      	MOV  R1,R25
00315c 2f97      	MOV  R25,R23
00315d 2d71      	MOV  R23,R1
                 
                 __SWAPW12:
00315e 2e1b      	MOV  R1,R27
00315f 2fbf      	MOV  R27,R31
003160 2df1      	MOV  R31,R1
                 
                 __SWAPB12:
003161 2e1a      	MOV  R1,R26
003162 2fae      	MOV  R26,R30
003163 2de1      	MOV  R30,R1
003164 9508      	RET
                 
                 __CPD01:
003165 2400      	CLR  R0
003166 160e      	CP   R0,R30
003167 060f      	CPC  R0,R31
003168 0606      	CPC  R0,R22
003169 0607      	CPC  R0,R23
00316a 9508      	RET
                 
                 __CPD10:
00316b 9730      	SBIW R30,0
00316c 4060      	SBCI R22,0
00316d 4070      	SBCI R23,0
00316e 9508      	RET
                 
                 __CPW02:
00316f 2400      	CLR  R0
003170 160a      	CP   R0,R26
003171 060b      	CPC  R0,R27
003172 9508      	RET
                 
                 __CPD21:
003173 17ae      	CP   R26,R30
003174 07bf      	CPC  R27,R31
003175 0786      	CPC  R24,R22
003176 0797      	CPC  R25,R23
003177 9508      	RET
                 
                 __SAVELOCR6:
003178 935a      	ST   -Y,R21
                 __SAVELOCR5:
003179 934a      	ST   -Y,R20
                 __SAVELOCR4:
00317a 933a      	ST   -Y,R19
                 __SAVELOCR3:
00317b 932a      	ST   -Y,R18
                 __SAVELOCR2:
00317c 931a      	ST   -Y,R17
00317d 930a      	ST   -Y,R16
00317e 9508      	RET
                 
                 __LOADLOCR6:
00317f 815d      	LDD  R21,Y+5
                 __LOADLOCR5:
003180 814c      	LDD  R20,Y+4
                 __LOADLOCR4:
003181 813b      	LDD  R19,Y+3
                 __LOADLOCR3:
003182 812a      	LDD  R18,Y+2
                 __LOADLOCR2:
003183 8119      	LDD  R17,Y+1
003184 8108      	LD   R16,Y
003185 9508      	RET
                 
                 __INITLOCB:
                 __INITLOCW:
003186 0fac      	ADD  R26,R28
003187 1fbd      	ADC  R27,R29
                 __INITLOC0:
003188 9005      	LPM  R0,Z+
003189 920d      	ST   X+,R0
00318a 958a      	DEC  R24
00318b f7e1      	BRNE __INITLOC0
00318c 9508      	RET
                 
                 ;END OF CODE MARKER
                 __END_OF_CODE:


RESOURCE USE INFORMATION
------------------------

Notice:
The register and instruction counts are symbol table hit counts,
and hence implicitly used resources are not counted, eg, the
'lpm' instruction without operands implicitly uses r0 and z,
none of which are counted.

x,y,z are separate entities in the symbol table and are
counted separately from r26..r31 here.

.dseg memory usage only counts static data declared with .byte

ATmega2561 register use summary:
r0 : 155 r1 :  37 r2 :   0 r3 :   4 r4 :   3 r5 :   3 r6 :   7 r7 :   2 
r8 :   5 r9 :   5 r10:  20 r11:   4 r12:   4 r13:   6 r14:   5 r15:   3 
r16: 123 r17: 200 r18:  61 r19:  47 r20:  68 r21:  53 r22: 124 r23: 103 
r24: 101 r25:  57 r26:1450 r27: 561 r28:  57 r29:   2 r30:3117 r31:1118 
x  : 238 y  : 763 z  :  81 
Registers used: 34 out of 35 (97.1%)

ATmega2561 instruction use summary:
.lds  :   0 .lds.l:   0 .sts  :   0 .sts.l:   0 adc   :  79 add   :  83 
adiw  :  94 and   :   9 andi  :  92 asr   :   1 bclr  :   0 bld   :   2 
brbc  :   0 brbs  :   0 brcc  :   3 brcs  :   0 break :   0 breq  : 137 
brge  :  20 brhc  :   0 brhs  :   0 brid  :   0 brie  :   0 brlo  :  49 
brlt  :  21 brmi  :   1 brne  : 311 brpl  :   0 brsh  :  70 brtc  :   5 
brts  :   0 brvc  :   0 brvs  :   0 bset  :   0 bst   :   2 call  :1442 
cbi   :  10 cbr   :   1 clc   :   0 clh   :   0 cli   :   1 cln   :   0 
clr   :  58 cls   :   0 clt   :   3 clv   :   0 clz   :   0 com   :  19 
cp    :  96 cpc   : 237 cpi   : 334 cpse  :   0 dec   :   8 des   :   0 
eicall:   0 eijmp :   0 elpm  :   0 eor   :   0 fmul  :   0 fmuls :   0 
fmulsu:   0 icall :   0 ijmp  :   0 in    :  12 inc   :   3 jmp   :  62 
ld    : 178 ldd   : 378 ldi   :1460 lds   : 776 lpm   :   8 lsl   :  22 
lsr   :   5 mov   : 169 movw  : 251 mul   :  51 muls  :   2 mulsu :   0 
neg   :   3 nop   :   7 or    :  66 ori   :  29 out   :  41 pop   :  61 
push  :  61 rcall :  68 ret   : 288 reti  :   6 rjmp  : 464 rol   :  27 
ror   :   5 sbc   :  18 sbci  : 159 sbi   :  10 sbic  :   5 sbis  :   5 
sbiw  : 105 sbr   :   3 sbrc  :   2 sbrs  :   6 sec   :   0 seh   :   0 
sei   :   1 sen   :   0 ser   :   1 ses   :   0 set   :   3 sev   :   0 
sez   :   0 sleep :   0 spm   :   0 st    : 318 std   : 200 sts   : 675 
sub   :  14 subi  : 199 swap  :   0 tst   :   7 wdr   :   2 
Instructions used: 74 out of 119 (62.2%)

ATmega2561 memory use summary [bytes]:
Segment   Begin    End      Code   Data   Used    Size   Use%
---------------------------------------------------------------
[.cseg] 0x000000 0x00631a  24758    612  25370  262144   9.7%
[.dseg] 0x000200 0x00204e      0   6734   6734    8192  82.2%
[.eseg] 0x000000 0x000000      0      0      0    4096   0.0%

Assembly complete, 0 errors, 24 warnings
